
miniADAPTER.elf:     file format elf32-littlearm

Sections:
Idx Name          Size      VMA       LMA       File off  Algn
  0 .isr_vector   000000c0  08000000  08000000  00001000  2**0
                  CONTENTS, ALLOC, LOAD, READONLY, DATA
  1 .text         00003b6c  080000c0  080000c0  000010c0  2**2
                  CONTENTS, ALLOC, LOAD, READONLY, CODE
  2 .rodata       0000038c  08003c2c  08003c2c  00004c2c  2**2
                  CONTENTS, ALLOC, LOAD, READONLY, DATA
  3 .ARM.extab    00000000  08003fb8  08003fb8  00005060  2**0
                  CONTENTS, READONLY
  4 .ARM          00000000  08003fb8  08003fb8  00005060  2**0
                  CONTENTS, READONLY
  5 .preinit_array 00000000  08003fb8  08003fb8  00005060  2**0
                  CONTENTS, ALLOC, LOAD, DATA
  6 .init_array   00000004  08003fb8  08003fb8  00004fb8  2**2
                  CONTENTS, ALLOC, LOAD, READONLY, DATA
  7 .fini_array   00000004  08003fbc  08003fbc  00004fbc  2**2
                  CONTENTS, ALLOC, LOAD, READONLY, DATA
  8 .data         00000060  20000000  08003fc0  00005000  2**2
                  CONTENTS, ALLOC, LOAD, DATA
  9 .bss          000003bc  20000060  08004020  00005060  2**3
                  ALLOC
 10 ._user_heap_stack 00000604  2000041c  08004020  0000541c  2**0
                  ALLOC
 11 .ARM.attributes 00000028  00000000  00000000  00005060  2**0
                  CONTENTS, READONLY
 12 .debug_info   00016fcb  00000000  00000000  00005088  2**0
                  CONTENTS, READONLY, DEBUGGING, OCTETS
 13 .debug_abbrev 00003790  00000000  00000000  0001c053  2**0
                  CONTENTS, READONLY, DEBUGGING, OCTETS
 14 .debug_loclists 00009605  00000000  00000000  0001f7e3  2**0
                  CONTENTS, READONLY, DEBUGGING, OCTETS
 15 .debug_aranges 00000ea8  00000000  00000000  00028de8  2**3
                  CONTENTS, READONLY, DEBUGGING, OCTETS
 16 .debug_rnglists 00000f85  00000000  00000000  00029c90  2**0
                  CONTENTS, READONLY, DEBUGGING, OCTETS
 17 .debug_macro  00019ffc  00000000  00000000  0002ac15  2**0
                  CONTENTS, READONLY, DEBUGGING, OCTETS
 18 .debug_line   00019796  00000000  00000000  00044c11  2**0
                  CONTENTS, READONLY, DEBUGGING, OCTETS
 19 .debug_str    0009601d  00000000  00000000  0005e3a7  2**0
                  CONTENTS, READONLY, DEBUGGING, OCTETS
 20 .comment      00000043  00000000  00000000  000f43c4  2**0
                  CONTENTS, READONLY
 21 .debug_frame  00002b2c  00000000  00000000  000f4408  2**2
                  CONTENTS, READONLY, DEBUGGING, OCTETS
 22 .debug_line_str 0000006a  00000000  00000000  000f6f34  2**0
                  CONTENTS, READONLY, DEBUGGING, OCTETS

Disassembly of section .text:

080000c0 <__do_global_dtors_aux>:
 80000c0:	b510      	push	{r4, lr}
 80000c2:	4c06      	ldr	r4, [pc, #24]	@ (80000dc <__do_global_dtors_aux+0x1c>)
 80000c4:	7823      	ldrb	r3, [r4, #0]
 80000c6:	2b00      	cmp	r3, #0
 80000c8:	d107      	bne.n	80000da <__do_global_dtors_aux+0x1a>
 80000ca:	4b05      	ldr	r3, [pc, #20]	@ (80000e0 <__do_global_dtors_aux+0x20>)
 80000cc:	2b00      	cmp	r3, #0
 80000ce:	d002      	beq.n	80000d6 <__do_global_dtors_aux+0x16>
 80000d0:	4804      	ldr	r0, [pc, #16]	@ (80000e4 <__do_global_dtors_aux+0x24>)
 80000d2:	e000      	b.n	80000d6 <__do_global_dtors_aux+0x16>
 80000d4:	bf00      	nop
 80000d6:	2301      	movs	r3, #1
 80000d8:	7023      	strb	r3, [r4, #0]
 80000da:	bd10      	pop	{r4, pc}
 80000dc:	20000060 	.word	0x20000060
 80000e0:	00000000 	.word	0x00000000
 80000e4:	08003c14 	.word	0x08003c14

080000e8 <frame_dummy>:
 80000e8:	4b04      	ldr	r3, [pc, #16]	@ (80000fc <frame_dummy+0x14>)
 80000ea:	b510      	push	{r4, lr}
 80000ec:	2b00      	cmp	r3, #0
 80000ee:	d003      	beq.n	80000f8 <frame_dummy+0x10>
 80000f0:	4903      	ldr	r1, [pc, #12]	@ (8000100 <frame_dummy+0x18>)
 80000f2:	4804      	ldr	r0, [pc, #16]	@ (8000104 <frame_dummy+0x1c>)
 80000f4:	e000      	b.n	80000f8 <frame_dummy+0x10>
 80000f6:	bf00      	nop
 80000f8:	bd10      	pop	{r4, pc}
 80000fa:	46c0      	nop			@ (mov r8, r8)
 80000fc:	00000000 	.word	0x00000000
 8000100:	20000064 	.word	0x20000064
 8000104:	08003c14 	.word	0x08003c14

08000108 <strlen>:
 8000108:	2300      	movs	r3, #0
 800010a:	5cc2      	ldrb	r2, [r0, r3]
 800010c:	3301      	adds	r3, #1
 800010e:	2a00      	cmp	r2, #0
 8000110:	d1fb      	bne.n	800010a <strlen+0x2>
 8000112:	1e58      	subs	r0, r3, #1
 8000114:	4770      	bx	lr
	...

08000118 <__gnu_thumb1_case_uqi>:
 8000118:	b402      	push	{r1}
 800011a:	4671      	mov	r1, lr
 800011c:	0849      	lsrs	r1, r1, #1
 800011e:	0049      	lsls	r1, r1, #1
 8000120:	5c09      	ldrb	r1, [r1, r0]
 8000122:	0049      	lsls	r1, r1, #1
 8000124:	448e      	add	lr, r1
 8000126:	bc02      	pop	{r1}
 8000128:	4770      	bx	lr
 800012a:	46c0      	nop			@ (mov r8, r8)

0800012c <__gnu_thumb1_case_shi>:
 800012c:	b403      	push	{r0, r1}
 800012e:	4671      	mov	r1, lr
 8000130:	0849      	lsrs	r1, r1, #1
 8000132:	0040      	lsls	r0, r0, #1
 8000134:	0049      	lsls	r1, r1, #1
 8000136:	5e09      	ldrsh	r1, [r1, r0]
 8000138:	0049      	lsls	r1, r1, #1
 800013a:	448e      	add	lr, r1
 800013c:	bc03      	pop	{r0, r1}
 800013e:	4770      	bx	lr

08000140 <__udivsi3>:
 8000140:	2200      	movs	r2, #0
 8000142:	0843      	lsrs	r3, r0, #1
 8000144:	428b      	cmp	r3, r1
 8000146:	d374      	bcc.n	8000232 <__udivsi3+0xf2>
 8000148:	0903      	lsrs	r3, r0, #4
 800014a:	428b      	cmp	r3, r1
 800014c:	d35f      	bcc.n	800020e <__udivsi3+0xce>
 800014e:	0a03      	lsrs	r3, r0, #8
 8000150:	428b      	cmp	r3, r1
 8000152:	d344      	bcc.n	80001de <__udivsi3+0x9e>
 8000154:	0b03      	lsrs	r3, r0, #12
 8000156:	428b      	cmp	r3, r1
 8000158:	d328      	bcc.n	80001ac <__udivsi3+0x6c>
 800015a:	0c03      	lsrs	r3, r0, #16
 800015c:	428b      	cmp	r3, r1
 800015e:	d30d      	bcc.n	800017c <__udivsi3+0x3c>
 8000160:	22ff      	movs	r2, #255	@ 0xff
 8000162:	0209      	lsls	r1, r1, #8
 8000164:	ba12      	rev	r2, r2
 8000166:	0c03      	lsrs	r3, r0, #16
 8000168:	428b      	cmp	r3, r1
 800016a:	d302      	bcc.n	8000172 <__udivsi3+0x32>
 800016c:	1212      	asrs	r2, r2, #8
 800016e:	0209      	lsls	r1, r1, #8
 8000170:	d065      	beq.n	800023e <__udivsi3+0xfe>
 8000172:	0b03      	lsrs	r3, r0, #12
 8000174:	428b      	cmp	r3, r1
 8000176:	d319      	bcc.n	80001ac <__udivsi3+0x6c>
 8000178:	e000      	b.n	800017c <__udivsi3+0x3c>
 800017a:	0a09      	lsrs	r1, r1, #8
 800017c:	0bc3      	lsrs	r3, r0, #15
 800017e:	428b      	cmp	r3, r1
 8000180:	d301      	bcc.n	8000186 <__udivsi3+0x46>
 8000182:	03cb      	lsls	r3, r1, #15
 8000184:	1ac0      	subs	r0, r0, r3
 8000186:	4152      	adcs	r2, r2
 8000188:	0b83      	lsrs	r3, r0, #14
 800018a:	428b      	cmp	r3, r1
 800018c:	d301      	bcc.n	8000192 <__udivsi3+0x52>
 800018e:	038b      	lsls	r3, r1, #14
 8000190:	1ac0      	subs	r0, r0, r3
 8000192:	4152      	adcs	r2, r2
 8000194:	0b43      	lsrs	r3, r0, #13
 8000196:	428b      	cmp	r3, r1
 8000198:	d301      	bcc.n	800019e <__udivsi3+0x5e>
 800019a:	034b      	lsls	r3, r1, #13
 800019c:	1ac0      	subs	r0, r0, r3
 800019e:	4152      	adcs	r2, r2
 80001a0:	0b03      	lsrs	r3, r0, #12
 80001a2:	428b      	cmp	r3, r1
 80001a4:	d301      	bcc.n	80001aa <__udivsi3+0x6a>
 80001a6:	030b      	lsls	r3, r1, #12
 80001a8:	1ac0      	subs	r0, r0, r3
 80001aa:	4152      	adcs	r2, r2
 80001ac:	0ac3      	lsrs	r3, r0, #11
 80001ae:	428b      	cmp	r3, r1
 80001b0:	d301      	bcc.n	80001b6 <__udivsi3+0x76>
 80001b2:	02cb      	lsls	r3, r1, #11
 80001b4:	1ac0      	subs	r0, r0, r3
 80001b6:	4152      	adcs	r2, r2
 80001b8:	0a83      	lsrs	r3, r0, #10
 80001ba:	428b      	cmp	r3, r1
 80001bc:	d301      	bcc.n	80001c2 <__udivsi3+0x82>
 80001be:	028b      	lsls	r3, r1, #10
 80001c0:	1ac0      	subs	r0, r0, r3
 80001c2:	4152      	adcs	r2, r2
 80001c4:	0a43      	lsrs	r3, r0, #9
 80001c6:	428b      	cmp	r3, r1
 80001c8:	d301      	bcc.n	80001ce <__udivsi3+0x8e>
 80001ca:	024b      	lsls	r3, r1, #9
 80001cc:	1ac0      	subs	r0, r0, r3
 80001ce:	4152      	adcs	r2, r2
 80001d0:	0a03      	lsrs	r3, r0, #8
 80001d2:	428b      	cmp	r3, r1
 80001d4:	d301      	bcc.n	80001da <__udivsi3+0x9a>
 80001d6:	020b      	lsls	r3, r1, #8
 80001d8:	1ac0      	subs	r0, r0, r3
 80001da:	4152      	adcs	r2, r2
 80001dc:	d2cd      	bcs.n	800017a <__udivsi3+0x3a>
 80001de:	09c3      	lsrs	r3, r0, #7
 80001e0:	428b      	cmp	r3, r1
 80001e2:	d301      	bcc.n	80001e8 <__udivsi3+0xa8>
 80001e4:	01cb      	lsls	r3, r1, #7
 80001e6:	1ac0      	subs	r0, r0, r3
 80001e8:	4152      	adcs	r2, r2
 80001ea:	0983      	lsrs	r3, r0, #6
 80001ec:	428b      	cmp	r3, r1
 80001ee:	d301      	bcc.n	80001f4 <__udivsi3+0xb4>
 80001f0:	018b      	lsls	r3, r1, #6
 80001f2:	1ac0      	subs	r0, r0, r3
 80001f4:	4152      	adcs	r2, r2
 80001f6:	0943      	lsrs	r3, r0, #5
 80001f8:	428b      	cmp	r3, r1
 80001fa:	d301      	bcc.n	8000200 <__udivsi3+0xc0>
 80001fc:	014b      	lsls	r3, r1, #5
 80001fe:	1ac0      	subs	r0, r0, r3
 8000200:	4152      	adcs	r2, r2
 8000202:	0903      	lsrs	r3, r0, #4
 8000204:	428b      	cmp	r3, r1
 8000206:	d301      	bcc.n	800020c <__udivsi3+0xcc>
 8000208:	010b      	lsls	r3, r1, #4
 800020a:	1ac0      	subs	r0, r0, r3
 800020c:	4152      	adcs	r2, r2
 800020e:	08c3      	lsrs	r3, r0, #3
 8000210:	428b      	cmp	r3, r1
 8000212:	d301      	bcc.n	8000218 <__udivsi3+0xd8>
 8000214:	00cb      	lsls	r3, r1, #3
 8000216:	1ac0      	subs	r0, r0, r3
 8000218:	4152      	adcs	r2, r2
 800021a:	0883      	lsrs	r3, r0, #2
 800021c:	428b      	cmp	r3, r1
 800021e:	d301      	bcc.n	8000224 <__udivsi3+0xe4>
 8000220:	008b      	lsls	r3, r1, #2
 8000222:	1ac0      	subs	r0, r0, r3
 8000224:	4152      	adcs	r2, r2
 8000226:	0843      	lsrs	r3, r0, #1
 8000228:	428b      	cmp	r3, r1
 800022a:	d301      	bcc.n	8000230 <__udivsi3+0xf0>
 800022c:	004b      	lsls	r3, r1, #1
 800022e:	1ac0      	subs	r0, r0, r3
 8000230:	4152      	adcs	r2, r2
 8000232:	1a41      	subs	r1, r0, r1
 8000234:	d200      	bcs.n	8000238 <__udivsi3+0xf8>
 8000236:	4601      	mov	r1, r0
 8000238:	4152      	adcs	r2, r2
 800023a:	4610      	mov	r0, r2
 800023c:	4770      	bx	lr
 800023e:	e7ff      	b.n	8000240 <__udivsi3+0x100>
 8000240:	b501      	push	{r0, lr}
 8000242:	2000      	movs	r0, #0
 8000244:	f000 f8f0 	bl	8000428 <__aeabi_idiv0>
 8000248:	bd02      	pop	{r1, pc}
 800024a:	46c0      	nop			@ (mov r8, r8)

0800024c <__aeabi_uidivmod>:
 800024c:	2900      	cmp	r1, #0
 800024e:	d0f7      	beq.n	8000240 <__udivsi3+0x100>
 8000250:	e776      	b.n	8000140 <__udivsi3>
 8000252:	4770      	bx	lr

08000254 <__divsi3>:
 8000254:	4603      	mov	r3, r0
 8000256:	430b      	orrs	r3, r1
 8000258:	d47f      	bmi.n	800035a <__divsi3+0x106>
 800025a:	2200      	movs	r2, #0
 800025c:	0843      	lsrs	r3, r0, #1
 800025e:	428b      	cmp	r3, r1
 8000260:	d374      	bcc.n	800034c <__divsi3+0xf8>
 8000262:	0903      	lsrs	r3, r0, #4
 8000264:	428b      	cmp	r3, r1
 8000266:	d35f      	bcc.n	8000328 <__divsi3+0xd4>
 8000268:	0a03      	lsrs	r3, r0, #8
 800026a:	428b      	cmp	r3, r1
 800026c:	d344      	bcc.n	80002f8 <__divsi3+0xa4>
 800026e:	0b03      	lsrs	r3, r0, #12
 8000270:	428b      	cmp	r3, r1
 8000272:	d328      	bcc.n	80002c6 <__divsi3+0x72>
 8000274:	0c03      	lsrs	r3, r0, #16
 8000276:	428b      	cmp	r3, r1
 8000278:	d30d      	bcc.n	8000296 <__divsi3+0x42>
 800027a:	22ff      	movs	r2, #255	@ 0xff
 800027c:	0209      	lsls	r1, r1, #8
 800027e:	ba12      	rev	r2, r2
 8000280:	0c03      	lsrs	r3, r0, #16
 8000282:	428b      	cmp	r3, r1
 8000284:	d302      	bcc.n	800028c <__divsi3+0x38>
 8000286:	1212      	asrs	r2, r2, #8
 8000288:	0209      	lsls	r1, r1, #8
 800028a:	d065      	beq.n	8000358 <__divsi3+0x104>
 800028c:	0b03      	lsrs	r3, r0, #12
 800028e:	428b      	cmp	r3, r1
 8000290:	d319      	bcc.n	80002c6 <__divsi3+0x72>
 8000292:	e000      	b.n	8000296 <__divsi3+0x42>
 8000294:	0a09      	lsrs	r1, r1, #8
 8000296:	0bc3      	lsrs	r3, r0, #15
 8000298:	428b      	cmp	r3, r1
 800029a:	d301      	bcc.n	80002a0 <__divsi3+0x4c>
 800029c:	03cb      	lsls	r3, r1, #15
 800029e:	1ac0      	subs	r0, r0, r3
 80002a0:	4152      	adcs	r2, r2
 80002a2:	0b83      	lsrs	r3, r0, #14
 80002a4:	428b      	cmp	r3, r1
 80002a6:	d301      	bcc.n	80002ac <__divsi3+0x58>
 80002a8:	038b      	lsls	r3, r1, #14
 80002aa:	1ac0      	subs	r0, r0, r3
 80002ac:	4152      	adcs	r2, r2
 80002ae:	0b43      	lsrs	r3, r0, #13
 80002b0:	428b      	cmp	r3, r1
 80002b2:	d301      	bcc.n	80002b8 <__divsi3+0x64>
 80002b4:	034b      	lsls	r3, r1, #13
 80002b6:	1ac0      	subs	r0, r0, r3
 80002b8:	4152      	adcs	r2, r2
 80002ba:	0b03      	lsrs	r3, r0, #12
 80002bc:	428b      	cmp	r3, r1
 80002be:	d301      	bcc.n	80002c4 <__divsi3+0x70>
 80002c0:	030b      	lsls	r3, r1, #12
 80002c2:	1ac0      	subs	r0, r0, r3
 80002c4:	4152      	adcs	r2, r2
 80002c6:	0ac3      	lsrs	r3, r0, #11
 80002c8:	428b      	cmp	r3, r1
 80002ca:	d301      	bcc.n	80002d0 <__divsi3+0x7c>
 80002cc:	02cb      	lsls	r3, r1, #11
 80002ce:	1ac0      	subs	r0, r0, r3
 80002d0:	4152      	adcs	r2, r2
 80002d2:	0a83      	lsrs	r3, r0, #10
 80002d4:	428b      	cmp	r3, r1
 80002d6:	d301      	bcc.n	80002dc <__divsi3+0x88>
 80002d8:	028b      	lsls	r3, r1, #10
 80002da:	1ac0      	subs	r0, r0, r3
 80002dc:	4152      	adcs	r2, r2
 80002de:	0a43      	lsrs	r3, r0, #9
 80002e0:	428b      	cmp	r3, r1
 80002e2:	d301      	bcc.n	80002e8 <__divsi3+0x94>
 80002e4:	024b      	lsls	r3, r1, #9
 80002e6:	1ac0      	subs	r0, r0, r3
 80002e8:	4152      	adcs	r2, r2
 80002ea:	0a03      	lsrs	r3, r0, #8
 80002ec:	428b      	cmp	r3, r1
 80002ee:	d301      	bcc.n	80002f4 <__divsi3+0xa0>
 80002f0:	020b      	lsls	r3, r1, #8
 80002f2:	1ac0      	subs	r0, r0, r3
 80002f4:	4152      	adcs	r2, r2
 80002f6:	d2cd      	bcs.n	8000294 <__divsi3+0x40>
 80002f8:	09c3      	lsrs	r3, r0, #7
 80002fa:	428b      	cmp	r3, r1
 80002fc:	d301      	bcc.n	8000302 <__divsi3+0xae>
 80002fe:	01cb      	lsls	r3, r1, #7
 8000300:	1ac0      	subs	r0, r0, r3
 8000302:	4152      	adcs	r2, r2
 8000304:	0983      	lsrs	r3, r0, #6
 8000306:	428b      	cmp	r3, r1
 8000308:	d301      	bcc.n	800030e <__divsi3+0xba>
 800030a:	018b      	lsls	r3, r1, #6
 800030c:	1ac0      	subs	r0, r0, r3
 800030e:	4152      	adcs	r2, r2
 8000310:	0943      	lsrs	r3, r0, #5
 8000312:	428b      	cmp	r3, r1
 8000314:	d301      	bcc.n	800031a <__divsi3+0xc6>
 8000316:	014b      	lsls	r3, r1, #5
 8000318:	1ac0      	subs	r0, r0, r3
 800031a:	4152      	adcs	r2, r2
 800031c:	0903      	lsrs	r3, r0, #4
 800031e:	428b      	cmp	r3, r1
 8000320:	d301      	bcc.n	8000326 <__divsi3+0xd2>
 8000322:	010b      	lsls	r3, r1, #4
 8000324:	1ac0      	subs	r0, r0, r3
 8000326:	4152      	adcs	r2, r2
 8000328:	08c3      	lsrs	r3, r0, #3
 800032a:	428b      	cmp	r3, r1
 800032c:	d301      	bcc.n	8000332 <__divsi3+0xde>
 800032e:	00cb      	lsls	r3, r1, #3
 8000330:	1ac0      	subs	r0, r0, r3
 8000332:	4152      	adcs	r2, r2
 8000334:	0883      	lsrs	r3, r0, #2
 8000336:	428b      	cmp	r3, r1
 8000338:	d301      	bcc.n	800033e <__divsi3+0xea>
 800033a:	008b      	lsls	r3, r1, #2
 800033c:	1ac0      	subs	r0, r0, r3
 800033e:	4152      	adcs	r2, r2
 8000340:	0843      	lsrs	r3, r0, #1
 8000342:	428b      	cmp	r3, r1
 8000344:	d301      	bcc.n	800034a <__divsi3+0xf6>
 8000346:	004b      	lsls	r3, r1, #1
 8000348:	1ac0      	subs	r0, r0, r3
 800034a:	4152      	adcs	r2, r2
 800034c:	1a41      	subs	r1, r0, r1
 800034e:	d200      	bcs.n	8000352 <__divsi3+0xfe>
 8000350:	4601      	mov	r1, r0
 8000352:	4152      	adcs	r2, r2
 8000354:	4610      	mov	r0, r2
 8000356:	4770      	bx	lr
 8000358:	e05d      	b.n	8000416 <__divsi3+0x1c2>
 800035a:	0fca      	lsrs	r2, r1, #31
 800035c:	d000      	beq.n	8000360 <__divsi3+0x10c>
 800035e:	4249      	negs	r1, r1
 8000360:	1003      	asrs	r3, r0, #32
 8000362:	d300      	bcc.n	8000366 <__divsi3+0x112>
 8000364:	4240      	negs	r0, r0
 8000366:	4053      	eors	r3, r2
 8000368:	2200      	movs	r2, #0
 800036a:	469c      	mov	ip, r3
 800036c:	0903      	lsrs	r3, r0, #4
 800036e:	428b      	cmp	r3, r1
 8000370:	d32d      	bcc.n	80003ce <__divsi3+0x17a>
 8000372:	0a03      	lsrs	r3, r0, #8
 8000374:	428b      	cmp	r3, r1
 8000376:	d312      	bcc.n	800039e <__divsi3+0x14a>
 8000378:	22fc      	movs	r2, #252	@ 0xfc
 800037a:	0189      	lsls	r1, r1, #6
 800037c:	ba12      	rev	r2, r2
 800037e:	0a03      	lsrs	r3, r0, #8
 8000380:	428b      	cmp	r3, r1
 8000382:	d30c      	bcc.n	800039e <__divsi3+0x14a>
 8000384:	0189      	lsls	r1, r1, #6
 8000386:	1192      	asrs	r2, r2, #6
 8000388:	428b      	cmp	r3, r1
 800038a:	d308      	bcc.n	800039e <__divsi3+0x14a>
 800038c:	0189      	lsls	r1, r1, #6
 800038e:	1192      	asrs	r2, r2, #6
 8000390:	428b      	cmp	r3, r1
 8000392:	d304      	bcc.n	800039e <__divsi3+0x14a>
 8000394:	0189      	lsls	r1, r1, #6
 8000396:	d03a      	beq.n	800040e <__divsi3+0x1ba>
 8000398:	1192      	asrs	r2, r2, #6
 800039a:	e000      	b.n	800039e <__divsi3+0x14a>
 800039c:	0989      	lsrs	r1, r1, #6
 800039e:	09c3      	lsrs	r3, r0, #7
 80003a0:	428b      	cmp	r3, r1
 80003a2:	d301      	bcc.n	80003a8 <__divsi3+0x154>
 80003a4:	01cb      	lsls	r3, r1, #7
 80003a6:	1ac0      	subs	r0, r0, r3
 80003a8:	4152      	adcs	r2, r2
 80003aa:	0983      	lsrs	r3, r0, #6
 80003ac:	428b      	cmp	r3, r1
 80003ae:	d301      	bcc.n	80003b4 <__divsi3+0x160>
 80003b0:	018b      	lsls	r3, r1, #6
 80003b2:	1ac0      	subs	r0, r0, r3
 80003b4:	4152      	adcs	r2, r2
 80003b6:	0943      	lsrs	r3, r0, #5
 80003b8:	428b      	cmp	r3, r1
 80003ba:	d301      	bcc.n	80003c0 <__divsi3+0x16c>
 80003bc:	014b      	lsls	r3, r1, #5
 80003be:	1ac0      	subs	r0, r0, r3
 80003c0:	4152      	adcs	r2, r2
 80003c2:	0903      	lsrs	r3, r0, #4
 80003c4:	428b      	cmp	r3, r1
 80003c6:	d301      	bcc.n	80003cc <__divsi3+0x178>
 80003c8:	010b      	lsls	r3, r1, #4
 80003ca:	1ac0      	subs	r0, r0, r3
 80003cc:	4152      	adcs	r2, r2
 80003ce:	08c3      	lsrs	r3, r0, #3
 80003d0:	428b      	cmp	r3, r1
 80003d2:	d301      	bcc.n	80003d8 <__divsi3+0x184>
 80003d4:	00cb      	lsls	r3, r1, #3
 80003d6:	1ac0      	subs	r0, r0, r3
 80003d8:	4152      	adcs	r2, r2
 80003da:	0883      	lsrs	r3, r0, #2
 80003dc:	428b      	cmp	r3, r1
 80003de:	d301      	bcc.n	80003e4 <__divsi3+0x190>
 80003e0:	008b      	lsls	r3, r1, #2
 80003e2:	1ac0      	subs	r0, r0, r3
 80003e4:	4152      	adcs	r2, r2
 80003e6:	d2d9      	bcs.n	800039c <__divsi3+0x148>
 80003e8:	0843      	lsrs	r3, r0, #1
 80003ea:	428b      	cmp	r3, r1
 80003ec:	d301      	bcc.n	80003f2 <__divsi3+0x19e>
 80003ee:	004b      	lsls	r3, r1, #1
 80003f0:	1ac0      	subs	r0, r0, r3
 80003f2:	4152      	adcs	r2, r2
 80003f4:	1a41      	subs	r1, r0, r1
 80003f6:	d200      	bcs.n	80003fa <__divsi3+0x1a6>
 80003f8:	4601      	mov	r1, r0
 80003fa:	4663      	mov	r3, ip
 80003fc:	4152      	adcs	r2, r2
 80003fe:	105b      	asrs	r3, r3, #1
 8000400:	4610      	mov	r0, r2
 8000402:	d301      	bcc.n	8000408 <__divsi3+0x1b4>
 8000404:	4240      	negs	r0, r0
 8000406:	2b00      	cmp	r3, #0
 8000408:	d500      	bpl.n	800040c <__divsi3+0x1b8>
 800040a:	4249      	negs	r1, r1
 800040c:	4770      	bx	lr
 800040e:	4663      	mov	r3, ip
 8000410:	105b      	asrs	r3, r3, #1
 8000412:	d300      	bcc.n	8000416 <__divsi3+0x1c2>
 8000414:	4240      	negs	r0, r0
 8000416:	b501      	push	{r0, lr}
 8000418:	2000      	movs	r0, #0
 800041a:	f000 f805 	bl	8000428 <__aeabi_idiv0>
 800041e:	bd02      	pop	{r1, pc}

08000420 <__aeabi_idivmod>:
 8000420:	2900      	cmp	r1, #0
 8000422:	d0f8      	beq.n	8000416 <__divsi3+0x1c2>
 8000424:	e716      	b.n	8000254 <__divsi3>
 8000426:	4770      	bx	lr

08000428 <__aeabi_idiv0>:
 8000428:	4770      	bx	lr
 800042a:	46c0      	nop			@ (mov r8, r8)

0800042c <__aeabi_llsr>:
 800042c:	40d0      	lsrs	r0, r2
 800042e:	000b      	movs	r3, r1
 8000430:	40d1      	lsrs	r1, r2
 8000432:	469c      	mov	ip, r3
 8000434:	3a20      	subs	r2, #32
 8000436:	40d3      	lsrs	r3, r2
 8000438:	4318      	orrs	r0, r3
 800043a:	4252      	negs	r2, r2
 800043c:	4663      	mov	r3, ip
 800043e:	4093      	lsls	r3, r2
 8000440:	4318      	orrs	r0, r3
 8000442:	4770      	bx	lr

08000444 <MX_CAN_Init>:
  /* USER CODE END CAN_Init 0 */

  /* USER CODE BEGIN CAN_Init 1 */

  /* USER CODE END CAN_Init 1 */
  hcan1.Instance = CAN;
 8000444:	480b      	ldr	r0, [pc, #44]	@ (8000474 <MX_CAN_Init+0x30>)
 8000446:	4b0c      	ldr	r3, [pc, #48]	@ (8000478 <MX_CAN_Init+0x34>)
  hcan1.Init.Prescaler = 6;
  hcan1.Init.Mode = CAN_MODE_NORMAL;
  hcan1.Init.SyncJumpWidth = CAN_SJW_1TQ;
  hcan1.Init.TimeSeg1 = CAN_BS1_13TQ;
 8000448:	22c0      	movs	r2, #192	@ 0xc0
{
 800044a:	b510      	push	{r4, lr}
  hcan1.Instance = CAN;
 800044c:	6003      	str	r3, [r0, #0]
  hcan1.Init.Prescaler = 6;
 800044e:	2306      	movs	r3, #6
  hcan1.Init.TimeSeg1 = CAN_BS1_13TQ;
 8000450:	0312      	lsls	r2, r2, #12
 8000452:	6102      	str	r2, [r0, #16]
  hcan1.Init.TimeSeg2 = CAN_BS2_2TQ;
 8000454:	2280      	movs	r2, #128	@ 0x80
  hcan1.Init.Prescaler = 6;
 8000456:	6043      	str	r3, [r0, #4]
  hcan1.Init.Mode = CAN_MODE_NORMAL;
 8000458:	2300      	movs	r3, #0
  hcan1.Init.TimeSeg2 = CAN_BS2_2TQ;
 800045a:	0352      	lsls	r2, r2, #13
  hcan1.Init.Mode = CAN_MODE_NORMAL;
 800045c:	6083      	str	r3, [r0, #8]
  hcan1.Init.SyncJumpWidth = CAN_SJW_1TQ;
 800045e:	60c3      	str	r3, [r0, #12]
  hcan1.Init.TimeSeg2 = CAN_BS2_2TQ;
 8000460:	6142      	str	r2, [r0, #20]
  hcan1.Init.TimeTriggeredMode = DISABLE;
 8000462:	6183      	str	r3, [r0, #24]
  hcan1.Init.AutoBusOff = DISABLE;
  hcan1.Init.AutoWakeUp = DISABLE;
  hcan1.Init.AutoRetransmission = DISABLE;
  hcan1.Init.ReceiveFifoLocked = DISABLE;
 8000464:	8383      	strh	r3, [r0, #28]
  hcan1.Init.TransmitFifoPriority = DISABLE;
  if (HAL_CAN_Init(&hcan1) != HAL_OK)
 8000466:	f000 fe37 	bl	80010d8 <HAL_CAN_Init>
 800046a:	2800      	cmp	r0, #0
 800046c:	d001      	beq.n	8000472 <MX_CAN_Init+0x2e>
  {
    Error_Handler();
 800046e:	f000 fc8b 	bl	8000d88 <Error_Handler>
  }
  /* USER CODE BEGIN CAN_Init 2 */

  /* USER CODE END CAN_Init 2 */

}
 8000472:	bd10      	pop	{r4, pc}
 8000474:	2000007c 	.word	0x2000007c
 8000478:	40006400 	.word	0x40006400

0800047c <HAL_CAN_MspInit>:

void HAL_CAN_MspInit(CAN_HandleTypeDef* canHandle)
{
 800047c:	b510      	push	{r4, lr}
 800047e:	0004      	movs	r4, r0
 8000480:	b088      	sub	sp, #32

  GPIO_InitTypeDef GPIO_InitStruct = {0};
 8000482:	2214      	movs	r2, #20
 8000484:	2100      	movs	r1, #0
 8000486:	a803      	add	r0, sp, #12
 8000488:	f002 ff4a 	bl	8003320 <memset>
  if(canHandle->Instance==CAN)
 800048c:	4b17      	ldr	r3, [pc, #92]	@ (80004ec <HAL_CAN_MspInit+0x70>)
 800048e:	6822      	ldr	r2, [r4, #0]
 8000490:	429a      	cmp	r2, r3
 8000492:	d128      	bne.n	80004e6 <HAL_CAN_MspInit+0x6a>
  {
  /* USER CODE BEGIN CAN_MspInit 0 */

  /* USER CODE END CAN_MspInit 0 */
    /* CAN clock enable */
    __HAL_RCC_CAN1_CLK_ENABLE();
 8000494:	2180      	movs	r1, #128	@ 0x80
 8000496:	4b16      	ldr	r3, [pc, #88]	@ (80004f0 <HAL_CAN_MspInit+0x74>)
 8000498:	0489      	lsls	r1, r1, #18
 800049a:	69da      	ldr	r2, [r3, #28]
    GPIO_InitStruct.Pin = CAN_CLUSTER_RX_Pin|CAN_CLUSTER_TX_Pin;
    GPIO_InitStruct.Mode = GPIO_MODE_AF_PP;
    GPIO_InitStruct.Pull = GPIO_NOPULL;
    GPIO_InitStruct.Speed = GPIO_SPEED_FREQ_HIGH;
    GPIO_InitStruct.Alternate = GPIO_AF4_CAN;
    HAL_GPIO_Init(GPIOA, &GPIO_InitStruct);
 800049c:	2090      	movs	r0, #144	@ 0x90
    __HAL_RCC_CAN1_CLK_ENABLE();
 800049e:	430a      	orrs	r2, r1
 80004a0:	61da      	str	r2, [r3, #28]
 80004a2:	69da      	ldr	r2, [r3, #28]
    HAL_GPIO_Init(GPIOA, &GPIO_InitStruct);
 80004a4:	05c0      	lsls	r0, r0, #23
    __HAL_RCC_CAN1_CLK_ENABLE();
 80004a6:	400a      	ands	r2, r1
    __HAL_RCC_GPIOA_CLK_ENABLE();
 80004a8:	2180      	movs	r1, #128	@ 0x80
    __HAL_RCC_CAN1_CLK_ENABLE();
 80004aa:	9201      	str	r2, [sp, #4]
 80004ac:	9a01      	ldr	r2, [sp, #4]
    __HAL_RCC_GPIOA_CLK_ENABLE();
 80004ae:	695a      	ldr	r2, [r3, #20]
 80004b0:	0289      	lsls	r1, r1, #10
 80004b2:	430a      	orrs	r2, r1
 80004b4:	615a      	str	r2, [r3, #20]
 80004b6:	695b      	ldr	r3, [r3, #20]
 80004b8:	400b      	ands	r3, r1
 80004ba:	9302      	str	r3, [sp, #8]
 80004bc:	9b02      	ldr	r3, [sp, #8]
    GPIO_InitStruct.Pin = CAN_CLUSTER_RX_Pin|CAN_CLUSTER_TX_Pin;
 80004be:	23c0      	movs	r3, #192	@ 0xc0
 80004c0:	015b      	lsls	r3, r3, #5
 80004c2:	9303      	str	r3, [sp, #12]
    GPIO_InitStruct.Mode = GPIO_MODE_AF_PP;
 80004c4:	2302      	movs	r3, #2
 80004c6:	9304      	str	r3, [sp, #16]
    GPIO_InitStruct.Speed = GPIO_SPEED_FREQ_HIGH;
 80004c8:	3301      	adds	r3, #1
 80004ca:	9306      	str	r3, [sp, #24]
    HAL_GPIO_Init(GPIOA, &GPIO_InitStruct);
 80004cc:	a903      	add	r1, sp, #12
    GPIO_InitStruct.Alternate = GPIO_AF4_CAN;
 80004ce:	3301      	adds	r3, #1
 80004d0:	9307      	str	r3, [sp, #28]
    HAL_GPIO_Init(GPIOA, &GPIO_InitStruct);
 80004d2:	f001 facf 	bl	8001a74 <HAL_GPIO_Init>

    /* CAN interrupt Init */
    HAL_NVIC_SetPriority(CEC_CAN_IRQn, 0, 0);
 80004d6:	2200      	movs	r2, #0
 80004d8:	201e      	movs	r0, #30
 80004da:	0011      	movs	r1, r2
 80004dc:	f001 f960 	bl	80017a0 <HAL_NVIC_SetPriority>
    HAL_NVIC_EnableIRQ(CEC_CAN_IRQn);
 80004e0:	201e      	movs	r0, #30
 80004e2:	f001 f987 	bl	80017f4 <HAL_NVIC_EnableIRQ>
  /* USER CODE BEGIN CAN_MspInit 1 */

  /* USER CODE END CAN_MspInit 1 */
  }
}
 80004e6:	b008      	add	sp, #32
 80004e8:	bd10      	pop	{r4, pc}
 80004ea:	46c0      	nop			@ (mov r8, r8)
 80004ec:	40006400 	.word	0x40006400
 80004f0:	40021000 	.word	0x40021000

080004f4 <MX_GPIO_Init>:
        * EXTI
        * Free pins are configured automatically as Analog (this feature is enabled through
        * the Code Generation settings)
*/
void MX_GPIO_Init(void)
{
 80004f4:	b5f0      	push	{r4, r5, r6, r7, lr}
 80004f6:	b089      	sub	sp, #36	@ 0x24

  GPIO_InitTypeDef GPIO_InitStruct = {0};
 80004f8:	2214      	movs	r2, #20
 80004fa:	2100      	movs	r1, #0
 80004fc:	a803      	add	r0, sp, #12
 80004fe:	f002 ff0f 	bl	8003320 <memset>

  /* GPIO Ports Clock Enable */
  __HAL_RCC_GPIOB_CLK_ENABLE();
 8000502:	2180      	movs	r1, #128	@ 0x80
 8000504:	4b27      	ldr	r3, [pc, #156]	@ (80005a4 <MX_GPIO_Init+0xb0>)
 8000506:	02c9      	lsls	r1, r1, #11
 8000508:	695a      	ldr	r2, [r3, #20]
  __HAL_RCC_GPIOF_CLK_ENABLE();
  __HAL_RCC_GPIOA_CLK_ENABLE();

  /*Configure GPIO pin Output Level */
  HAL_GPIO_WritePin(GPIOA, BUZZER_Pin|LED_DEBUG_Pin|LED_STATUS_SA_ACTIVE_Pin|LED_STATUS_SA_PASSIVE_Pin
 800050a:	2790      	movs	r7, #144	@ 0x90
  __HAL_RCC_GPIOB_CLK_ENABLE();
 800050c:	430a      	orrs	r2, r1
 800050e:	615a      	str	r2, [r3, #20]
 8000510:	695a      	ldr	r2, [r3, #20]
                          |LED_LEFT_SA_INDICATOR_Pin, GPIO_PIN_RESET);

  /*Configure GPIO pin Output Level */
  HAL_GPIO_WritePin(LED_RIGHT_SA_INDICATOR_GPIO_Port, LED_RIGHT_SA_INDICATOR_Pin, GPIO_PIN_RESET);
 8000512:	4d25      	ldr	r5, [pc, #148]	@ (80005a8 <MX_GPIO_Init+0xb4>)
  __HAL_RCC_GPIOB_CLK_ENABLE();
 8000514:	400a      	ands	r2, r1
  __HAL_RCC_GPIOF_CLK_ENABLE();
 8000516:	2180      	movs	r1, #128	@ 0x80
  __HAL_RCC_GPIOB_CLK_ENABLE();
 8000518:	9200      	str	r2, [sp, #0]
 800051a:	9a00      	ldr	r2, [sp, #0]
  __HAL_RCC_GPIOF_CLK_ENABLE();
 800051c:	695a      	ldr	r2, [r3, #20]
 800051e:	03c9      	lsls	r1, r1, #15
 8000520:	430a      	orrs	r2, r1
 8000522:	615a      	str	r2, [r3, #20]
 8000524:	695a      	ldr	r2, [r3, #20]
  HAL_GPIO_WritePin(GPIOA, BUZZER_Pin|LED_DEBUG_Pin|LED_STATUS_SA_ACTIVE_Pin|LED_STATUS_SA_PASSIVE_Pin
 8000526:	05ff      	lsls	r7, r7, #23
  __HAL_RCC_GPIOF_CLK_ENABLE();
 8000528:	400a      	ands	r2, r1
  __HAL_RCC_GPIOA_CLK_ENABLE();
 800052a:	2180      	movs	r1, #128	@ 0x80
  __HAL_RCC_GPIOF_CLK_ENABLE();
 800052c:	9201      	str	r2, [sp, #4]
 800052e:	9a01      	ldr	r2, [sp, #4]
  __HAL_RCC_GPIOA_CLK_ENABLE();
 8000530:	695a      	ldr	r2, [r3, #20]
 8000532:	0289      	lsls	r1, r1, #10
 8000534:	430a      	orrs	r2, r1
 8000536:	615a      	str	r2, [r3, #20]
 8000538:	695b      	ldr	r3, [r3, #20]
  HAL_GPIO_WritePin(GPIOA, BUZZER_Pin|LED_DEBUG_Pin|LED_STATUS_SA_ACTIVE_Pin|LED_STATUS_SA_PASSIVE_Pin
 800053a:	0038      	movs	r0, r7
  __HAL_RCC_GPIOA_CLK_ENABLE();
 800053c:	400b      	ands	r3, r1
 800053e:	9302      	str	r3, [sp, #8]
  HAL_GPIO_WritePin(GPIOA, BUZZER_Pin|LED_DEBUG_Pin|LED_STATUS_SA_ACTIVE_Pin|LED_STATUS_SA_PASSIVE_Pin
 8000540:	2200      	movs	r2, #0
 8000542:	21f2      	movs	r1, #242	@ 0xf2
  __HAL_RCC_GPIOA_CLK_ENABLE();
 8000544:	9b02      	ldr	r3, [sp, #8]
  HAL_GPIO_WritePin(GPIOA, BUZZER_Pin|LED_DEBUG_Pin|LED_STATUS_SA_ACTIVE_Pin|LED_STATUS_SA_PASSIVE_Pin
 8000546:	f001 fb47 	bl	8001bd8 <HAL_GPIO_WritePin>
  HAL_GPIO_WritePin(LED_RIGHT_SA_INDICATOR_GPIO_Port, LED_RIGHT_SA_INDICATOR_Pin, GPIO_PIN_RESET);
 800054a:	2200      	movs	r2, #0
 800054c:	0028      	movs	r0, r5
 800054e:	2102      	movs	r1, #2
 8000550:	f001 fb42 	bl	8001bd8 <HAL_GPIO_WritePin>

  /*Configure GPIO pin : PB8 */
  GPIO_InitStruct.Pin = GPIO_PIN_8;
 8000554:	2380      	movs	r3, #128	@ 0x80
  GPIO_InitStruct.Mode = GPIO_MODE_ANALOG;
  GPIO_InitStruct.Pull = GPIO_NOPULL;
 8000556:	2400      	movs	r4, #0
  GPIO_InitStruct.Pin = GPIO_PIN_8;
 8000558:	005b      	lsls	r3, r3, #1
  HAL_GPIO_Init(GPIOB, &GPIO_InitStruct);
 800055a:	0028      	movs	r0, r5
  GPIO_InitStruct.Pin = GPIO_PIN_8;
 800055c:	9303      	str	r3, [sp, #12]
  HAL_GPIO_Init(GPIOB, &GPIO_InitStruct);
 800055e:	a903      	add	r1, sp, #12
  GPIO_InitStruct.Mode = GPIO_MODE_ANALOG;
 8000560:	3bfd      	subs	r3, #253	@ 0xfd

  /*Configure GPIO pin : PA0 */
  GPIO_InitStruct.Pin = GPIO_PIN_0;
 8000562:	2601      	movs	r6, #1
  GPIO_InitStruct.Mode = GPIO_MODE_ANALOG;
 8000564:	9304      	str	r3, [sp, #16]
  GPIO_InitStruct.Pull = GPIO_NOPULL;
 8000566:	9405      	str	r4, [sp, #20]
  HAL_GPIO_Init(GPIOB, &GPIO_InitStruct);
 8000568:	f001 fa84 	bl	8001a74 <HAL_GPIO_Init>
  GPIO_InitStruct.Mode = GPIO_MODE_ANALOG;
 800056c:	2303      	movs	r3, #3
  GPIO_InitStruct.Pull = GPIO_NOPULL;
  HAL_GPIO_Init(GPIOA, &GPIO_InitStruct);
 800056e:	0038      	movs	r0, r7
 8000570:	a903      	add	r1, sp, #12
  GPIO_InitStruct.Mode = GPIO_MODE_ANALOG;
 8000572:	9304      	str	r3, [sp, #16]
  GPIO_InitStruct.Pin = GPIO_PIN_0;
 8000574:	9603      	str	r6, [sp, #12]
  GPIO_InitStruct.Pull = GPIO_NOPULL;
 8000576:	9405      	str	r4, [sp, #20]
  HAL_GPIO_Init(GPIOA, &GPIO_InitStruct);
 8000578:	f001 fa7c 	bl	8001a74 <HAL_GPIO_Init>

  /*Configure GPIO pins : PAPin PAPin PAPin PAPin
                           PAPin */
  GPIO_InitStruct.Pin = BUZZER_Pin|LED_DEBUG_Pin|LED_STATUS_SA_ACTIVE_Pin|LED_STATUS_SA_PASSIVE_Pin
 800057c:	23f2      	movs	r3, #242	@ 0xf2
                          |LED_LEFT_SA_INDICATOR_Pin;
  GPIO_InitStruct.Mode = GPIO_MODE_OUTPUT_PP;
  GPIO_InitStruct.Pull = GPIO_NOPULL;
  GPIO_InitStruct.Speed = GPIO_SPEED_FREQ_LOW;
  HAL_GPIO_Init(GPIOA, &GPIO_InitStruct);
 800057e:	0038      	movs	r0, r7
 8000580:	a903      	add	r1, sp, #12
  GPIO_InitStruct.Pin = BUZZER_Pin|LED_DEBUG_Pin|LED_STATUS_SA_ACTIVE_Pin|LED_STATUS_SA_PASSIVE_Pin
 8000582:	9303      	str	r3, [sp, #12]
  GPIO_InitStruct.Mode = GPIO_MODE_OUTPUT_PP;
 8000584:	9604      	str	r6, [sp, #16]
  GPIO_InitStruct.Pull = GPIO_NOPULL;
 8000586:	9405      	str	r4, [sp, #20]
  GPIO_InitStruct.Speed = GPIO_SPEED_FREQ_LOW;
 8000588:	9406      	str	r4, [sp, #24]
  HAL_GPIO_Init(GPIOA, &GPIO_InitStruct);
 800058a:	f001 fa73 	bl	8001a74 <HAL_GPIO_Init>

  /*Configure GPIO pin : PtPin */
  GPIO_InitStruct.Pin = LED_RIGHT_SA_INDICATOR_Pin;
 800058e:	2302      	movs	r3, #2
  GPIO_InitStruct.Mode = GPIO_MODE_OUTPUT_PP;
  GPIO_InitStruct.Pull = GPIO_NOPULL;
  GPIO_InitStruct.Speed = GPIO_SPEED_FREQ_LOW;
  HAL_GPIO_Init(LED_RIGHT_SA_INDICATOR_GPIO_Port, &GPIO_InitStruct);
 8000590:	0028      	movs	r0, r5
 8000592:	a903      	add	r1, sp, #12
  GPIO_InitStruct.Pin = LED_RIGHT_SA_INDICATOR_Pin;
 8000594:	9303      	str	r3, [sp, #12]
  GPIO_InitStruct.Mode = GPIO_MODE_OUTPUT_PP;
 8000596:	9604      	str	r6, [sp, #16]
  GPIO_InitStruct.Pull = GPIO_NOPULL;
 8000598:	9405      	str	r4, [sp, #20]
  GPIO_InitStruct.Speed = GPIO_SPEED_FREQ_LOW;
 800059a:	9406      	str	r4, [sp, #24]
  HAL_GPIO_Init(LED_RIGHT_SA_INDICATOR_GPIO_Port, &GPIO_InitStruct);
 800059c:	f001 fa6a 	bl	8001a74 <HAL_GPIO_Init>

}
 80005a0:	b009      	add	sp, #36	@ 0x24
 80005a2:	bdf0      	pop	{r4, r5, r6, r7, pc}
 80005a4:	40021000 	.word	0x40021000
 80005a8:	48000400 	.word	0x48000400

080005ac <SystemClock_Config>:
/**
  * @brief System Clock Configuration
  * @retval None
  */
void SystemClock_Config(void)
{
 80005ac:	b530      	push	{r4, r5, lr}
 80005ae:	b093      	sub	sp, #76	@ 0x4c
  RCC_OscInitTypeDef RCC_OscInitStruct = {0};
 80005b0:	222c      	movs	r2, #44	@ 0x2c
 80005b2:	2100      	movs	r1, #0
 80005b4:	a807      	add	r0, sp, #28
 80005b6:	f002 feb3 	bl	8003320 <memset>
  RCC_ClkInitTypeDef RCC_ClkInitStruct = {0};
 80005ba:	2210      	movs	r2, #16
 80005bc:	2100      	movs	r1, #0
 80005be:	a801      	add	r0, sp, #4
 80005c0:	f002 feae 	bl	8003320 <memset>
  * in the RCC_OscInitTypeDef structure.
  */
  RCC_OscInitStruct.OscillatorType = RCC_OSCILLATORTYPE_HSE;
  RCC_OscInitStruct.HSEState = RCC_HSE_ON;
  RCC_OscInitStruct.PLL.PLLState = RCC_PLL_ON;
  RCC_OscInitStruct.PLL.PLLSource = RCC_PLLSOURCE_HSE;
 80005c4:	2380      	movs	r3, #128	@ 0x80
 80005c6:	025b      	lsls	r3, r3, #9
 80005c8:	930f      	str	r3, [sp, #60]	@ 0x3c
  RCC_OscInitStruct.PLL.PLLMUL = RCC_PLL_MUL6;
 80005ca:	2380      	movs	r3, #128	@ 0x80
  RCC_OscInitStruct.OscillatorType = RCC_OSCILLATORTYPE_HSE;
 80005cc:	2401      	movs	r4, #1
  RCC_OscInitStruct.PLL.PLLState = RCC_PLL_ON;
 80005ce:	2502      	movs	r5, #2
  RCC_OscInitStruct.PLL.PLLMUL = RCC_PLL_MUL6;
 80005d0:	035b      	lsls	r3, r3, #13
  RCC_OscInitStruct.PLL.PREDIV = RCC_PREDIV_DIV1;
  if (HAL_RCC_OscConfig(&RCC_OscInitStruct) != HAL_OK)
 80005d2:	a805      	add	r0, sp, #20
  RCC_OscInitStruct.OscillatorType = RCC_OSCILLATORTYPE_HSE;
 80005d4:	9405      	str	r4, [sp, #20]
  RCC_OscInitStruct.HSEState = RCC_HSE_ON;
 80005d6:	9406      	str	r4, [sp, #24]
  RCC_OscInitStruct.PLL.PLLState = RCC_PLL_ON;
 80005d8:	950e      	str	r5, [sp, #56]	@ 0x38
  RCC_OscInitStruct.PLL.PLLMUL = RCC_PLL_MUL6;
 80005da:	9310      	str	r3, [sp, #64]	@ 0x40
  if (HAL_RCC_OscConfig(&RCC_OscInitStruct) != HAL_OK)
 80005dc:	f001 fb0a 	bl	8001bf4 <HAL_RCC_OscConfig>
 80005e0:	2800      	cmp	r0, #0
 80005e2:	d001      	beq.n	80005e8 <SystemClock_Config+0x3c>
  \details Disables IRQ interrupts by setting the I-bit in the CPSR.
           Can only be executed in Privileged modes.
 */
__STATIC_FORCEINLINE void __disable_irq(void)
{
  __ASM volatile ("cpsid i" : : : "memory");
 80005e4:	b672      	cpsid	i
void Error_Handler(void)
{
  /* USER CODE BEGIN Error_Handler_Debug */
  /* User can add his own implementation to report the HAL error return state */
  __disable_irq();
  while (1)
 80005e6:	e7fe      	b.n	80005e6 <SystemClock_Config+0x3a>
  RCC_ClkInitStruct.ClockType = RCC_CLOCKTYPE_HCLK|RCC_CLOCKTYPE_SYSCLK
 80005e8:	2307      	movs	r3, #7
  RCC_ClkInitStruct.AHBCLKDivider = RCC_SYSCLK_DIV1;
 80005ea:	9003      	str	r0, [sp, #12]
  RCC_ClkInitStruct.APB1CLKDivider = RCC_HCLK_DIV1;
 80005ec:	9004      	str	r0, [sp, #16]
  if (HAL_RCC_ClockConfig(&RCC_ClkInitStruct, FLASH_LATENCY_1) != HAL_OK)
 80005ee:	0021      	movs	r1, r4
 80005f0:	a801      	add	r0, sp, #4
  RCC_ClkInitStruct.ClockType = RCC_CLOCKTYPE_HCLK|RCC_CLOCKTYPE_SYSCLK
 80005f2:	9301      	str	r3, [sp, #4]
  RCC_ClkInitStruct.SYSCLKSource = RCC_SYSCLKSOURCE_PLLCLK;
 80005f4:	9502      	str	r5, [sp, #8]
  if (HAL_RCC_ClockConfig(&RCC_ClkInitStruct, FLASH_LATENCY_1) != HAL_OK)
 80005f6:	f001 fd83 	bl	8002100 <HAL_RCC_ClockConfig>
 80005fa:	2800      	cmp	r0, #0
 80005fc:	d001      	beq.n	8000602 <SystemClock_Config+0x56>
 80005fe:	b672      	cpsid	i
  while (1)
 8000600:	e7fe      	b.n	8000600 <SystemClock_Config+0x54>
}
 8000602:	b013      	add	sp, #76	@ 0x4c
 8000604:	bd30      	pop	{r4, r5, pc}
	...

08000608 <main>:
{
 8000608:	b5f0      	push	{r4, r5, r6, r7, lr}
  car_data.command_from_external = COMMAND_EMPTY;
 800060a:	2500      	movs	r5, #0
{
 800060c:	b089      	sub	sp, #36	@ 0x24
  HAL_Init();
 800060e:	f000 fd23 	bl	8001058 <HAL_Init>
  SystemClock_Config();
 8000612:	f7ff ffcb 	bl	80005ac <SystemClock_Config>
  MX_GPIO_Init();
 8000616:	f7ff ff6d 	bl	80004f4 <MX_GPIO_Init>
  MX_CAN_Init();
 800061a:	f7ff ff13 	bl	8000444 <MX_CAN_Init>
  MX_USART2_UART_Init();
 800061e:	f000 fc69 	bl	8000ef4 <MX_USART2_UART_Init>
  MX_TIM1_Init();
 8000622:	f000 fc0d 	bl	8000e40 <MX_TIM1_Init>
  logger_uart("START INIT\n\r");
 8000626:	48be      	ldr	r0, [pc, #760]	@ (8000920 <main+0x318>)
 8000628:	f002 fdb6 	bl	8003198 <logger_uart>
  car_data.command_from_external = COMMAND_EMPTY;
 800062c:	4cbd      	ldr	r4, [pc, #756]	@ (8000924 <main+0x31c>)
  Set_Filter_CAN(CANBUS_CLUSTER ,CAN_RX_FIFO0, 0x531, 0x3BA, 0x5C1, 0x320, 0);
 800062e:	4ebe      	ldr	r6, [pc, #760]	@ (8000928 <main+0x320>)
  car_data.command_from_external = COMMAND_EMPTY;
 8000630:	7225      	strb	r5, [r4, #8]
  EEPROM_Init();
 8000632:	f002 fd6f 	bl	8003114 <EEPROM_Init>
  Set_Filter_CAN(CANBUS_CLUSTER ,CAN_RX_FIFO0, 0x531, 0x3BA, 0x5C1, 0x320, 0);
 8000636:	4bbd      	ldr	r3, [pc, #756]	@ (800092c <main+0x324>)
 8000638:	0029      	movs	r1, r5
 800063a:	9304      	str	r3, [sp, #16]
 800063c:	23c8      	movs	r3, #200	@ 0xc8
 800063e:	009b      	lsls	r3, r3, #2
 8000640:	4abb      	ldr	r2, [pc, #748]	@ (8000930 <main+0x328>)
 8000642:	9804      	ldr	r0, [sp, #16]
 8000644:	9502      	str	r5, [sp, #8]
 8000646:	9301      	str	r3, [sp, #4]
 8000648:	9600      	str	r6, [sp, #0]
 800064a:	4bba      	ldr	r3, [pc, #744]	@ (8000934 <main+0x32c>)
 800064c:	f002 fb4c 	bl	8002ce8 <Set_Filter_CAN>
  Set_Filter_CAN(CANBUS_CLUSTER ,CAN_RX_FIFO0, 0x67C, 0x000, 0x000, 0x000, 1);
 8000650:	2301      	movs	r3, #1
 8000652:	0029      	movs	r1, r5
 8000654:	4ab8      	ldr	r2, [pc, #736]	@ (8000938 <main+0x330>)
 8000656:	9804      	ldr	r0, [sp, #16]
 8000658:	9302      	str	r3, [sp, #8]
 800065a:	9501      	str	r5, [sp, #4]
 800065c:	002b      	movs	r3, r5
 800065e:	9500      	str	r5, [sp, #0]
 8000660:	f002 fb42 	bl	8002ce8 <Set_Filter_CAN>
  CAN_Start(CANBUS_CLUSTER);
 8000664:	9804      	ldr	r0, [sp, #16]
 8000666:	f002 fb67 	bl	8002d38 <CAN_Start>
  HAL_TIM_Base_Start_IT(&htim1);
 800066a:	48b4      	ldr	r0, [pc, #720]	@ (800093c <main+0x334>)
 800066c:	f001 fdec 	bl	8002248 <HAL_TIM_Base_Start_IT>
  logger_uart("INIT OK\n\r");
 8000670:	48b3      	ldr	r0, [pc, #716]	@ (8000940 <main+0x338>)
 8000672:	f002 fd91 	bl	8003198 <logger_uart>
  status = EEPROM_Read(PARAM_INDICATION_WITH_TURN_LIGHT, &VALUE_PARAM_INDICATION_WITH_TURN_LIGHT);
 8000676:	4db3      	ldr	r5, [pc, #716]	@ (8000944 <main+0x33c>)
 8000678:	48b3      	ldr	r0, [pc, #716]	@ (8000948 <main+0x340>)
 800067a:	0029      	movs	r1, r5
 800067c:	f002 fc62 	bl	8002f44 <EEPROM_Read>
 8000680:	4fb2      	ldr	r7, [pc, #712]	@ (800094c <main+0x344>)
 8000682:	9607      	str	r6, [sp, #28]
 8000684:	7038      	strb	r0, [r7, #0]
  if (status ==EEPROM_OK)
 8000686:	2800      	cmp	r0, #0
 8000688:	d124      	bne.n	80006d4 <main+0xcc>
		  if (VALUE_PARAM_INDICATION_WITH_TURN_LIGHT!=ON && VALUE_PARAM_INDICATION_WITH_TURN_LIGHT!=OFF)
 800068a:	682a      	ldr	r2, [r5, #0]
 800068c:	1e93      	subs	r3, r2, #2
 800068e:	2b01      	cmp	r3, #1
 8000690:	d905      	bls.n	800069e <main+0x96>
			  VALUE_PARAM_INDICATION_WITH_TURN_LIGHT=OFF;
 8000692:	2102      	movs	r1, #2
			  logger_uart("ERROR READ FLASH (%d)!!! Set default PARAM_INDICATION_WITH_TURN_LIGHT: OFF\n\r",VALUE_PARAM_INDICATION_WITH_TURN_LIGHT);
 8000694:	48ae      	ldr	r0, [pc, #696]	@ (8000950 <main+0x348>)
			  VALUE_PARAM_INDICATION_WITH_TURN_LIGHT=OFF;
 8000696:	6029      	str	r1, [r5, #0]
	  logger_uart("ERROR READ FLASH!!! Set default PARAM_INDICATION_WITH_TURN_LIGHT: OFF [%d]\n\r", status);
 8000698:	f002 fd7e 	bl	8003198 <logger_uart>
 800069c:	e006      	b.n	80006ac <main+0xa4>
			} else logger_uart("PARAM_INDICATION_WITH_TURN_LIGHT: %s [%d]\n\r", VALUE_PARAM_INDICATION_WITH_TURN_LIGHT==OFF ? "OFF" : "ON", VALUE_PARAM_INDICATION_WITH_TURN_LIGHT);
 800069e:	49ad      	ldr	r1, [pc, #692]	@ (8000954 <main+0x34c>)
 80006a0:	2a02      	cmp	r2, #2
 80006a2:	d100      	bne.n	80006a6 <main+0x9e>
 80006a4:	49ac      	ldr	r1, [pc, #688]	@ (8000958 <main+0x350>)
 80006a6:	48ad      	ldr	r0, [pc, #692]	@ (800095c <main+0x354>)
 80006a8:	f002 fd76 	bl	8003198 <logger_uart>
  status = EEPROM_Read(PARAM_BUZZER, &VALUE_PARAM_BUZZER);
 80006ac:	4bac      	ldr	r3, [pc, #688]	@ (8000960 <main+0x358>)
 80006ae:	48ad      	ldr	r0, [pc, #692]	@ (8000964 <main+0x35c>)
 80006b0:	0019      	movs	r1, r3
 80006b2:	9306      	str	r3, [sp, #24]
 80006b4:	f002 fc46 	bl	8002f44 <EEPROM_Read>
 80006b8:	7038      	strb	r0, [r7, #0]
  if (status ==EEPROM_OK)
 80006ba:	2800      	cmp	r0, #0
 80006bc:	d000      	beq.n	80006c0 <main+0xb8>
 80006be:	e0f3      	b.n	80008a8 <main+0x2a0>
		  if (VALUE_PARAM_BUZZER!=ON && VALUE_PARAM_BUZZER!=OFF)
 80006c0:	686a      	ldr	r2, [r5, #4]
 80006c2:	1e93      	subs	r3, r2, #2
 80006c4:	2b01      	cmp	r3, #1
 80006c6:	d90e      	bls.n	80006e6 <main+0xde>
			  VALUE_PARAM_BUZZER=ON;
 80006c8:	2103      	movs	r1, #3
			  logger_uart("ERROR READ FLASH (%d)!!! Set default VALUE_PARAM_BUZZER: OFF\n\r",VALUE_PARAM_BUZZER);
 80006ca:	48a7      	ldr	r0, [pc, #668]	@ (8000968 <main+0x360>)
			  VALUE_PARAM_BUZZER=ON;
 80006cc:	6069      	str	r1, [r5, #4]
	  logger_uart("ERROR READ FLASH!!! Set default PARAM_BUZZER: OFF [%d]\n\r", status);
 80006ce:	f002 fd63 	bl	8003198 <logger_uart>
 80006d2:	e00f      	b.n	80006f4 <main+0xec>
	  VALUE_PARAM_INDICATION_WITH_TURN_LIGHT=OFF;
 80006d4:	2102      	movs	r1, #2
	  status = EEPROM_Write(PARAM_INDICATION_WITH_TURN_LIGHT, OFF);
 80006d6:	489c      	ldr	r0, [pc, #624]	@ (8000948 <main+0x340>)
	  VALUE_PARAM_INDICATION_WITH_TURN_LIGHT=OFF;
 80006d8:	6029      	str	r1, [r5, #0]
	  status = EEPROM_Write(PARAM_INDICATION_WITH_TURN_LIGHT, OFF);
 80006da:	f002 fce7 	bl	80030ac <EEPROM_Write>
 80006de:	0001      	movs	r1, r0
 80006e0:	7038      	strb	r0, [r7, #0]
	  logger_uart("ERROR READ FLASH!!! Set default PARAM_INDICATION_WITH_TURN_LIGHT: OFF [%d]\n\r", status);
 80006e2:	48a2      	ldr	r0, [pc, #648]	@ (800096c <main+0x364>)
 80006e4:	e7d8      	b.n	8000698 <main+0x90>
			} else logger_uart("PARAM_BUZZER: %s [%d]\n\r", VALUE_PARAM_BUZZER==OFF ? "OFF" : "ON", VALUE_PARAM_BUZZER);
 80006e6:	499b      	ldr	r1, [pc, #620]	@ (8000954 <main+0x34c>)
 80006e8:	2a02      	cmp	r2, #2
 80006ea:	d100      	bne.n	80006ee <main+0xe6>
 80006ec:	499a      	ldr	r1, [pc, #616]	@ (8000958 <main+0x350>)
 80006ee:	48a0      	ldr	r0, [pc, #640]	@ (8000970 <main+0x368>)
 80006f0:	f002 fd52 	bl	8003198 <logger_uart>
  LED_LEFT_SA_INDICATOR_ON;
 80006f4:	2090      	movs	r0, #144	@ 0x90
 80006f6:	2201      	movs	r2, #1
 80006f8:	2180      	movs	r1, #128	@ 0x80
 80006fa:	05c0      	lsls	r0, r0, #23
 80006fc:	f001 fa6c 	bl	8001bd8 <HAL_GPIO_WritePin>
  LED_RIGHT_SA_INDICATOR_ON;
 8000700:	2201      	movs	r2, #1
 8000702:	2102      	movs	r1, #2
 8000704:	489b      	ldr	r0, [pc, #620]	@ (8000974 <main+0x36c>)
 8000706:	f001 fa67 	bl	8001bd8 <HAL_GPIO_WritePin>
  HAL_Delay(500);
 800070a:	20fa      	movs	r0, #250	@ 0xfa
 800070c:	0040      	lsls	r0, r0, #1
 800070e:	f000 fcc5 	bl	800109c <HAL_Delay>
  LED_LEFT_SA_INDICATOR_OFF;
 8000712:	2090      	movs	r0, #144	@ 0x90
 8000714:	2200      	movs	r2, #0
 8000716:	2180      	movs	r1, #128	@ 0x80
 8000718:	05c0      	lsls	r0, r0, #23
 800071a:	f001 fa5d 	bl	8001bd8 <HAL_GPIO_WritePin>
  LED_RIGHT_SA_INDICATOR_OFF;
 800071e:	2200      	movs	r2, #0
 8000720:	2102      	movs	r1, #2
 8000722:	4894      	ldr	r0, [pc, #592]	@ (8000974 <main+0x36c>)
 8000724:	f001 fa58 	bl	8001bd8 <HAL_GPIO_WritePin>
  HAL_Delay(500);
 8000728:	20fa      	movs	r0, #250	@ 0xfa
 800072a:	0040      	lsls	r0, r0, #1
 800072c:	f000 fcb6 	bl	800109c <HAL_Delay>
  LED_STATUS_SA_ACTIVE_ON;
 8000730:	2090      	movs	r0, #144	@ 0x90
 8000732:	2201      	movs	r2, #1
 8000734:	2120      	movs	r1, #32
 8000736:	05c0      	lsls	r0, r0, #23
 8000738:	f001 fa4e 	bl	8001bd8 <HAL_GPIO_WritePin>
  LED_STATUS_SA_PASSIVE_OFF;
 800073c:	2090      	movs	r0, #144	@ 0x90
 800073e:	2200      	movs	r2, #0
 8000740:	2140      	movs	r1, #64	@ 0x40
 8000742:	05c0      	lsls	r0, r0, #23
 8000744:	f001 fa48 	bl	8001bd8 <HAL_GPIO_WritePin>
  HAL_Delay(500);
 8000748:	20fa      	movs	r0, #250	@ 0xfa
 800074a:	0040      	lsls	r0, r0, #1
 800074c:	f000 fca6 	bl	800109c <HAL_Delay>
  LED_STATUS_SA_ACTIVE_OFF;
 8000750:	2090      	movs	r0, #144	@ 0x90
 8000752:	2200      	movs	r2, #0
 8000754:	2120      	movs	r1, #32
 8000756:	05c0      	lsls	r0, r0, #23
 8000758:	f001 fa3e 	bl	8001bd8 <HAL_GPIO_WritePin>
  LED_STATUS_SA_PASSIVE_ON;
 800075c:	2090      	movs	r0, #144	@ 0x90
 800075e:	2201      	movs	r2, #1
 8000760:	2140      	movs	r1, #64	@ 0x40
 8000762:	05c0      	lsls	r0, r0, #23
 8000764:	f001 fa38 	bl	8001bd8 <HAL_GPIO_WritePin>
  HAL_Delay(1000);
 8000768:	20fa      	movs	r0, #250	@ 0xfa
 800076a:	0080      	lsls	r0, r0, #2
 800076c:	f000 fc96 	bl	800109c <HAL_Delay>
  LED_STATUS_SA_ACTIVE_OFF;
 8000770:	2090      	movs	r0, #144	@ 0x90
 8000772:	2200      	movs	r2, #0
 8000774:	2120      	movs	r1, #32
 8000776:	05c0      	lsls	r0, r0, #23
 8000778:	f001 fa2e 	bl	8001bd8 <HAL_GPIO_WritePin>
  LED_STATUS_SA_PASSIVE_OFF;
 800077c:	2090      	movs	r0, #144	@ 0x90
 800077e:	2200      	movs	r2, #0
 8000780:	2140      	movs	r1, #64	@ 0x40
 8000782:	05c0      	lsls	r0, r0, #23
 8000784:	f001 fa28 	bl	8001bd8 <HAL_GPIO_WritePin>
	CAN_Std_Data_receive(CANBUS_CLUSTER, &rx_frame);
 8000788:	4e7b      	ldr	r6, [pc, #492]	@ (8000978 <main+0x370>)
 800078a:	9804      	ldr	r0, [sp, #16]
 800078c:	0031      	movs	r1, r6
 800078e:	f002 fa51 	bl	8002c34 <CAN_Std_Data_receive>
	if (rx_frame.can_id==0x67C && rx_frame.anz_bytes == 2 && rx_frame.data[0]==0xEE && flag_recieve_command == NO)
 8000792:	4b69      	ldr	r3, [pc, #420]	@ (8000938 <main+0x330>)
 8000794:	6832      	ldr	r2, [r6, #0]
 8000796:	429a      	cmp	r2, r3
 8000798:	d10f      	bne.n	80007ba <main+0x1b2>
 800079a:	88b2      	ldrh	r2, [r6, #4]
 800079c:	4b77      	ldr	r3, [pc, #476]	@ (800097c <main+0x374>)
 800079e:	429a      	cmp	r2, r3
 80007a0:	d10b      	bne.n	80007ba <main+0x1b2>
 80007a2:	4b77      	ldr	r3, [pc, #476]	@ (8000980 <main+0x378>)
 80007a4:	781a      	ldrb	r2, [r3, #0]
 80007a6:	2a00      	cmp	r2, #0
 80007a8:	d107      	bne.n	80007ba <main+0x1b2>
		flag_recieve_command = YES;
 80007aa:	3201      	adds	r2, #1
 80007ac:	701a      	strb	r2, [r3, #0]
		logger_uart("Recieved external command = %02X\n\r",rx_frame.data[1]);
 80007ae:	79b1      	ldrb	r1, [r6, #6]
 80007b0:	4874      	ldr	r0, [pc, #464]	@ (8000984 <main+0x37c>)
 80007b2:	f002 fcf1 	bl	8003198 <logger_uart>
		car_data.command_from_external = rx_frame.data[1];
 80007b6:	79b3      	ldrb	r3, [r6, #6]
 80007b8:	7223      	strb	r3, [r4, #8]
	if (rx_frame.can_id==0x320)
 80007ba:	22c8      	movs	r2, #200	@ 0xc8
 80007bc:	6833      	ldr	r3, [r6, #0]
 80007be:	0092      	lsls	r2, r2, #2
 80007c0:	4293      	cmp	r3, r2
 80007c2:	d17a      	bne.n	80008ba <main+0x2b2>
		   flag_recieve_command = NO;
 80007c4:	2200      	movs	r2, #0
		   car_data.speed = (rx_frame.data[3]<<8 | rx_frame.data[4])/192;
 80007c6:	8930      	ldrh	r0, [r6, #8]
		   flag_recieve_command = NO;
 80007c8:	4b6d      	ldr	r3, [pc, #436]	@ (8000980 <main+0x378>)
		   car_data.speed = (rx_frame.data[3]<<8 | rx_frame.data[4])/192;
 80007ca:	ba40      	rev16	r0, r0
 80007cc:	21c0      	movs	r1, #192	@ 0xc0
		   flag_recieve_command = NO;
 80007ce:	701a      	strb	r2, [r3, #0]
		   car_data.speed = (rx_frame.data[3]<<8 | rx_frame.data[4])/192;
 80007d0:	b280      	uxth	r0, r0
 80007d2:	f7ff fd3f 	bl	8000254 <__divsi3>
 80007d6:	80e0      	strh	r0, [r4, #6]
	if (car_data.command_from_external == COMMAND_MINICLUSTER_TESTS)
 80007d8:	7a23      	ldrb	r3, [r4, #8]
 80007da:	9305      	str	r3, [sp, #20]
 80007dc:	2b10      	cmp	r3, #16
 80007de:	d157      	bne.n	8000890 <main+0x288>
		  car_data.command_from_external = COMMAND_EMPTY;
 80007e0:	2300      	movs	r3, #0
		  Send_Command_to_ExtDevice(COMMAND_MINICLUSTER_TESTS, START);
 80007e2:	2109      	movs	r1, #9
 80007e4:	9805      	ldr	r0, [sp, #20]
		  car_data.command_from_external = COMMAND_EMPTY;
 80007e6:	7223      	strb	r3, [r4, #8]
		  Send_Command_to_ExtDevice(COMMAND_MINICLUSTER_TESTS, START);
 80007e8:	f002 faee 	bl	8002dc8 <Send_Command_to_ExtDevice>
		  LED_LEFT_SA_INDICATOR_ON;
 80007ec:	2090      	movs	r0, #144	@ 0x90
 80007ee:	2201      	movs	r2, #1
 80007f0:	2180      	movs	r1, #128	@ 0x80
 80007f2:	05c0      	lsls	r0, r0, #23
 80007f4:	f001 f9f0 	bl	8001bd8 <HAL_GPIO_WritePin>
		  LED_RIGHT_SA_INDICATOR_ON;
 80007f8:	2201      	movs	r2, #1
 80007fa:	2102      	movs	r1, #2
 80007fc:	485d      	ldr	r0, [pc, #372]	@ (8000974 <main+0x36c>)
 80007fe:	f001 f9eb 	bl	8001bd8 <HAL_GPIO_WritePin>
		  HAL_Delay(1000);
 8000802:	20fa      	movs	r0, #250	@ 0xfa
 8000804:	0080      	lsls	r0, r0, #2
 8000806:	f000 fc49 	bl	800109c <HAL_Delay>
		  LED_LEFT_SA_INDICATOR_OFF;
 800080a:	2090      	movs	r0, #144	@ 0x90
 800080c:	2200      	movs	r2, #0
 800080e:	2180      	movs	r1, #128	@ 0x80
 8000810:	05c0      	lsls	r0, r0, #23
 8000812:	f001 f9e1 	bl	8001bd8 <HAL_GPIO_WritePin>
		  LED_RIGHT_SA_INDICATOR_OFF;
 8000816:	2200      	movs	r2, #0
 8000818:	2102      	movs	r1, #2
 800081a:	4856      	ldr	r0, [pc, #344]	@ (8000974 <main+0x36c>)
 800081c:	f001 f9dc 	bl	8001bd8 <HAL_GPIO_WritePin>
		  HAL_Delay(1000);
 8000820:	20fa      	movs	r0, #250	@ 0xfa
 8000822:	0080      	lsls	r0, r0, #2
 8000824:	f000 fc3a 	bl	800109c <HAL_Delay>
		  LED_STATUS_SA_ACTIVE_ON;
 8000828:	2090      	movs	r0, #144	@ 0x90
 800082a:	2201      	movs	r2, #1
 800082c:	2120      	movs	r1, #32
 800082e:	05c0      	lsls	r0, r0, #23
 8000830:	f001 f9d2 	bl	8001bd8 <HAL_GPIO_WritePin>
		  LED_STATUS_SA_PASSIVE_OFF;
 8000834:	2090      	movs	r0, #144	@ 0x90
 8000836:	2200      	movs	r2, #0
 8000838:	2140      	movs	r1, #64	@ 0x40
 800083a:	05c0      	lsls	r0, r0, #23
 800083c:	f001 f9cc 	bl	8001bd8 <HAL_GPIO_WritePin>
		  HAL_Delay(1000);
 8000840:	20fa      	movs	r0, #250	@ 0xfa
 8000842:	0080      	lsls	r0, r0, #2
 8000844:	f000 fc2a 	bl	800109c <HAL_Delay>
		  LED_STATUS_SA_ACTIVE_OFF;
 8000848:	2090      	movs	r0, #144	@ 0x90
 800084a:	2200      	movs	r2, #0
 800084c:	2120      	movs	r1, #32
 800084e:	05c0      	lsls	r0, r0, #23
 8000850:	f001 f9c2 	bl	8001bd8 <HAL_GPIO_WritePin>
		  LED_STATUS_SA_PASSIVE_ON;
 8000854:	2090      	movs	r0, #144	@ 0x90
 8000856:	2201      	movs	r2, #1
 8000858:	2140      	movs	r1, #64	@ 0x40
 800085a:	05c0      	lsls	r0, r0, #23
 800085c:	f001 f9bc 	bl	8001bd8 <HAL_GPIO_WritePin>
		  HAL_Delay(1000);
 8000860:	20fa      	movs	r0, #250	@ 0xfa
 8000862:	0080      	lsls	r0, r0, #2
 8000864:	f000 fc1a 	bl	800109c <HAL_Delay>
		  LED_STATUS_SA_ACTIVE_OFF;
 8000868:	2090      	movs	r0, #144	@ 0x90
 800086a:	2200      	movs	r2, #0
 800086c:	2120      	movs	r1, #32
 800086e:	05c0      	lsls	r0, r0, #23
 8000870:	f001 f9b2 	bl	8001bd8 <HAL_GPIO_WritePin>
		  LED_STATUS_SA_PASSIVE_OFF;
 8000874:	2090      	movs	r0, #144	@ 0x90
 8000876:	2200      	movs	r2, #0
 8000878:	2140      	movs	r1, #64	@ 0x40
 800087a:	05c0      	lsls	r0, r0, #23
 800087c:	f001 f9ac 	bl	8001bd8 <HAL_GPIO_WritePin>
		  BUZZER_Go(TBUZ_50, TICK_12);
 8000880:	2117      	movs	r1, #23
 8000882:	2032      	movs	r0, #50	@ 0x32
 8000884:	f002 fac6 	bl	8002e14 <BUZZER_Go>
		  Send_Command_to_ExtDevice(COMMAND_MINICLUSTER_TESTS, END);
 8000888:	210a      	movs	r1, #10
 800088a:	9805      	ldr	r0, [sp, #20]
 800088c:	f002 fa9c 	bl	8002dc8 <Send_Command_to_ExtDevice>
	if (rx_frame.can_id==0x3BA)
 8000890:	4b28      	ldr	r3, [pc, #160]	@ (8000934 <main+0x32c>)
 8000892:	6832      	ldr	r2, [r6, #0]
 8000894:	429a      	cmp	r2, r3
 8000896:	d000      	beq.n	800089a <main+0x292>
 8000898:	e1a2      	b.n	8000be0 <main+0x5d8>
		if (rx_frame.data[2] == 0x08)
 800089a:	79f3      	ldrb	r3, [r6, #7]
 800089c:	2b08      	cmp	r3, #8
 800089e:	d000      	beq.n	80008a2 <main+0x29a>
 80008a0:	e18e      	b.n	8000bc0 <main+0x5b8>
			car_data.led_status = LED_YELLOW;
 80008a2:	4b39      	ldr	r3, [pc, #228]	@ (8000988 <main+0x380>)
					car_data.led_status = LED_OFF;
 80008a4:	8023      	strh	r3, [r4, #0]
 80008a6:	e1bc      	b.n	8000c22 <main+0x61a>
	  VALUE_PARAM_BUZZER=OFF;
 80008a8:	2102      	movs	r1, #2
	  status = EEPROM_Write(PARAM_BUZZER, OFF);
 80008aa:	482e      	ldr	r0, [pc, #184]	@ (8000964 <main+0x35c>)
	  VALUE_PARAM_BUZZER=OFF;
 80008ac:	6069      	str	r1, [r5, #4]
	  status = EEPROM_Write(PARAM_BUZZER, OFF);
 80008ae:	f002 fbfd 	bl	80030ac <EEPROM_Write>
 80008b2:	0001      	movs	r1, r0
 80008b4:	7038      	strb	r0, [r7, #0]
	  logger_uart("ERROR READ FLASH!!! Set default PARAM_BUZZER: OFF [%d]\n\r", status);
 80008b6:	4835      	ldr	r0, [pc, #212]	@ (800098c <main+0x384>)
 80008b8:	e709      	b.n	80006ce <main+0xc6>
	if (rx_frame.can_id==0x5C1)
 80008ba:	9a07      	ldr	r2, [sp, #28]
 80008bc:	4293      	cmp	r3, r2
 80008be:	d112      	bne.n	80008e6 <main+0x2de>
		if (rx_frame.data[0]==BTN_OK && flag_rattling == ON)
 80008c0:	7972      	ldrb	r2, [r6, #5]
 80008c2:	4b33      	ldr	r3, [pc, #204]	@ (8000990 <main+0x388>)
 80008c4:	2a28      	cmp	r2, #40	@ 0x28
 80008c6:	d11c      	bne.n	8000902 <main+0x2fa>
 80008c8:	781a      	ldrb	r2, [r3, #0]
 80008ca:	2a03      	cmp	r2, #3
 80008cc:	d184      	bne.n	80007d8 <main+0x1d0>
			flag_rattling = OFF;
 80008ce:	3a01      	subs	r2, #1
 80008d0:	701a      	strb	r2, [r3, #0]
			btn_OK++;
 80008d2:	4b30      	ldr	r3, [pc, #192]	@ (8000994 <main+0x38c>)
 80008d4:	6819      	ldr	r1, [r3, #0]
 80008d6:	3101      	adds	r1, #1
			if (btn_OK>CNTS_PRESS_BTN_OK) {btn_OK = 0;};
 80008d8:	2905      	cmp	r1, #5
 80008da:	d900      	bls.n	80008de <main+0x2d6>
 80008dc:	2100      	movs	r1, #0
			logger_uart("btn_OK = %d\n\r",btn_OK);
 80008de:	482e      	ldr	r0, [pc, #184]	@ (8000998 <main+0x390>)
			btn_OK++;
 80008e0:	6019      	str	r1, [r3, #0]
			logger_uart("btn_OK = %d\n\r",btn_OK);
 80008e2:	f002 fc59 	bl	8003198 <logger_uart>
	if (rx_frame.can_id==0x531)
 80008e6:	4b12      	ldr	r3, [pc, #72]	@ (8000930 <main+0x328>)
 80008e8:	6832      	ldr	r2, [r6, #0]
 80008ea:	429a      	cmp	r2, r3
 80008ec:	d000      	beq.n	80008f0 <main+0x2e8>
 80008ee:	e773      	b.n	80007d8 <main+0x1d0>
       if ((mask & value) == mask) return 1; else return 0;
 80008f0:	221b      	movs	r2, #27
		if (cb_mask(BYTE1_STATUS_LIGHTS,ALARM_TURN_SIGNAL_ON))
 80008f2:	79b3      	ldrb	r3, [r6, #6]
       if ((mask & value) == mask) return 1; else return 0;
 80008f4:	401a      	ands	r2, r3
 80008f6:	2a1b      	cmp	r2, #27
 80008f8:	d150      	bne.n	800099c <main+0x394>
			car_data.left_turn_signal = ON;
 80008fa:	2303      	movs	r3, #3
 80008fc:	70e3      	strb	r3, [r4, #3]
			if (cb_mask(BYTE1_STATUS_LIGHTS,RIGHT_TURN_SIGNAL_ON)) car_data.right_turn_signal = ON; else  if (!cb_mask(BYTE1_STATUS_LIGHTS,LEFT_TURN_SIGNAL_ON)) car_data.right_turn_signal = OFF;
 80008fe:	7123      	strb	r3, [r4, #4]
 8000900:	e05b      	b.n	80009ba <main+0x3b2>
		else if (rx_frame.data[0]==0x00 && flag_rattling == OFF) flag_rattling = ON;
 8000902:	2a00      	cmp	r2, #0
 8000904:	d106      	bne.n	8000914 <main+0x30c>
 8000906:	781a      	ldrb	r2, [r3, #0]
 8000908:	2a02      	cmp	r2, #2
 800090a:	d000      	beq.n	800090e <main+0x306>
 800090c:	e764      	b.n	80007d8 <main+0x1d0>
 800090e:	3201      	adds	r2, #1
				 flag_saveparams = NO;
 8000910:	701a      	strb	r2, [r3, #0]
 8000912:	e761      	b.n	80007d8 <main+0x1d0>
			flag_rattling = OFF;
 8000914:	2202      	movs	r2, #2
 8000916:	701a      	strb	r2, [r3, #0]
			btn_OK = 0;
 8000918:	2200      	movs	r2, #0
 800091a:	4b1e      	ldr	r3, [pc, #120]	@ (8000994 <main+0x38c>)
 800091c:	601a      	str	r2, [r3, #0]
 800091e:	e75b      	b.n	80007d8 <main+0x1d0>
 8000920:	08003c33 	.word	0x08003c33
 8000924:	20000100 	.word	0x20000100
 8000928:	000005c1 	.word	0x000005c1
 800092c:	2000007c 	.word	0x2000007c
 8000930:	00000531 	.word	0x00000531
 8000934:	000003ba 	.word	0x000003ba
 8000938:	0000067c 	.word	0x0000067c
 800093c:	20000110 	.word	0x20000110
 8000940:	08003c40 	.word	0x08003c40
 8000944:	200000e8 	.word	0x200000e8
 8000948:	12121212 	.word	0x12121212
 800094c:	20000000 	.word	0x20000000
 8000950:	08003c4a 	.word	0x08003c4a
 8000954:	08003c30 	.word	0x08003c30
 8000958:	08003c2c 	.word	0x08003c2c
 800095c:	08003c97 	.word	0x08003c97
 8000960:	200000ec 	.word	0x200000ec
 8000964:	34343434 	.word	0x34343434
 8000968:	08003d10 	.word	0x08003d10
 800096c:	08003cc3 	.word	0x08003cc3
 8000970:	08003d4f 	.word	0x08003d4f
 8000974:	48000400 	.word	0x48000400
 8000978:	200000f0 	.word	0x200000f0
 800097c:	0000ee02 	.word	0x0000ee02
 8000980:	200000e0 	.word	0x200000e0
 8000984:	08003da0 	.word	0x08003da0
 8000988:	00000206 	.word	0x00000206
 800098c:	08003d67 	.word	0x08003d67
 8000990:	20000002 	.word	0x20000002
 8000994:	200000e4 	.word	0x200000e4
 8000998:	08003dc3 	.word	0x08003dc3
       if ((mask & value) == mask) return 1; else return 0;
 800099c:	2111      	movs	r1, #17
 800099e:	4019      	ands	r1, r3
			if (cb_mask(BYTE1_STATUS_LIGHTS,LEFT_TURN_SIGNAL_ON)) car_data.left_turn_signal = ON; else  if (!cb_mask(BYTE1_STATUS_LIGHTS,LEFT_TURN_SIGNAL_ON)) car_data.left_turn_signal = OFF;
 80009a0:	000a      	movs	r2, r1
 80009a2:	3a11      	subs	r2, #17
 80009a4:	4250      	negs	r0, r2
 80009a6:	4142      	adcs	r2, r0
 80009a8:	3202      	adds	r2, #2
 80009aa:	70e2      	strb	r2, [r4, #3]
       if ((mask & value) == mask) return 1; else return 0;
 80009ac:	2212      	movs	r2, #18
 80009ae:	4013      	ands	r3, r2
 80009b0:	4293      	cmp	r3, r2
 80009b2:	d04f      	beq.n	8000a54 <main+0x44c>
			if (cb_mask(BYTE1_STATUS_LIGHTS,RIGHT_TURN_SIGNAL_ON)) car_data.right_turn_signal = ON; else  if (!cb_mask(BYTE1_STATUS_LIGHTS,LEFT_TURN_SIGNAL_ON)) car_data.right_turn_signal = OFF;
 80009b4:	2302      	movs	r3, #2
       if ((mask & value) == mask) return 1; else return 0;
 80009b6:	2911      	cmp	r1, #17
 80009b8:	d1a1      	bne.n	80008fe <main+0x2f6>
		if (((cb(BYTE0_STATUS_LIGHTS,HIGH_BEAM_STATUS)) && btn_OK == CNTS_PRESS_BTN_OK) || car_data.command_from_external == COMMAND_MINICLUSTER_TURN_LIGHTS)
 80009ba:	7973      	ldrb	r3, [r6, #5]
 80009bc:	075b      	lsls	r3, r3, #29
 80009be:	d503      	bpl.n	80009c8 <main+0x3c0>
 80009c0:	4bbd      	ldr	r3, [pc, #756]	@ (8000cb8 <main+0x6b0>)
 80009c2:	681b      	ldr	r3, [r3, #0]
 80009c4:	2b05      	cmp	r3, #5
 80009c6:	d002      	beq.n	80009ce <main+0x3c6>
 80009c8:	7a23      	ldrb	r3, [r4, #8]
 80009ca:	2b08      	cmp	r3, #8
 80009cc:	d11b      	bne.n	8000a06 <main+0x3fe>
			 flag_saveparams = YES;
 80009ce:	2101      	movs	r1, #1
			 car_data.command_from_external = COMMAND_EMPTY;
 80009d0:	2200      	movs	r2, #0
			 flag_saveparams = YES;
 80009d2:	4bba      	ldr	r3, [pc, #744]	@ (8000cbc <main+0x6b4>)
			 status = EEPROM_Read(PARAM_INDICATION_WITH_TURN_LIGHT, &VALUE_PARAM_INDICATION_WITH_TURN_LIGHT);
 80009d4:	48ba      	ldr	r0, [pc, #744]	@ (8000cc0 <main+0x6b8>)
			 flag_saveparams = YES;
 80009d6:	7019      	strb	r1, [r3, #0]
			 btn_OK = 0;
 80009d8:	4bb7      	ldr	r3, [pc, #732]	@ (8000cb8 <main+0x6b0>)
			 status = EEPROM_Read(PARAM_INDICATION_WITH_TURN_LIGHT, &VALUE_PARAM_INDICATION_WITH_TURN_LIGHT);
 80009da:	0029      	movs	r1, r5
			 car_data.command_from_external = COMMAND_EMPTY;
 80009dc:	7222      	strb	r2, [r4, #8]
			 btn_OK = 0;
 80009de:	601a      	str	r2, [r3, #0]
			 status = EEPROM_Read(PARAM_INDICATION_WITH_TURN_LIGHT, &VALUE_PARAM_INDICATION_WITH_TURN_LIGHT);
 80009e0:	f002 fab0 	bl	8002f44 <EEPROM_Read>
 80009e4:	7038      	strb	r0, [r7, #0]
			 if (status == EEPROM_OK && VALUE_PARAM_INDICATION_WITH_TURN_LIGHT==ON)
 80009e6:	2800      	cmp	r0, #0
 80009e8:	d10a      	bne.n	8000a00 <main+0x3f8>
 80009ea:	682b      	ldr	r3, [r5, #0]
 80009ec:	2b03      	cmp	r3, #3
 80009ee:	d133      	bne.n	8000a58 <main+0x450>
				    status = EEPROM_Write(PARAM_INDICATION_WITH_TURN_LIGHT, OFF);
 80009f0:	2102      	movs	r1, #2
 80009f2:	48b3      	ldr	r0, [pc, #716]	@ (8000cc0 <main+0x6b8>)
 80009f4:	f002 fb5a 	bl	80030ac <EEPROM_Write>
				    if (status == EEPROM_OK) VALUE_PARAM_INDICATION_WITH_TURN_LIGHT = OFF;
 80009f8:	2302      	movs	r3, #2
				    status = EEPROM_Write(PARAM_INDICATION_WITH_TURN_LIGHT, OFF);
 80009fa:	7038      	strb	r0, [r7, #0]
				    if (status == EEPROM_OK) VALUE_PARAM_INDICATION_WITH_TURN_LIGHT = OFF;
 80009fc:	2800      	cmp	r0, #0
 80009fe:	d035      	beq.n	8000a6c <main+0x464>
			 flag_saveparams = NO;
 8000a00:	2200      	movs	r2, #0
 8000a02:	4bae      	ldr	r3, [pc, #696]	@ (8000cbc <main+0x6b4>)
 8000a04:	701a      	strb	r2, [r3, #0]
		if (((cb(BYTE0_STATUS_LIGHTS,FOG_LIGHTS_STATUS)) && btn_OK == CNTS_PRESS_BTN_OK) || car_data.command_from_external == COMMAND_MINICLUSTER_BUZZER)
 8000a06:	7973      	ldrb	r3, [r6, #5]
 8000a08:	071b      	lsls	r3, r3, #28
 8000a0a:	d503      	bpl.n	8000a14 <main+0x40c>
 8000a0c:	4baa      	ldr	r3, [pc, #680]	@ (8000cb8 <main+0x6b0>)
 8000a0e:	681b      	ldr	r3, [r3, #0]
 8000a10:	2b05      	cmp	r3, #5
 8000a12:	d003      	beq.n	8000a1c <main+0x414>
 8000a14:	7a23      	ldrb	r3, [r4, #8]
 8000a16:	2b09      	cmp	r3, #9
 8000a18:	d000      	beq.n	8000a1c <main+0x414>
 8000a1a:	e6dd      	b.n	80007d8 <main+0x1d0>
				 flag_saveparams = YES;
 8000a1c:	2201      	movs	r2, #1
 8000a1e:	4ba7      	ldr	r3, [pc, #668]	@ (8000cbc <main+0x6b4>)
				 status = EEPROM_Read(PARAM_BUZZER, &VALUE_PARAM_BUZZER);
 8000a20:	9906      	ldr	r1, [sp, #24]
				 flag_saveparams = YES;
 8000a22:	701a      	strb	r2, [r3, #0]
				 car_data.command_from_external = COMMAND_EMPTY;
 8000a24:	2300      	movs	r3, #0
				 btn_OK = 0;
 8000a26:	4aa4      	ldr	r2, [pc, #656]	@ (8000cb8 <main+0x6b0>)
				 status = EEPROM_Read(PARAM_BUZZER, &VALUE_PARAM_BUZZER);
 8000a28:	48a6      	ldr	r0, [pc, #664]	@ (8000cc4 <main+0x6bc>)
				 car_data.command_from_external = COMMAND_EMPTY;
 8000a2a:	7223      	strb	r3, [r4, #8]
				 btn_OK = 0;
 8000a2c:	6013      	str	r3, [r2, #0]
				 status = EEPROM_Read(PARAM_BUZZER, &VALUE_PARAM_BUZZER);
 8000a2e:	f002 fa89 	bl	8002f44 <EEPROM_Read>
 8000a32:	7038      	strb	r0, [r7, #0]
				 if (status == EEPROM_OK && VALUE_PARAM_BUZZER==ON)
 8000a34:	2800      	cmp	r0, #0
 8000a36:	d10a      	bne.n	8000a4e <main+0x446>
 8000a38:	686b      	ldr	r3, [r5, #4]
 8000a3a:	2b03      	cmp	r3, #3
 8000a3c:	d166      	bne.n	8000b0c <main+0x504>
					    status = EEPROM_Write(PARAM_BUZZER, OFF);
 8000a3e:	2102      	movs	r1, #2
 8000a40:	48a0      	ldr	r0, [pc, #640]	@ (8000cc4 <main+0x6bc>)
 8000a42:	f002 fb33 	bl	80030ac <EEPROM_Write>
					    if (status == EEPROM_OK) VALUE_PARAM_BUZZER = OFF;
 8000a46:	2302      	movs	r3, #2
					    status = EEPROM_Write(PARAM_BUZZER, OFF);
 8000a48:	7038      	strb	r0, [r7, #0]
					    if (status == EEPROM_OK) VALUE_PARAM_BUZZER = OFF;
 8000a4a:	2800      	cmp	r0, #0
 8000a4c:	d068      	beq.n	8000b20 <main+0x518>
				 flag_saveparams = NO;
 8000a4e:	2200      	movs	r2, #0
 8000a50:	4b9a      	ldr	r3, [pc, #616]	@ (8000cbc <main+0x6b4>)
 8000a52:	e75d      	b.n	8000910 <main+0x308>
			if (cb_mask(BYTE1_STATUS_LIGHTS,RIGHT_TURN_SIGNAL_ON)) car_data.right_turn_signal = ON; else  if (!cb_mask(BYTE1_STATUS_LIGHTS,LEFT_TURN_SIGNAL_ON)) car_data.right_turn_signal = OFF;
 8000a54:	2303      	movs	r3, #3
 8000a56:	e752      	b.n	80008fe <main+0x2f6>
			 else if (status == EEPROM_OK && VALUE_PARAM_INDICATION_WITH_TURN_LIGHT==OFF)
 8000a58:	2b02      	cmp	r3, #2
 8000a5a:	d108      	bne.n	8000a6e <main+0x466>
					status = EEPROM_Write(PARAM_INDICATION_WITH_TURN_LIGHT, ON);
 8000a5c:	2103      	movs	r1, #3
 8000a5e:	4898      	ldr	r0, [pc, #608]	@ (8000cc0 <main+0x6b8>)
 8000a60:	f002 fb24 	bl	80030ac <EEPROM_Write>
 8000a64:	7038      	strb	r0, [r7, #0]
					if (status == EEPROM_OK) VALUE_PARAM_INDICATION_WITH_TURN_LIGHT = ON;
 8000a66:	2800      	cmp	r0, #0
 8000a68:	d1ca      	bne.n	8000a00 <main+0x3f8>
 8000a6a:	2303      	movs	r3, #3
 8000a6c:	602b      	str	r3, [r5, #0]
				   LED_STATUS_SA_PASSIVE_OFF;
 8000a6e:	2090      	movs	r0, #144	@ 0x90
 8000a70:	2200      	movs	r2, #0
 8000a72:	2140      	movs	r1, #64	@ 0x40
 8000a74:	05c0      	lsls	r0, r0, #23
 8000a76:	f001 f8af 	bl	8001bd8 <HAL_GPIO_WritePin>
				   HAL_Delay(100);
 8000a7a:	2064      	movs	r0, #100	@ 0x64
 8000a7c:	f000 fb0e 	bl	800109c <HAL_Delay>
				   LED_STATUS_SA_PASSIVE_ON;
 8000a80:	2090      	movs	r0, #144	@ 0x90
 8000a82:	2201      	movs	r2, #1
 8000a84:	2140      	movs	r1, #64	@ 0x40
 8000a86:	05c0      	lsls	r0, r0, #23
 8000a88:	f001 f8a6 	bl	8001bd8 <HAL_GPIO_WritePin>
				   HAL_Delay(100);
 8000a8c:	2064      	movs	r0, #100	@ 0x64
 8000a8e:	f000 fb05 	bl	800109c <HAL_Delay>
				   LED_STATUS_SA_PASSIVE_OFF;
 8000a92:	2090      	movs	r0, #144	@ 0x90
 8000a94:	2200      	movs	r2, #0
 8000a96:	2140      	movs	r1, #64	@ 0x40
 8000a98:	05c0      	lsls	r0, r0, #23
 8000a9a:	f001 f89d 	bl	8001bd8 <HAL_GPIO_WritePin>
				   HAL_Delay(100);
 8000a9e:	2064      	movs	r0, #100	@ 0x64
 8000aa0:	f000 fafc 	bl	800109c <HAL_Delay>
				   LED_STATUS_SA_PASSIVE_ON;
 8000aa4:	2090      	movs	r0, #144	@ 0x90
 8000aa6:	2201      	movs	r2, #1
 8000aa8:	2140      	movs	r1, #64	@ 0x40
 8000aaa:	05c0      	lsls	r0, r0, #23
 8000aac:	f001 f894 	bl	8001bd8 <HAL_GPIO_WritePin>
				   HAL_Delay(100);
 8000ab0:	2064      	movs	r0, #100	@ 0x64
 8000ab2:	f000 faf3 	bl	800109c <HAL_Delay>
				   LED_STATUS_SA_PASSIVE_OFF;
 8000ab6:	2090      	movs	r0, #144	@ 0x90
 8000ab8:	2200      	movs	r2, #0
 8000aba:	2140      	movs	r1, #64	@ 0x40
 8000abc:	05c0      	lsls	r0, r0, #23
 8000abe:	f001 f88b 	bl	8001bd8 <HAL_GPIO_WritePin>
				   HAL_Delay(100);
 8000ac2:	2064      	movs	r0, #100	@ 0x64
 8000ac4:	f000 faea 	bl	800109c <HAL_Delay>
				   LED_STATUS_SA_PASSIVE_ON;
 8000ac8:	2090      	movs	r0, #144	@ 0x90
 8000aca:	2201      	movs	r2, #1
 8000acc:	2140      	movs	r1, #64	@ 0x40
 8000ace:	05c0      	lsls	r0, r0, #23
 8000ad0:	f001 f882 	bl	8001bd8 <HAL_GPIO_WritePin>
				   HAL_Delay(100);
 8000ad4:	2064      	movs	r0, #100	@ 0x64
 8000ad6:	f000 fae1 	bl	800109c <HAL_Delay>
				   LED_STATUS_SA_PASSIVE_OFF;
 8000ada:	2090      	movs	r0, #144	@ 0x90
 8000adc:	2200      	movs	r2, #0
 8000ade:	2140      	movs	r1, #64	@ 0x40
 8000ae0:	05c0      	lsls	r0, r0, #23
 8000ae2:	f001 f879 	bl	8001bd8 <HAL_GPIO_WritePin>
				   logger_uart("[%d] SWITCH PARAM_INDICATION_WITH_TURN_LIGHT: %s\n\r", status, VALUE_PARAM_INDICATION_WITH_TURN_LIGHT==OFF ? "OFF" : "ON");
 8000ae6:	682b      	ldr	r3, [r5, #0]
 8000ae8:	7839      	ldrb	r1, [r7, #0]
 8000aea:	4a77      	ldr	r2, [pc, #476]	@ (8000cc8 <main+0x6c0>)
 8000aec:	2b02      	cmp	r3, #2
 8000aee:	d100      	bne.n	8000af2 <main+0x4ea>
 8000af0:	4a76      	ldr	r2, [pc, #472]	@ (8000ccc <main+0x6c4>)
 8000af2:	4877      	ldr	r0, [pc, #476]	@ (8000cd0 <main+0x6c8>)
 8000af4:	f002 fb50 	bl	8003198 <logger_uart>
				   Send_Command_to_ExtDevice(COMMAND_MINICLUSTER_TURN_LIGHTS, VALUE_PARAM_INDICATION_WITH_TURN_LIGHT);
 8000af8:	6829      	ldr	r1, [r5, #0]
 8000afa:	2008      	movs	r0, #8
 8000afc:	b2c9      	uxtb	r1, r1
 8000afe:	f002 f963 	bl	8002dc8 <Send_Command_to_ExtDevice>
				   BUZZER_Go(TBUZ_200, TICK_4);
 8000b02:	2107      	movs	r1, #7
 8000b04:	20c8      	movs	r0, #200	@ 0xc8
 8000b06:	f002 f985 	bl	8002e14 <BUZZER_Go>
 8000b0a:	e779      	b.n	8000a00 <main+0x3f8>
				 else if (status == EEPROM_OK && VALUE_PARAM_BUZZER==OFF)
 8000b0c:	2b02      	cmp	r3, #2
 8000b0e:	d108      	bne.n	8000b22 <main+0x51a>
						status = EEPROM_Write(PARAM_BUZZER, ON);
 8000b10:	2103      	movs	r1, #3
 8000b12:	486c      	ldr	r0, [pc, #432]	@ (8000cc4 <main+0x6bc>)
 8000b14:	f002 faca 	bl	80030ac <EEPROM_Write>
 8000b18:	7038      	strb	r0, [r7, #0]
						if (status == EEPROM_OK) VALUE_PARAM_BUZZER = ON;
 8000b1a:	2800      	cmp	r0, #0
 8000b1c:	d197      	bne.n	8000a4e <main+0x446>
 8000b1e:	2303      	movs	r3, #3
 8000b20:	606b      	str	r3, [r5, #4]
					   LED_STATUS_SA_PASSIVE_OFF;
 8000b22:	2090      	movs	r0, #144	@ 0x90
 8000b24:	2200      	movs	r2, #0
 8000b26:	2140      	movs	r1, #64	@ 0x40
 8000b28:	05c0      	lsls	r0, r0, #23
 8000b2a:	f001 f855 	bl	8001bd8 <HAL_GPIO_WritePin>
					   HAL_Delay(100);
 8000b2e:	2064      	movs	r0, #100	@ 0x64
 8000b30:	f000 fab4 	bl	800109c <HAL_Delay>
					   LED_STATUS_SA_PASSIVE_ON;
 8000b34:	2090      	movs	r0, #144	@ 0x90
 8000b36:	2201      	movs	r2, #1
 8000b38:	2140      	movs	r1, #64	@ 0x40
 8000b3a:	05c0      	lsls	r0, r0, #23
 8000b3c:	f001 f84c 	bl	8001bd8 <HAL_GPIO_WritePin>
					   HAL_Delay(100);
 8000b40:	2064      	movs	r0, #100	@ 0x64
 8000b42:	f000 faab 	bl	800109c <HAL_Delay>
					   LED_STATUS_SA_PASSIVE_OFF;
 8000b46:	2090      	movs	r0, #144	@ 0x90
 8000b48:	2200      	movs	r2, #0
 8000b4a:	2140      	movs	r1, #64	@ 0x40
 8000b4c:	05c0      	lsls	r0, r0, #23
 8000b4e:	f001 f843 	bl	8001bd8 <HAL_GPIO_WritePin>
					   HAL_Delay(100);
 8000b52:	2064      	movs	r0, #100	@ 0x64
 8000b54:	f000 faa2 	bl	800109c <HAL_Delay>
					   LED_STATUS_SA_PASSIVE_ON;
 8000b58:	2090      	movs	r0, #144	@ 0x90
 8000b5a:	2201      	movs	r2, #1
 8000b5c:	2140      	movs	r1, #64	@ 0x40
 8000b5e:	05c0      	lsls	r0, r0, #23
 8000b60:	f001 f83a 	bl	8001bd8 <HAL_GPIO_WritePin>
					   HAL_Delay(100);
 8000b64:	2064      	movs	r0, #100	@ 0x64
 8000b66:	f000 fa99 	bl	800109c <HAL_Delay>
					   LED_STATUS_SA_PASSIVE_OFF;
 8000b6a:	2090      	movs	r0, #144	@ 0x90
 8000b6c:	2200      	movs	r2, #0
 8000b6e:	2140      	movs	r1, #64	@ 0x40
 8000b70:	05c0      	lsls	r0, r0, #23
 8000b72:	f001 f831 	bl	8001bd8 <HAL_GPIO_WritePin>
					   HAL_Delay(100);
 8000b76:	2064      	movs	r0, #100	@ 0x64
 8000b78:	f000 fa90 	bl	800109c <HAL_Delay>
					   LED_STATUS_SA_PASSIVE_ON;
 8000b7c:	2090      	movs	r0, #144	@ 0x90
 8000b7e:	2201      	movs	r2, #1
 8000b80:	2140      	movs	r1, #64	@ 0x40
 8000b82:	05c0      	lsls	r0, r0, #23
 8000b84:	f001 f828 	bl	8001bd8 <HAL_GPIO_WritePin>
					   HAL_Delay(100);
 8000b88:	2064      	movs	r0, #100	@ 0x64
 8000b8a:	f000 fa87 	bl	800109c <HAL_Delay>
					   LED_STATUS_SA_PASSIVE_OFF;
 8000b8e:	2090      	movs	r0, #144	@ 0x90
 8000b90:	2200      	movs	r2, #0
 8000b92:	2140      	movs	r1, #64	@ 0x40
 8000b94:	05c0      	lsls	r0, r0, #23
 8000b96:	f001 f81f 	bl	8001bd8 <HAL_GPIO_WritePin>
					   logger_uart("[%d] SWITCH PARAM_BUZZER: %s\n\r", status, VALUE_PARAM_BUZZER==OFF ? "OFF" : "ON");
 8000b9a:	686b      	ldr	r3, [r5, #4]
 8000b9c:	7839      	ldrb	r1, [r7, #0]
 8000b9e:	4a4a      	ldr	r2, [pc, #296]	@ (8000cc8 <main+0x6c0>)
 8000ba0:	2b02      	cmp	r3, #2
 8000ba2:	d100      	bne.n	8000ba6 <main+0x59e>
 8000ba4:	4a49      	ldr	r2, [pc, #292]	@ (8000ccc <main+0x6c4>)
 8000ba6:	484b      	ldr	r0, [pc, #300]	@ (8000cd4 <main+0x6cc>)
 8000ba8:	f002 faf6 	bl	8003198 <logger_uart>
					   Send_Command_to_ExtDevice(COMMAND_MINICLUSTER_BUZZER, VALUE_PARAM_BUZZER);
 8000bac:	6869      	ldr	r1, [r5, #4]
 8000bae:	2009      	movs	r0, #9
 8000bb0:	b2c9      	uxtb	r1, r1
 8000bb2:	f002 f909 	bl	8002dc8 <Send_Command_to_ExtDevice>
					   BUZZER_Go(TBUZ_200, TICK_4);
 8000bb6:	2107      	movs	r1, #7
 8000bb8:	20c8      	movs	r0, #200	@ 0xc8
 8000bba:	f002 f92b 	bl	8002e14 <BUZZER_Go>
 8000bbe:	e746      	b.n	8000a4e <main+0x446>
		else if (rx_frame.data[2] == 0x10)
 8000bc0:	2b10      	cmp	r3, #16
 8000bc2:	d130      	bne.n	8000c26 <main+0x61e>
			        if (VALUE_PARAM_INDICATION_WITH_TURN_LIGHT==ON)
 8000bc4:	682a      	ldr	r2, [r5, #0]
			        car_data.led_status = LED_GREEN;
 8000bc6:	3b0b      	subs	r3, #11
 8000bc8:	7023      	strb	r3, [r4, #0]
			        if (VALUE_PARAM_INDICATION_WITH_TURN_LIGHT==ON)
 8000bca:	2a03      	cmp	r2, #3
 8000bcc:	d108      	bne.n	8000be0 <main+0x5d8>
				        if (rx_frame.data[3] == 0x04) car_data.left_indicator = ON;  else if (rx_frame.data[3] == 0x00) car_data.left_indicator = OFF;
 8000bce:	7a33      	ldrb	r3, [r6, #8]
 8000bd0:	2b04      	cmp	r3, #4
 8000bd2:	d11f      	bne.n	8000c14 <main+0x60c>
 8000bd4:	7062      	strb	r2, [r4, #1]
				        if (rx_frame.data[5] == 0x04) car_data.right_indicator = ON; else if (rx_frame.data[5] == 0x00) car_data.right_indicator = OFF;
 8000bd6:	7ab3      	ldrb	r3, [r6, #10]
 8000bd8:	2b04      	cmp	r3, #4
 8000bda:	d120      	bne.n	8000c1e <main+0x616>
 8000bdc:	3b01      	subs	r3, #1
					car_data.right_indicator = OFF;
 8000bde:	70a3      	strb	r3, [r4, #2]
	if (car_data.led_status == LED_GREEN && flag_saveparams == NO)
 8000be0:	7823      	ldrb	r3, [r4, #0]
 8000be2:	2b05      	cmp	r3, #5
 8000be4:	d122      	bne.n	8000c2c <main+0x624>
 8000be6:	4b35      	ldr	r3, [pc, #212]	@ (8000cbc <main+0x6b4>)
		   LED_STATUS_SA_ACTIVE_ON;
 8000be8:	2201      	movs	r2, #1
	if (car_data.led_status == LED_GREEN && flag_saveparams == NO)
 8000bea:	781e      	ldrb	r6, [r3, #0]
 8000bec:	2e00      	cmp	r6, #0
 8000bee:	d036      	beq.n	8000c5e <main+0x656>
	if (car_data.left_indicator == ON && car_data.left_turn_signal==OFF)
 8000bf0:	7863      	ldrb	r3, [r4, #1]
 8000bf2:	2b03      	cmp	r3, #3
 8000bf4:	d14d      	bne.n	8000c92 <main+0x68a>
 8000bf6:	78e3      	ldrb	r3, [r4, #3]
 8000bf8:	2b02      	cmp	r3, #2
 8000bfa:	d139      	bne.n	8000c70 <main+0x668>
		  LED_LEFT_SA_INDICATOR_ON;
 8000bfc:	2090      	movs	r0, #144	@ 0x90
 8000bfe:	2201      	movs	r2, #1
 8000c00:	2180      	movs	r1, #128	@ 0x80
 8000c02:	05c0      	lsls	r0, r0, #23
 8000c04:	f000 ffe8 	bl	8001bd8 <HAL_GPIO_WritePin>
		  if (VALUE_PARAM_BUZZER==ON) flag_buzzer=ON; else  if (VALUE_PARAM_BUZZER==OFF) flag_buzzer=OFF;
 8000c08:	686b      	ldr	r3, [r5, #4]
 8000c0a:	2b03      	cmp	r3, #3
 8000c0c:	d12e      	bne.n	8000c6c <main+0x664>
 8000c0e:	4a32      	ldr	r2, [pc, #200]	@ (8000cd8 <main+0x6d0>)
 8000c10:	7013      	strb	r3, [r2, #0]
 8000c12:	e02d      	b.n	8000c70 <main+0x668>
				        if (rx_frame.data[3] == 0x04) car_data.left_indicator = ON;  else if (rx_frame.data[3] == 0x00) car_data.left_indicator = OFF;
 8000c14:	2b00      	cmp	r3, #0
 8000c16:	d1de      	bne.n	8000bd6 <main+0x5ce>
 8000c18:	3302      	adds	r3, #2
 8000c1a:	7063      	strb	r3, [r4, #1]
 8000c1c:	e7db      	b.n	8000bd6 <main+0x5ce>
				        if (rx_frame.data[5] == 0x04) car_data.right_indicator = ON; else if (rx_frame.data[5] == 0x00) car_data.right_indicator = OFF;
 8000c1e:	2b00      	cmp	r3, #0
 8000c20:	d1de      	bne.n	8000be0 <main+0x5d8>
					car_data.right_indicator = OFF;
 8000c22:	2302      	movs	r3, #2
 8000c24:	e7db      	b.n	8000bde <main+0x5d6>
					car_data.led_status = LED_OFF;
 8000c26:	2381      	movs	r3, #129	@ 0x81
 8000c28:	009b      	lsls	r3, r3, #2
 8000c2a:	e63b      	b.n	80008a4 <main+0x29c>
	else if (car_data.led_status == LED_YELLOW && flag_saveparams == NO)
 8000c2c:	2b06      	cmp	r3, #6
 8000c2e:	d10f      	bne.n	8000c50 <main+0x648>
 8000c30:	4b22      	ldr	r3, [pc, #136]	@ (8000cbc <main+0x6b4>)
 8000c32:	781a      	ldrb	r2, [r3, #0]
 8000c34:	2a00      	cmp	r2, #0
 8000c36:	d1db      	bne.n	8000bf0 <main+0x5e8>
		   LED_STATUS_SA_ACTIVE_OFF;
 8000c38:	2090      	movs	r0, #144	@ 0x90
 8000c3a:	2120      	movs	r1, #32
 8000c3c:	05c0      	lsls	r0, r0, #23
 8000c3e:	f000 ffcb 	bl	8001bd8 <HAL_GPIO_WritePin>
		   LED_STATUS_SA_PASSIVE_ON;
 8000c42:	2201      	movs	r2, #1
		   LED_STATUS_SA_PASSIVE_OFF;
 8000c44:	2090      	movs	r0, #144	@ 0x90
 8000c46:	2140      	movs	r1, #64	@ 0x40
 8000c48:	05c0      	lsls	r0, r0, #23
 8000c4a:	f000 ffc5 	bl	8001bd8 <HAL_GPIO_WritePin>
 8000c4e:	e7cf      	b.n	8000bf0 <main+0x5e8>
	else if (car_data.led_status == LED_OFF && flag_saveparams == NO)
 8000c50:	2b04      	cmp	r3, #4
 8000c52:	d1cd      	bne.n	8000bf0 <main+0x5e8>
 8000c54:	4b19      	ldr	r3, [pc, #100]	@ (8000cbc <main+0x6b4>)
 8000c56:	781e      	ldrb	r6, [r3, #0]
 8000c58:	2e00      	cmp	r6, #0
 8000c5a:	d1c9      	bne.n	8000bf0 <main+0x5e8>
		   LED_STATUS_SA_ACTIVE_OFF;
 8000c5c:	0032      	movs	r2, r6
 8000c5e:	2090      	movs	r0, #144	@ 0x90
 8000c60:	2120      	movs	r1, #32
 8000c62:	05c0      	lsls	r0, r0, #23
 8000c64:	f000 ffb8 	bl	8001bd8 <HAL_GPIO_WritePin>
		   LED_STATUS_SA_PASSIVE_OFF;
 8000c68:	0032      	movs	r2, r6
 8000c6a:	e7eb      	b.n	8000c44 <main+0x63c>
		  if (VALUE_PARAM_BUZZER==ON) flag_buzzer=ON; else  if (VALUE_PARAM_BUZZER==OFF) flag_buzzer=OFF;
 8000c6c:	2b02      	cmp	r3, #2
 8000c6e:	d0ce      	beq.n	8000c0e <main+0x606>
	if (car_data.right_indicator == ON && car_data.right_turn_signal==OFF)
 8000c70:	78a1      	ldrb	r1, [r4, #2]
 8000c72:	2903      	cmp	r1, #3
 8000c74:	d11a      	bne.n	8000cac <main+0x6a4>
 8000c76:	7921      	ldrb	r1, [r4, #4]
 8000c78:	2902      	cmp	r1, #2
 8000c7a:	d000      	beq.n	8000c7e <main+0x676>
 8000c7c:	e584      	b.n	8000788 <main+0x180>
		   LED_RIGHT_SA_INDICATOR_ON;
 8000c7e:	2201      	movs	r2, #1
 8000c80:	4816      	ldr	r0, [pc, #88]	@ (8000cdc <main+0x6d4>)
 8000c82:	f000 ffa9 	bl	8001bd8 <HAL_GPIO_WritePin>
		   if (VALUE_PARAM_BUZZER==ON) flag_buzzer=ON; else  if (VALUE_PARAM_BUZZER==OFF) flag_buzzer=OFF;
 8000c86:	686b      	ldr	r3, [r5, #4]
 8000c88:	2b03      	cmp	r3, #3
 8000c8a:	d10b      	bne.n	8000ca4 <main+0x69c>
 8000c8c:	4a12      	ldr	r2, [pc, #72]	@ (8000cd8 <main+0x6d0>)
 8000c8e:	7013      	strb	r3, [r2, #0]
 8000c90:	e57a      	b.n	8000788 <main+0x180>
	else if (car_data.left_indicator == OFF)
 8000c92:	2b02      	cmp	r3, #2
 8000c94:	d1ec      	bne.n	8000c70 <main+0x668>
			      LED_LEFT_SA_INDICATOR_OFF;
 8000c96:	2090      	movs	r0, #144	@ 0x90
 8000c98:	2200      	movs	r2, #0
 8000c9a:	2180      	movs	r1, #128	@ 0x80
 8000c9c:	05c0      	lsls	r0, r0, #23
 8000c9e:	f000 ff9b 	bl	8001bd8 <HAL_GPIO_WritePin>
 8000ca2:	e7e5      	b.n	8000c70 <main+0x668>
		   if (VALUE_PARAM_BUZZER==ON) flag_buzzer=ON; else  if (VALUE_PARAM_BUZZER==OFF) flag_buzzer=OFF;
 8000ca4:	2b02      	cmp	r3, #2
 8000ca6:	d000      	beq.n	8000caa <main+0x6a2>
 8000ca8:	e56e      	b.n	8000788 <main+0x180>
 8000caa:	e7ef      	b.n	8000c8c <main+0x684>
		   else if (car_data.right_indicator == OFF)
 8000cac:	2902      	cmp	r1, #2
 8000cae:	d000      	beq.n	8000cb2 <main+0x6aa>
 8000cb0:	e56a      	b.n	8000788 <main+0x180>
			      LED_RIGHT_SA_INDICATOR_OFF;
 8000cb2:	2200      	movs	r2, #0
 8000cb4:	4809      	ldr	r0, [pc, #36]	@ (8000cdc <main+0x6d4>)
 8000cb6:	e565      	b.n	8000784 <main+0x17c>
 8000cb8:	200000e4 	.word	0x200000e4
 8000cbc:	200000e1 	.word	0x200000e1
 8000cc0:	12121212 	.word	0x12121212
 8000cc4:	34343434 	.word	0x34343434
 8000cc8:	08003c30 	.word	0x08003c30
 8000ccc:	08003c2c 	.word	0x08003c2c
 8000cd0:	08003dd1 	.word	0x08003dd1
 8000cd4:	08003e04 	.word	0x08003e04
 8000cd8:	20000001 	.word	0x20000001
 8000cdc:	48000400 	.word	0x48000400

08000ce0 <HAL_TIM_PeriodElapsedCallback>:
        if(htim->Instance == TIM1) //check if the interrupt comes from TIM1
 8000ce0:	4b23      	ldr	r3, [pc, #140]	@ (8000d70 <HAL_TIM_PeriodElapsedCallback+0x90>)
 8000ce2:	6802      	ldr	r2, [r0, #0]
{
 8000ce4:	b570      	push	{r4, r5, r6, lr}
        if(htim->Instance == TIM1) //check if the interrupt comes from TIM1
 8000ce6:	429a      	cmp	r2, r3
 8000ce8:	d133      	bne.n	8000d52 <HAL_TIM_PeriodElapsedCallback+0x72>
        	if (car_data.left_turn_signal==ON && car_data.right_turn_signal==ON)
 8000cea:	4c22      	ldr	r4, [pc, #136]	@ (8000d74 <HAL_TIM_PeriodElapsedCallback+0x94>)
 8000cec:	78e2      	ldrb	r2, [r4, #3]
 8000cee:	2a03      	cmp	r2, #3
 8000cf0:	d10e      	bne.n	8000d10 <HAL_TIM_PeriodElapsedCallback+0x30>
 8000cf2:	7923      	ldrb	r3, [r4, #4]
 8000cf4:	2b03      	cmp	r3, #3
 8000cf6:	d10b      	bne.n	8000d10 <HAL_TIM_PeriodElapsedCallback+0x30>
        		LED_LEFT_SA_INDICATOR_OFF;
 8000cf8:	2090      	movs	r0, #144	@ 0x90
 8000cfa:	2200      	movs	r2, #0
 8000cfc:	2180      	movs	r1, #128	@ 0x80
 8000cfe:	05c0      	lsls	r0, r0, #23
 8000d00:	f000 ff6a 	bl	8001bd8 <HAL_GPIO_WritePin>
        		LED_RIGHT_SA_INDICATOR_OFF;
 8000d04:	2200      	movs	r2, #0
 8000d06:	2102      	movs	r1, #2
					else if (car_data.right_indicator == OFF) LED_RIGHT_SA_INDICATOR_OFF;
 8000d08:	481b      	ldr	r0, [pc, #108]	@ (8000d78 <HAL_TIM_PeriodElapsedCallback+0x98>)
 8000d0a:	f000 ff65 	bl	8001bd8 <HAL_GPIO_WritePin>
 8000d0e:	e013      	b.n	8000d38 <HAL_TIM_PeriodElapsedCallback+0x58>
					if (car_data.left_indicator == ON  && car_data.left_turn_signal==ON) HAL_GPIO_TogglePin(LED_LEFT_SA_INDICATOR_GPIO_Port, LED_LEFT_SA_INDICATOR_Pin);
 8000d10:	7863      	ldrb	r3, [r4, #1]
 8000d12:	2b03      	cmp	r3, #3
 8000d14:	d11e      	bne.n	8000d54 <HAL_TIM_PeriodElapsedCallback+0x74>
 8000d16:	2a03      	cmp	r2, #3
 8000d18:	d104      	bne.n	8000d24 <HAL_TIM_PeriodElapsedCallback+0x44>
 8000d1a:	2090      	movs	r0, #144	@ 0x90
 8000d1c:	2180      	movs	r1, #128	@ 0x80
 8000d1e:	05c0      	lsls	r0, r0, #23
 8000d20:	f000 ff60 	bl	8001be4 <HAL_GPIO_TogglePin>
					if (car_data.right_indicator == ON  && car_data.right_turn_signal==ON) HAL_GPIO_TogglePin(LED_RIGHT_SA_INDICATOR_GPIO_Port, LED_RIGHT_SA_INDICATOR_Pin);
 8000d24:	78a1      	ldrb	r1, [r4, #2]
 8000d26:	2903      	cmp	r1, #3
 8000d28:	d11d      	bne.n	8000d66 <HAL_TIM_PeriodElapsedCallback+0x86>
 8000d2a:	7923      	ldrb	r3, [r4, #4]
 8000d2c:	2b03      	cmp	r3, #3
 8000d2e:	d103      	bne.n	8000d38 <HAL_TIM_PeriodElapsedCallback+0x58>
 8000d30:	4811      	ldr	r0, [pc, #68]	@ (8000d78 <HAL_TIM_PeriodElapsedCallback+0x98>)
 8000d32:	3901      	subs	r1, #1
 8000d34:	f000 ff56 	bl	8001be4 <HAL_GPIO_TogglePin>
        	if (flag_buzzer==ON && car_data.speed>=120)
 8000d38:	4d10      	ldr	r5, [pc, #64]	@ (8000d7c <HAL_TIM_PeriodElapsedCallback+0x9c>)
 8000d3a:	782b      	ldrb	r3, [r5, #0]
 8000d3c:	2b03      	cmp	r3, #3
 8000d3e:	d108      	bne.n	8000d52 <HAL_TIM_PeriodElapsedCallback+0x72>
 8000d40:	88e3      	ldrh	r3, [r4, #6]
 8000d42:	2b77      	cmp	r3, #119	@ 0x77
 8000d44:	d905      	bls.n	8000d52 <HAL_TIM_PeriodElapsedCallback+0x72>
        		   BUZZER_Go(TBUZ_50, TICK_12);
 8000d46:	2117      	movs	r1, #23
 8000d48:	2032      	movs	r0, #50	@ 0x32
 8000d4a:	f002 f863 	bl	8002e14 <BUZZER_Go>
        		   flag_buzzer=OFF;
 8000d4e:	2302      	movs	r3, #2
 8000d50:	702b      	strb	r3, [r5, #0]
}
 8000d52:	bd70      	pop	{r4, r5, r6, pc}
					else if (car_data.left_indicator == OFF) LED_LEFT_SA_INDICATOR_OFF;
 8000d54:	2b02      	cmp	r3, #2
 8000d56:	d1e5      	bne.n	8000d24 <HAL_TIM_PeriodElapsedCallback+0x44>
 8000d58:	2090      	movs	r0, #144	@ 0x90
 8000d5a:	2200      	movs	r2, #0
 8000d5c:	2180      	movs	r1, #128	@ 0x80
 8000d5e:	05c0      	lsls	r0, r0, #23
 8000d60:	f000 ff3a 	bl	8001bd8 <HAL_GPIO_WritePin>
 8000d64:	e7de      	b.n	8000d24 <HAL_TIM_PeriodElapsedCallback+0x44>
					else if (car_data.right_indicator == OFF) LED_RIGHT_SA_INDICATOR_OFF;
 8000d66:	2902      	cmp	r1, #2
 8000d68:	d1e6      	bne.n	8000d38 <HAL_TIM_PeriodElapsedCallback+0x58>
 8000d6a:	2200      	movs	r2, #0
 8000d6c:	e7cc      	b.n	8000d08 <HAL_TIM_PeriodElapsedCallback+0x28>
 8000d6e:	46c0      	nop			@ (mov r8, r8)
 8000d70:	40012c00 	.word	0x40012c00
 8000d74:	20000100 	.word	0x20000100
 8000d78:	48000400 	.word	0x48000400
 8000d7c:	20000001 	.word	0x20000001

08000d80 <HAL_SYSTICK_Callback>:
{
 8000d80:	b510      	push	{r4, lr}
	BUZZER_Handler();
 8000d82:	f002 f855 	bl	8002e30 <BUZZER_Handler>
}
 8000d86:	bd10      	pop	{r4, pc}

08000d88 <Error_Handler>:
 8000d88:	b672      	cpsid	i
  while (1)
 8000d8a:	e7fe      	b.n	8000d8a <Error_Handler+0x2>

08000d8c <HAL_MspInit>:

  /* USER CODE BEGIN MspInit 0 */

  /* USER CODE END MspInit 0 */

  __HAL_RCC_SYSCFG_CLK_ENABLE();
 8000d8c:	2101      	movs	r1, #1
 8000d8e:	4b0c      	ldr	r3, [pc, #48]	@ (8000dc0 <HAL_MspInit+0x34>)
{
 8000d90:	b082      	sub	sp, #8
  __HAL_RCC_SYSCFG_CLK_ENABLE();
 8000d92:	699a      	ldr	r2, [r3, #24]
 8000d94:	430a      	orrs	r2, r1
 8000d96:	619a      	str	r2, [r3, #24]
 8000d98:	699a      	ldr	r2, [r3, #24]
 8000d9a:	400a      	ands	r2, r1
  __HAL_RCC_PWR_CLK_ENABLE();
 8000d9c:	2180      	movs	r1, #128	@ 0x80
  __HAL_RCC_SYSCFG_CLK_ENABLE();
 8000d9e:	9200      	str	r2, [sp, #0]
 8000da0:	9a00      	ldr	r2, [sp, #0]
  __HAL_RCC_PWR_CLK_ENABLE();
 8000da2:	69da      	ldr	r2, [r3, #28]
 8000da4:	0549      	lsls	r1, r1, #21
 8000da6:	430a      	orrs	r2, r1
 8000da8:	61da      	str	r2, [r3, #28]
 8000daa:	69db      	ldr	r3, [r3, #28]

  /* System interrupt init*/

  __HAL_REMAP_PIN_ENABLE(HAL_REMAP_PA11_PA12);
 8000dac:	4a05      	ldr	r2, [pc, #20]	@ (8000dc4 <HAL_MspInit+0x38>)
  __HAL_RCC_PWR_CLK_ENABLE();
 8000dae:	400b      	ands	r3, r1
 8000db0:	9301      	str	r3, [sp, #4]
 8000db2:	9b01      	ldr	r3, [sp, #4]
  __HAL_REMAP_PIN_ENABLE(HAL_REMAP_PA11_PA12);
 8000db4:	2310      	movs	r3, #16
 8000db6:	6811      	ldr	r1, [r2, #0]
 8000db8:	430b      	orrs	r3, r1
 8000dba:	6013      	str	r3, [r2, #0]

  /* USER CODE BEGIN MspInit 1 */

  /* USER CODE END MspInit 1 */
}
 8000dbc:	b002      	add	sp, #8
 8000dbe:	4770      	bx	lr
 8000dc0:	40021000 	.word	0x40021000
 8000dc4:	40010000 	.word	0x40010000

08000dc8 <NMI_Handler>:
{
  /* USER CODE BEGIN NonMaskableInt_IRQn 0 */

  /* USER CODE END NonMaskableInt_IRQn 0 */
  /* USER CODE BEGIN NonMaskableInt_IRQn 1 */
   while (1)
 8000dc8:	e7fe      	b.n	8000dc8 <NMI_Handler>

08000dca <HardFault_Handler>:
void HardFault_Handler(void)
{
  /* USER CODE BEGIN HardFault_IRQn 0 */

  /* USER CODE END HardFault_IRQn 0 */
  while (1)
 8000dca:	e7fe      	b.n	8000dca <HardFault_Handler>

08000dcc <SVC_Handler>:

  /* USER CODE END SVC_IRQn 0 */
  /* USER CODE BEGIN SVC_IRQn 1 */

  /* USER CODE END SVC_IRQn 1 */
}
 8000dcc:	4770      	bx	lr

08000dce <PendSV_Handler>:

/**
  * @brief This function handles Pendable request for system service.
  */
void PendSV_Handler(void)
 8000dce:	4770      	bx	lr

08000dd0 <SysTick_Handler>:

/**
  * @brief This function handles System tick timer.
  */
void SysTick_Handler(void)
{
 8000dd0:	b510      	push	{r4, lr}
  /* USER CODE BEGIN SysTick_IRQn 0 */
	HAL_SYSTICK_Callback();
 8000dd2:	f7ff ffd5 	bl	8000d80 <HAL_SYSTICK_Callback>
  /* USER CODE END SysTick_IRQn 0 */
  HAL_IncTick();
 8000dd6:	f000 f94f 	bl	8001078 <HAL_IncTick>
  /* USER CODE BEGIN SysTick_IRQn 1 */

  /* USER CODE END SysTick_IRQn 1 */
}
 8000dda:	bd10      	pop	{r4, pc}

08000ddc <TIM1_BRK_UP_TRG_COM_IRQHandler>:

/**
  * @brief This function handles TIM1 break, update, trigger and commutation interrupts.
  */
void TIM1_BRK_UP_TRG_COM_IRQHandler(void)
{
 8000ddc:	b510      	push	{r4, lr}
  /* USER CODE BEGIN TIM1_BRK_UP_TRG_COM_IRQn 0 */

  /* USER CODE END TIM1_BRK_UP_TRG_COM_IRQn 0 */
  HAL_TIM_IRQHandler(&htim1);
 8000dde:	4802      	ldr	r0, [pc, #8]	@ (8000de8 <TIM1_BRK_UP_TRG_COM_IRQHandler+0xc>)
 8000de0:	f001 fa5c 	bl	800229c <HAL_TIM_IRQHandler>
  /* USER CODE BEGIN TIM1_BRK_UP_TRG_COM_IRQn 1 */

  /* USER CODE END TIM1_BRK_UP_TRG_COM_IRQn 1 */
}
 8000de4:	bd10      	pop	{r4, pc}
 8000de6:	46c0      	nop			@ (mov r8, r8)
 8000de8:	20000110 	.word	0x20000110

08000dec <CEC_CAN_IRQHandler>:

/**
  * @brief This function handles HDMI-CEC and CAN global interrupts / HDMI-CEC wake-up interrupt through EXTI line 27.
  */
void CEC_CAN_IRQHandler(void)
{
 8000dec:	b510      	push	{r4, lr}
  /* USER CODE BEGIN CEC_CAN_IRQn 0 */

  /* USER CODE END CEC_CAN_IRQn 0 */
  HAL_CAN_IRQHandler(&hcan1);
 8000dee:	4802      	ldr	r0, [pc, #8]	@ (8000df8 <CEC_CAN_IRQHandler+0xc>)
 8000df0:	f000 fbe0 	bl	80015b4 <HAL_CAN_IRQHandler>
  /* USER CODE BEGIN CEC_CAN_IRQn 1 */

  /* USER CODE END CEC_CAN_IRQn 1 */
}
 8000df4:	bd10      	pop	{r4, pc}
 8000df6:	46c0      	nop			@ (mov r8, r8)
 8000df8:	2000007c 	.word	0x2000007c

08000dfc <_sbrk>:
void *_sbrk(ptrdiff_t incr)
{
  extern uint8_t _end; /* Symbol defined in the linker script */
  extern uint8_t _estack; /* Symbol defined in the linker script */
  extern uint32_t _Min_Stack_Size; /* Symbol defined in the linker script */
  const uint32_t stack_limit = (uint32_t)&_estack - (uint32_t)&_Min_Stack_Size;
 8000dfc:	490b      	ldr	r1, [pc, #44]	@ (8000e2c <_sbrk+0x30>)
 8000dfe:	4a0c      	ldr	r2, [pc, #48]	@ (8000e30 <_sbrk+0x34>)
{
 8000e00:	0003      	movs	r3, r0
  const uint32_t stack_limit = (uint32_t)&_estack - (uint32_t)&_Min_Stack_Size;
 8000e02:	1a52      	subs	r2, r2, r1
  const uint8_t *max_heap = (uint8_t *)stack_limit;
  uint8_t *prev_heap_end;

  /* Initialize heap end at first call */
  if (NULL == __sbrk_heap_end)
 8000e04:	490b      	ldr	r1, [pc, #44]	@ (8000e34 <_sbrk+0x38>)
{
 8000e06:	b510      	push	{r4, lr}
  if (NULL == __sbrk_heap_end)
 8000e08:	6808      	ldr	r0, [r1, #0]
 8000e0a:	2800      	cmp	r0, #0
 8000e0c:	d101      	bne.n	8000e12 <_sbrk+0x16>
  {
    __sbrk_heap_end = &_end;
 8000e0e:	480a      	ldr	r0, [pc, #40]	@ (8000e38 <_sbrk+0x3c>)
 8000e10:	6008      	str	r0, [r1, #0]
  }

  /* Protect heap from growing into the reserved MSP stack */
  if (__sbrk_heap_end + incr > max_heap)
 8000e12:	6808      	ldr	r0, [r1, #0]
 8000e14:	18c3      	adds	r3, r0, r3
 8000e16:	4293      	cmp	r3, r2
 8000e18:	d906      	bls.n	8000e28 <_sbrk+0x2c>
  {
    errno = ENOMEM;
 8000e1a:	f002 fa89 	bl	8003330 <__errno>
 8000e1e:	230c      	movs	r3, #12
 8000e20:	6003      	str	r3, [r0, #0]
    return (void *)-1;
 8000e22:	2001      	movs	r0, #1
 8000e24:	4240      	negs	r0, r0

  prev_heap_end = __sbrk_heap_end;
  __sbrk_heap_end += incr;

  return (void *)prev_heap_end;
}
 8000e26:	bd10      	pop	{r4, pc}
  __sbrk_heap_end += incr;
 8000e28:	600b      	str	r3, [r1, #0]
  return (void *)prev_heap_end;
 8000e2a:	e7fc      	b.n	8000e26 <_sbrk+0x2a>
 8000e2c:	00000400 	.word	0x00000400
 8000e30:	20001800 	.word	0x20001800
 8000e34:	2000010c 	.word	0x2000010c
 8000e38:	20000420 	.word	0x20000420

08000e3c <SystemInit>:
                         before branch to main program. This call is made inside
                         the "startup_stm32f0xx.s" file.
                         User can setups the default system clock (System clock source, PLL Multiplier
                         and Divider factors, AHB/APBx prescalers and Flash settings).
   */
}
 8000e3c:	4770      	bx	lr
	...

08000e40 <MX_TIM1_Init>:

TIM_HandleTypeDef htim1;

/* TIM1 init function */
void MX_TIM1_Init(void)
{
 8000e40:	b510      	push	{r4, lr}
 8000e42:	b086      	sub	sp, #24

  /* USER CODE BEGIN TIM1_Init 0 */

  /* USER CODE END TIM1_Init 0 */

  TIM_ClockConfigTypeDef sClockSourceConfig = {0};
 8000e44:	2210      	movs	r2, #16
 8000e46:	2100      	movs	r1, #0
 8000e48:	a802      	add	r0, sp, #8
 8000e4a:	f002 fa69 	bl	8003320 <memset>
  TIM_MasterConfigTypeDef sMasterConfig = {0};
 8000e4e:	2208      	movs	r2, #8
 8000e50:	2100      	movs	r1, #0
 8000e52:	4668      	mov	r0, sp
 8000e54:	f002 fa64 	bl	8003320 <memset>

  /* USER CODE BEGIN TIM1_Init 1 */

  /* USER CODE END TIM1_Init 1 */
  htim1.Instance = TIM1;
 8000e58:	4c15      	ldr	r4, [pc, #84]	@ (8000eb0 <MX_TIM1_Init+0x70>)
 8000e5a:	4b16      	ldr	r3, [pc, #88]	@ (8000eb4 <MX_TIM1_Init+0x74>)
  htim1.Init.Prescaler = 479;
  htim1.Init.CounterMode = TIM_COUNTERMODE_UP;
  htim1.Init.Period = 49999;
 8000e5c:	4a16      	ldr	r2, [pc, #88]	@ (8000eb8 <MX_TIM1_Init+0x78>)
  htim1.Instance = TIM1;
 8000e5e:	6023      	str	r3, [r4, #0]
  htim1.Init.Prescaler = 479;
 8000e60:	23e0      	movs	r3, #224	@ 0xe0
 8000e62:	33ff      	adds	r3, #255	@ 0xff
 8000e64:	6063      	str	r3, [r4, #4]
  htim1.Init.CounterMode = TIM_COUNTERMODE_UP;
 8000e66:	2300      	movs	r3, #0
  htim1.Init.ClockDivision = TIM_CLOCKDIVISION_DIV1;
  htim1.Init.RepetitionCounter = 0;
  htim1.Init.AutoReloadPreload = TIM_AUTORELOAD_PRELOAD_DISABLE;
  if (HAL_TIM_Base_Init(&htim1) != HAL_OK)
 8000e68:	0020      	movs	r0, r4
  htim1.Init.CounterMode = TIM_COUNTERMODE_UP;
 8000e6a:	60a3      	str	r3, [r4, #8]
  htim1.Init.Period = 49999;
 8000e6c:	60e2      	str	r2, [r4, #12]
  htim1.Init.ClockDivision = TIM_CLOCKDIVISION_DIV1;
 8000e6e:	6123      	str	r3, [r4, #16]
  htim1.Init.RepetitionCounter = 0;
 8000e70:	6163      	str	r3, [r4, #20]
  htim1.Init.AutoReloadPreload = TIM_AUTORELOAD_PRELOAD_DISABLE;
 8000e72:	61a3      	str	r3, [r4, #24]
  if (HAL_TIM_Base_Init(&htim1) != HAL_OK)
 8000e74:	f001 fbe8 	bl	8002648 <HAL_TIM_Base_Init>
 8000e78:	2800      	cmp	r0, #0
 8000e7a:	d001      	beq.n	8000e80 <MX_TIM1_Init+0x40>
  {
    Error_Handler();
 8000e7c:	f7ff ff84 	bl	8000d88 <Error_Handler>
  }
  sClockSourceConfig.ClockSource = TIM_CLOCKSOURCE_INTERNAL;
 8000e80:	2380      	movs	r3, #128	@ 0x80
  if (HAL_TIM_ConfigClockSource(&htim1, &sClockSourceConfig) != HAL_OK)
 8000e82:	0020      	movs	r0, r4
  sClockSourceConfig.ClockSource = TIM_CLOCKSOURCE_INTERNAL;
 8000e84:	015b      	lsls	r3, r3, #5
  if (HAL_TIM_ConfigClockSource(&htim1, &sClockSourceConfig) != HAL_OK)
 8000e86:	a902      	add	r1, sp, #8
  sClockSourceConfig.ClockSource = TIM_CLOCKSOURCE_INTERNAL;
 8000e88:	9302      	str	r3, [sp, #8]
  if (HAL_TIM_ConfigClockSource(&htim1, &sClockSourceConfig) != HAL_OK)
 8000e8a:	f001 fb0d 	bl	80024a8 <HAL_TIM_ConfigClockSource>
 8000e8e:	2800      	cmp	r0, #0
 8000e90:	d001      	beq.n	8000e96 <MX_TIM1_Init+0x56>
  {
    Error_Handler();
 8000e92:	f7ff ff79 	bl	8000d88 <Error_Handler>
  }
  sMasterConfig.MasterOutputTrigger = TIM_TRGO_RESET;
 8000e96:	2300      	movs	r3, #0
  sMasterConfig.MasterSlaveMode = TIM_MASTERSLAVEMODE_DISABLE;
  if (HAL_TIMEx_MasterConfigSynchronization(&htim1, &sMasterConfig) != HAL_OK)
 8000e98:	4669      	mov	r1, sp
 8000e9a:	0020      	movs	r0, r4
  sMasterConfig.MasterOutputTrigger = TIM_TRGO_RESET;
 8000e9c:	9300      	str	r3, [sp, #0]
  sMasterConfig.MasterSlaveMode = TIM_MASTERSLAVEMODE_DISABLE;
 8000e9e:	9301      	str	r3, [sp, #4]
  if (HAL_TIMEx_MasterConfigSynchronization(&htim1, &sMasterConfig) != HAL_OK)
 8000ea0:	f001 fc04 	bl	80026ac <HAL_TIMEx_MasterConfigSynchronization>
 8000ea4:	2800      	cmp	r0, #0
 8000ea6:	d001      	beq.n	8000eac <MX_TIM1_Init+0x6c>
  {
    Error_Handler();
 8000ea8:	f7ff ff6e 	bl	8000d88 <Error_Handler>
  }
  /* USER CODE BEGIN TIM1_Init 2 */

  /* USER CODE END TIM1_Init 2 */

}
 8000eac:	b006      	add	sp, #24
 8000eae:	bd10      	pop	{r4, pc}
 8000eb0:	20000110 	.word	0x20000110
 8000eb4:	40012c00 	.word	0x40012c00
 8000eb8:	0000c34f 	.word	0x0000c34f

08000ebc <HAL_TIM_Base_MspInit>:

void HAL_TIM_Base_MspInit(TIM_HandleTypeDef* tim_baseHandle)
{
 8000ebc:	b507      	push	{r0, r1, r2, lr}

  if(tim_baseHandle->Instance==TIM1)
 8000ebe:	4b0b      	ldr	r3, [pc, #44]	@ (8000eec <HAL_TIM_Base_MspInit+0x30>)
 8000ec0:	6802      	ldr	r2, [r0, #0]
 8000ec2:	429a      	cmp	r2, r3
 8000ec4:	d111      	bne.n	8000eea <HAL_TIM_Base_MspInit+0x2e>
  {
  /* USER CODE BEGIN TIM1_MspInit 0 */

  /* USER CODE END TIM1_MspInit 0 */
    /* TIM1 clock enable */
    __HAL_RCC_TIM1_CLK_ENABLE();
 8000ec6:	2180      	movs	r1, #128	@ 0x80
 8000ec8:	4b09      	ldr	r3, [pc, #36]	@ (8000ef0 <HAL_TIM_Base_MspInit+0x34>)
 8000eca:	0109      	lsls	r1, r1, #4
 8000ecc:	699a      	ldr	r2, [r3, #24]

    /* TIM1 interrupt Init */
    HAL_NVIC_SetPriority(TIM1_BRK_UP_TRG_COM_IRQn, 0, 0);
 8000ece:	200d      	movs	r0, #13
    __HAL_RCC_TIM1_CLK_ENABLE();
 8000ed0:	430a      	orrs	r2, r1
 8000ed2:	619a      	str	r2, [r3, #24]
    HAL_NVIC_SetPriority(TIM1_BRK_UP_TRG_COM_IRQn, 0, 0);
 8000ed4:	2200      	movs	r2, #0
    __HAL_RCC_TIM1_CLK_ENABLE();
 8000ed6:	699b      	ldr	r3, [r3, #24]
 8000ed8:	400b      	ands	r3, r1
 8000eda:	9301      	str	r3, [sp, #4]
    HAL_NVIC_SetPriority(TIM1_BRK_UP_TRG_COM_IRQn, 0, 0);
 8000edc:	0011      	movs	r1, r2
    __HAL_RCC_TIM1_CLK_ENABLE();
 8000ede:	9b01      	ldr	r3, [sp, #4]
    HAL_NVIC_SetPriority(TIM1_BRK_UP_TRG_COM_IRQn, 0, 0);
 8000ee0:	f000 fc5e 	bl	80017a0 <HAL_NVIC_SetPriority>
    HAL_NVIC_EnableIRQ(TIM1_BRK_UP_TRG_COM_IRQn);
 8000ee4:	200d      	movs	r0, #13
 8000ee6:	f000 fc85 	bl	80017f4 <HAL_NVIC_EnableIRQ>
  /* USER CODE BEGIN TIM1_MspInit 1 */

  /* USER CODE END TIM1_MspInit 1 */
  }
}
 8000eea:	bd07      	pop	{r0, r1, r2, pc}
 8000eec:	40012c00 	.word	0x40012c00
 8000ef0:	40021000 	.word	0x40021000

08000ef4 <MX_USART2_UART_Init>:
  /* USER CODE END USART2_Init 0 */

  /* USER CODE BEGIN USART2_Init 1 */

  /* USER CODE END USART2_Init 1 */
  huart2.Instance = USART2;
 8000ef4:	480b      	ldr	r0, [pc, #44]	@ (8000f24 <MX_USART2_UART_Init+0x30>)
 8000ef6:	4b0c      	ldr	r3, [pc, #48]	@ (8000f28 <MX_USART2_UART_Init+0x34>)
{
 8000ef8:	b510      	push	{r4, lr}
  huart2.Instance = USART2;
 8000efa:	6003      	str	r3, [r0, #0]
  huart2.Init.BaudRate = 115200;
 8000efc:	23e1      	movs	r3, #225	@ 0xe1
 8000efe:	025b      	lsls	r3, r3, #9
  huart2.Init.WordLength = UART_WORDLENGTH_8B;
  huart2.Init.StopBits = UART_STOPBITS_1;
  huart2.Init.Parity = UART_PARITY_NONE;
  huart2.Init.Mode = UART_MODE_TX_RX;
 8000f00:	220c      	movs	r2, #12
  huart2.Init.BaudRate = 115200;
 8000f02:	6043      	str	r3, [r0, #4]
  huart2.Init.WordLength = UART_WORDLENGTH_8B;
 8000f04:	2300      	movs	r3, #0
  huart2.Init.Mode = UART_MODE_TX_RX;
 8000f06:	6142      	str	r2, [r0, #20]
  huart2.Init.WordLength = UART_WORDLENGTH_8B;
 8000f08:	6083      	str	r3, [r0, #8]
  huart2.Init.StopBits = UART_STOPBITS_1;
 8000f0a:	60c3      	str	r3, [r0, #12]
  huart2.Init.Parity = UART_PARITY_NONE;
 8000f0c:	6103      	str	r3, [r0, #16]
  huart2.Init.HwFlowCtl = UART_HWCONTROL_NONE;
 8000f0e:	6183      	str	r3, [r0, #24]
  huart2.Init.OverSampling = UART_OVERSAMPLING_16;
 8000f10:	61c3      	str	r3, [r0, #28]
  huart2.Init.OneBitSampling = UART_ONE_BIT_SAMPLE_DISABLE;
 8000f12:	6203      	str	r3, [r0, #32]
  huart2.AdvancedInit.AdvFeatureInit = UART_ADVFEATURE_NO_INIT;
 8000f14:	6243      	str	r3, [r0, #36]	@ 0x24
  if (HAL_UART_Init(&huart2) != HAL_OK)
 8000f16:	f001 fe35 	bl	8002b84 <HAL_UART_Init>
 8000f1a:	2800      	cmp	r0, #0
 8000f1c:	d001      	beq.n	8000f22 <MX_USART2_UART_Init+0x2e>
  {
    Error_Handler();
 8000f1e:	f7ff ff33 	bl	8000d88 <Error_Handler>
  }
  /* USER CODE BEGIN USART2_Init 2 */

  /* USER CODE END USART2_Init 2 */

}
 8000f22:	bd10      	pop	{r4, pc}
 8000f24:	200001c4 	.word	0x200001c4
 8000f28:	40004400 	.word	0x40004400

08000f2c <HAL_UART_MspInit>:

void HAL_UART_MspInit(UART_HandleTypeDef* uartHandle)
{
 8000f2c:	b510      	push	{r4, lr}
 8000f2e:	0004      	movs	r4, r0
 8000f30:	b088      	sub	sp, #32

  GPIO_InitTypeDef GPIO_InitStruct = {0};
 8000f32:	2214      	movs	r2, #20
 8000f34:	2100      	movs	r1, #0
 8000f36:	a803      	add	r0, sp, #12
 8000f38:	f002 f9f2 	bl	8003320 <memset>
  if(uartHandle->Instance==USART2)
 8000f3c:	4b11      	ldr	r3, [pc, #68]	@ (8000f84 <HAL_UART_MspInit+0x58>)
 8000f3e:	6822      	ldr	r2, [r4, #0]
 8000f40:	429a      	cmp	r2, r3
 8000f42:	d11d      	bne.n	8000f80 <HAL_UART_MspInit+0x54>
  {
  /* USER CODE BEGIN USART2_MspInit 0 */

  /* USER CODE END USART2_MspInit 0 */
    /* USART2 clock enable */
    __HAL_RCC_USART2_CLK_ENABLE();
 8000f44:	2280      	movs	r2, #128	@ 0x80
 8000f46:	4b10      	ldr	r3, [pc, #64]	@ (8000f88 <HAL_UART_MspInit+0x5c>)
 8000f48:	0292      	lsls	r2, r2, #10
 8000f4a:	69d9      	ldr	r1, [r3, #28]
    GPIO_InitStruct.Pin = GPIO_PIN_2|GPIO_PIN_3;
    GPIO_InitStruct.Mode = GPIO_MODE_AF_PP;
    GPIO_InitStruct.Pull = GPIO_NOPULL;
    GPIO_InitStruct.Speed = GPIO_SPEED_FREQ_HIGH;
    GPIO_InitStruct.Alternate = GPIO_AF1_USART2;
    HAL_GPIO_Init(GPIOA, &GPIO_InitStruct);
 8000f4c:	2090      	movs	r0, #144	@ 0x90
    __HAL_RCC_USART2_CLK_ENABLE();
 8000f4e:	4311      	orrs	r1, r2
 8000f50:	61d9      	str	r1, [r3, #28]
 8000f52:	69d9      	ldr	r1, [r3, #28]
    HAL_GPIO_Init(GPIOA, &GPIO_InitStruct);
 8000f54:	05c0      	lsls	r0, r0, #23
    __HAL_RCC_USART2_CLK_ENABLE();
 8000f56:	4011      	ands	r1, r2
 8000f58:	9101      	str	r1, [sp, #4]
 8000f5a:	9901      	ldr	r1, [sp, #4]
    __HAL_RCC_GPIOA_CLK_ENABLE();
 8000f5c:	6959      	ldr	r1, [r3, #20]
 8000f5e:	4311      	orrs	r1, r2
 8000f60:	6159      	str	r1, [r3, #20]
 8000f62:	695b      	ldr	r3, [r3, #20]
    HAL_GPIO_Init(GPIOA, &GPIO_InitStruct);
 8000f64:	a903      	add	r1, sp, #12
    __HAL_RCC_GPIOA_CLK_ENABLE();
 8000f66:	4013      	ands	r3, r2
 8000f68:	9302      	str	r3, [sp, #8]
 8000f6a:	9b02      	ldr	r3, [sp, #8]
    GPIO_InitStruct.Pin = GPIO_PIN_2|GPIO_PIN_3;
 8000f6c:	230c      	movs	r3, #12
 8000f6e:	9303      	str	r3, [sp, #12]
    GPIO_InitStruct.Mode = GPIO_MODE_AF_PP;
 8000f70:	3b0a      	subs	r3, #10
 8000f72:	9304      	str	r3, [sp, #16]
    GPIO_InitStruct.Speed = GPIO_SPEED_FREQ_HIGH;
 8000f74:	3301      	adds	r3, #1
 8000f76:	9306      	str	r3, [sp, #24]
    GPIO_InitStruct.Alternate = GPIO_AF1_USART2;
 8000f78:	3b02      	subs	r3, #2
 8000f7a:	9307      	str	r3, [sp, #28]
    HAL_GPIO_Init(GPIOA, &GPIO_InitStruct);
 8000f7c:	f000 fd7a 	bl	8001a74 <HAL_GPIO_Init>

  /* USER CODE BEGIN USART2_MspInit 1 */

  /* USER CODE END USART2_MspInit 1 */
  }
}
 8000f80:	b008      	add	sp, #32
 8000f82:	bd10      	pop	{r4, pc}
 8000f84:	40004400 	.word	0x40004400
 8000f88:	40021000 	.word	0x40021000

08000f8c <Reset_Handler>:

  .section .text.Reset_Handler
  .weak Reset_Handler
  .type Reset_Handler, %function
Reset_Handler:
  ldr   r0, =_estack
 8000f8c:	4813      	ldr	r0, [pc, #76]	@ (8000fdc <LoopForever+0x2>)
  mov   sp, r0          /* set stack pointer */
 8000f8e:	4685      	mov	sp, r0
  
/* Call the clock system initialization function.*/
  bl  SystemInit
 8000f90:	f7ff ff54 	bl	8000e3c <SystemInit>

/*Check if boot space corresponds to test memory*/
 
    LDR R0,=0x00000004
 8000f94:	4812      	ldr	r0, [pc, #72]	@ (8000fe0 <LoopForever+0x6>)
    LDR R1, [R0]
 8000f96:	6801      	ldr	r1, [r0, #0]
    LSRS R1, R1, #24
 8000f98:	0e09      	lsrs	r1, r1, #24
    LDR R2,=0x1F
 8000f9a:	4a12      	ldr	r2, [pc, #72]	@ (8000fe4 <LoopForever+0xa>)
    CMP R1, R2
 8000f9c:	4291      	cmp	r1, r2
    BNE ApplicationStart
 8000f9e:	d105      	bne.n	8000fac <ApplicationStart>

 /*SYSCFG clock enable*/

    LDR R0,=0x40021018
 8000fa0:	4811      	ldr	r0, [pc, #68]	@ (8000fe8 <LoopForever+0xe>)
    LDR R1,=0x00000001
 8000fa2:	4912      	ldr	r1, [pc, #72]	@ (8000fec <LoopForever+0x12>)
    STR R1, [R0]
 8000fa4:	6001      	str	r1, [r0, #0]

/*Set CFGR1 register with flash memory remap at address 0*/
    LDR R0,=0x40010000
 8000fa6:	4812      	ldr	r0, [pc, #72]	@ (8000ff0 <LoopForever+0x16>)
    LDR R1,=0x00000000
 8000fa8:	4912      	ldr	r1, [pc, #72]	@ (8000ff4 <LoopForever+0x1a>)
    STR R1, [R0]
 8000faa:	6001      	str	r1, [r0, #0]

08000fac <ApplicationStart>:

ApplicationStart:
/* Copy the data segment initializers from flash to SRAM */
  ldr r0, =_sdata
 8000fac:	4812      	ldr	r0, [pc, #72]	@ (8000ff8 <LoopForever+0x1e>)
  ldr r1, =_edata
 8000fae:	4913      	ldr	r1, [pc, #76]	@ (8000ffc <LoopForever+0x22>)
  ldr r2, =_sidata
 8000fb0:	4a13      	ldr	r2, [pc, #76]	@ (8001000 <LoopForever+0x26>)
  movs r3, #0
 8000fb2:	2300      	movs	r3, #0
  b LoopCopyDataInit
 8000fb4:	e002      	b.n	8000fbc <LoopCopyDataInit>

08000fb6 <CopyDataInit>:

CopyDataInit:
  ldr r4, [r2, r3]
 8000fb6:	58d4      	ldr	r4, [r2, r3]
  str r4, [r0, r3]
 8000fb8:	50c4      	str	r4, [r0, r3]
  adds r3, r3, #4
 8000fba:	3304      	adds	r3, #4

08000fbc <LoopCopyDataInit>:

LoopCopyDataInit:
  adds r4, r0, r3
 8000fbc:	18c4      	adds	r4, r0, r3
  cmp r4, r1
 8000fbe:	428c      	cmp	r4, r1
  bcc CopyDataInit
 8000fc0:	d3f9      	bcc.n	8000fb6 <CopyDataInit>
  
/* Zero fill the bss segment. */
  ldr r2, =_sbss
 8000fc2:	4a10      	ldr	r2, [pc, #64]	@ (8001004 <LoopForever+0x2a>)
  ldr r4, =_ebss
 8000fc4:	4c10      	ldr	r4, [pc, #64]	@ (8001008 <LoopForever+0x2e>)
  movs r3, #0
 8000fc6:	2300      	movs	r3, #0
  b LoopFillZerobss
 8000fc8:	e001      	b.n	8000fce <LoopFillZerobss>

08000fca <FillZerobss>:

FillZerobss:
  str  r3, [r2]
 8000fca:	6013      	str	r3, [r2, #0]
  adds r2, r2, #4
 8000fcc:	3204      	adds	r2, #4

08000fce <LoopFillZerobss>:

LoopFillZerobss:
  cmp r2, r4
 8000fce:	42a2      	cmp	r2, r4
  bcc FillZerobss
 8000fd0:	d3fb      	bcc.n	8000fca <FillZerobss>

/* Call static constructors */
  bl __libc_init_array
 8000fd2:	f002 f9b3 	bl	800333c <__libc_init_array>
/* Call the application's entry point.*/
  bl main
 8000fd6:	f7ff fb17 	bl	8000608 <main>

08000fda <LoopForever>:

LoopForever:
    b LoopForever
 8000fda:	e7fe      	b.n	8000fda <LoopForever>
  ldr   r0, =_estack
 8000fdc:	20001800 	.word	0x20001800
    LDR R0,=0x00000004
 8000fe0:	00000004 	.word	0x00000004
    LDR R2,=0x1F
 8000fe4:	0000001f 	.word	0x0000001f
    LDR R0,=0x40021018
 8000fe8:	40021018 	.word	0x40021018
    LDR R1,=0x00000001
 8000fec:	00000001 	.word	0x00000001
    LDR R0,=0x40010000
 8000ff0:	40010000 	.word	0x40010000
    LDR R1,=0x00000000
 8000ff4:	00000000 	.word	0x00000000
  ldr r0, =_sdata
 8000ff8:	20000000 	.word	0x20000000
  ldr r1, =_edata
 8000ffc:	20000060 	.word	0x20000060
  ldr r2, =_sidata
 8001000:	08003fc0 	.word	0x08003fc0
  ldr r2, =_sbss
 8001004:	20000060 	.word	0x20000060
  ldr r4, =_ebss
 8001008:	2000041c 	.word	0x2000041c

0800100c <ADC1_IRQHandler>:
 * @retval : None
*/
    .section .text.Default_Handler,"ax",%progbits
Default_Handler:
Infinite_Loop:
  b Infinite_Loop
 800100c:	e7fe      	b.n	800100c <ADC1_IRQHandler>
	...

08001010 <HAL_InitTick>:
  *       implementation  in user file.
  * @param TickPriority Tick interrupt priority.
  * @retval HAL status
  */
__weak HAL_StatusTypeDef HAL_InitTick(uint32_t TickPriority)
{
 8001010:	b570      	push	{r4, r5, r6, lr}
 8001012:	0005      	movs	r5, r0
  /*Configure the SysTick to have interrupt in 1ms time basis*/
  if (HAL_SYSTICK_Config(SystemCoreClock / (1000U / uwTickFreq)) > 0U)
 8001014:	20fa      	movs	r0, #250	@ 0xfa
 8001016:	4b0d      	ldr	r3, [pc, #52]	@ (800104c <HAL_InitTick+0x3c>)
 8001018:	0080      	lsls	r0, r0, #2
 800101a:	7819      	ldrb	r1, [r3, #0]
 800101c:	f7ff f890 	bl	8000140 <__udivsi3>
 8001020:	4c0b      	ldr	r4, [pc, #44]	@ (8001050 <HAL_InitTick+0x40>)
 8001022:	0001      	movs	r1, r0
 8001024:	6820      	ldr	r0, [r4, #0]
 8001026:	f7ff f88b 	bl	8000140 <__udivsi3>
 800102a:	f000 fbef 	bl	800180c <HAL_SYSTICK_Config>
 800102e:	0004      	movs	r4, r0
  {
    return HAL_ERROR;
 8001030:	2001      	movs	r0, #1
  if (HAL_SYSTICK_Config(SystemCoreClock / (1000U / uwTickFreq)) > 0U)
 8001032:	2c00      	cmp	r4, #0
 8001034:	d109      	bne.n	800104a <HAL_InitTick+0x3a>
  }

  /* Configure the SysTick IRQ priority */
  if (TickPriority < (1UL << __NVIC_PRIO_BITS))
 8001036:	2d03      	cmp	r5, #3
 8001038:	d807      	bhi.n	800104a <HAL_InitTick+0x3a>
  {
    HAL_NVIC_SetPriority(SysTick_IRQn, TickPriority, 0U);
 800103a:	3802      	subs	r0, #2
 800103c:	0022      	movs	r2, r4
 800103e:	0029      	movs	r1, r5
 8001040:	f000 fbae 	bl	80017a0 <HAL_NVIC_SetPriority>
    uwTickPrio = TickPriority;
 8001044:	0020      	movs	r0, r4
 8001046:	4b03      	ldr	r3, [pc, #12]	@ (8001054 <HAL_InitTick+0x44>)
 8001048:	601d      	str	r5, [r3, #0]
    return HAL_ERROR;
  }

   /* Return function status */
  return HAL_OK;
}
 800104a:	bd70      	pop	{r4, r5, r6, pc}
 800104c:	20000008 	.word	0x20000008
 8001050:	20000004 	.word	0x20000004
 8001054:	2000000c 	.word	0x2000000c

08001058 <HAL_Init>:
  __HAL_FLASH_PREFETCH_BUFFER_ENABLE();
 8001058:	2310      	movs	r3, #16
 800105a:	4a06      	ldr	r2, [pc, #24]	@ (8001074 <HAL_Init+0x1c>)
{
 800105c:	b510      	push	{r4, lr}
  __HAL_FLASH_PREFETCH_BUFFER_ENABLE();
 800105e:	6811      	ldr	r1, [r2, #0]
  HAL_InitTick(TICK_INT_PRIORITY);
 8001060:	2003      	movs	r0, #3
  __HAL_FLASH_PREFETCH_BUFFER_ENABLE();
 8001062:	430b      	orrs	r3, r1
 8001064:	6013      	str	r3, [r2, #0]
  HAL_InitTick(TICK_INT_PRIORITY);
 8001066:	f7ff ffd3 	bl	8001010 <HAL_InitTick>
  HAL_MspInit();
 800106a:	f7ff fe8f 	bl	8000d8c <HAL_MspInit>
}
 800106e:	2000      	movs	r0, #0
 8001070:	bd10      	pop	{r4, pc}
 8001072:	46c0      	nop			@ (mov r8, r8)
 8001074:	40022000 	.word	0x40022000

08001078 <HAL_IncTick>:
  *       implementations in user file.
  * @retval None
  */
__weak void HAL_IncTick(void)
{
  uwTick += uwTickFreq;
 8001078:	4a03      	ldr	r2, [pc, #12]	@ (8001088 <HAL_IncTick+0x10>)
 800107a:	4b04      	ldr	r3, [pc, #16]	@ (800108c <HAL_IncTick+0x14>)
 800107c:	6811      	ldr	r1, [r2, #0]
 800107e:	781b      	ldrb	r3, [r3, #0]
 8001080:	185b      	adds	r3, r3, r1
 8001082:	6013      	str	r3, [r2, #0]
}
 8001084:	4770      	bx	lr
 8001086:	46c0      	nop			@ (mov r8, r8)
 8001088:	2000024c 	.word	0x2000024c
 800108c:	20000008 	.word	0x20000008

08001090 <HAL_GetTick>:
  *       implementations in user file.
  * @retval tick value
  */
__weak uint32_t HAL_GetTick(void)
{
  return uwTick;
 8001090:	4b01      	ldr	r3, [pc, #4]	@ (8001098 <HAL_GetTick+0x8>)
 8001092:	6818      	ldr	r0, [r3, #0]
}
 8001094:	4770      	bx	lr
 8001096:	46c0      	nop			@ (mov r8, r8)
 8001098:	2000024c 	.word	0x2000024c

0800109c <HAL_Delay>:
  *       implementations in user file.
  * @param Delay specifies the delay time length, in milliseconds.
  * @retval None
  */
__weak void HAL_Delay(uint32_t Delay)
{
 800109c:	b570      	push	{r4, r5, r6, lr}
 800109e:	0004      	movs	r4, r0
  uint32_t tickstart = HAL_GetTick();
 80010a0:	f7ff fff6 	bl	8001090 <HAL_GetTick>
 80010a4:	0005      	movs	r5, r0
  uint32_t wait = Delay;
  
  /* Add a freq to guarantee minimum wait */
  if (wait < HAL_MAX_DELAY)
 80010a6:	1c63      	adds	r3, r4, #1
 80010a8:	d002      	beq.n	80010b0 <HAL_Delay+0x14>
  {
    wait += (uint32_t)(uwTickFreq);
 80010aa:	4b04      	ldr	r3, [pc, #16]	@ (80010bc <HAL_Delay+0x20>)
 80010ac:	781b      	ldrb	r3, [r3, #0]
 80010ae:	18e4      	adds	r4, r4, r3
  }
  
  while((HAL_GetTick() - tickstart) < wait)
 80010b0:	f7ff ffee 	bl	8001090 <HAL_GetTick>
 80010b4:	1b40      	subs	r0, r0, r5
 80010b6:	42a0      	cmp	r0, r4
 80010b8:	d3fa      	bcc.n	80010b0 <HAL_Delay+0x14>
  {
  }
}
 80010ba:	bd70      	pop	{r4, r5, r6, pc}
 80010bc:	20000008 	.word	0x20000008

080010c0 <HAL_CAN_ErrorCallback>:
  * @brief  Error CAN callback.
  * @param  hcan pointer to a CAN_HandleTypeDef structure that contains
  *         the configuration information for the specified CAN.
  * @retval None
  */
__weak void HAL_CAN_ErrorCallback(CAN_HandleTypeDef *hcan)
 80010c0:	4770      	bx	lr

080010c2 <HAL_CAN_TxMailbox0CompleteCallback>:
__weak void HAL_CAN_TxMailbox0CompleteCallback(CAN_HandleTypeDef *hcan)
 80010c2:	4770      	bx	lr

080010c4 <HAL_CAN_TxMailbox1CompleteCallback>:
__weak void HAL_CAN_TxMailbox1CompleteCallback(CAN_HandleTypeDef *hcan)
 80010c4:	4770      	bx	lr

080010c6 <HAL_CAN_TxMailbox2CompleteCallback>:
__weak void HAL_CAN_TxMailbox2CompleteCallback(CAN_HandleTypeDef *hcan)
 80010c6:	4770      	bx	lr

080010c8 <HAL_CAN_TxMailbox0AbortCallback>:
__weak void HAL_CAN_TxMailbox0AbortCallback(CAN_HandleTypeDef *hcan)
 80010c8:	4770      	bx	lr

080010ca <HAL_CAN_TxMailbox1AbortCallback>:
__weak void HAL_CAN_TxMailbox1AbortCallback(CAN_HandleTypeDef *hcan)
 80010ca:	4770      	bx	lr

080010cc <HAL_CAN_TxMailbox2AbortCallback>:
__weak void HAL_CAN_TxMailbox2AbortCallback(CAN_HandleTypeDef *hcan)
 80010cc:	4770      	bx	lr

080010ce <HAL_CAN_RxFifo0FullCallback>:
__weak void HAL_CAN_RxFifo0FullCallback(CAN_HandleTypeDef *hcan)
 80010ce:	4770      	bx	lr

080010d0 <HAL_CAN_RxFifo1MsgPendingCallback>:
__weak void HAL_CAN_RxFifo1MsgPendingCallback(CAN_HandleTypeDef *hcan)
 80010d0:	4770      	bx	lr

080010d2 <HAL_CAN_RxFifo1FullCallback>:
__weak void HAL_CAN_RxFifo1FullCallback(CAN_HandleTypeDef *hcan)
 80010d2:	4770      	bx	lr

080010d4 <HAL_CAN_SleepCallback>:
__weak void HAL_CAN_SleepCallback(CAN_HandleTypeDef *hcan)
 80010d4:	4770      	bx	lr

080010d6 <HAL_CAN_WakeUpFromRxMsgCallback>:
__weak void HAL_CAN_WakeUpFromRxMsgCallback(CAN_HandleTypeDef *hcan)
 80010d6:	4770      	bx	lr

080010d8 <HAL_CAN_Init>:
{
 80010d8:	b5f8      	push	{r3, r4, r5, r6, r7, lr}
 80010da:	1e04      	subs	r4, r0, #0
  if (hcan == NULL)
 80010dc:	d100      	bne.n	80010e0 <HAL_CAN_Init+0x8>
 80010de:	e082      	b.n	80011e6 <HAL_CAN_Init+0x10e>
  if (hcan->State == HAL_CAN_STATE_RESET)
 80010e0:	1c45      	adds	r5, r0, #1
 80010e2:	7feb      	ldrb	r3, [r5, #31]
 80010e4:	2b00      	cmp	r3, #0
 80010e6:	d121      	bne.n	800112c <HAL_CAN_Init+0x54>
    hcan->RxFifo0MsgPendingCallback  =  HAL_CAN_RxFifo0MsgPendingCallback;  /* Legacy weak RxFifo0MsgPendingCallback  */
 80010e8:	4b4f      	ldr	r3, [pc, #316]	@ (8001228 <HAL_CAN_Init+0x150>)
 80010ea:	6403      	str	r3, [r0, #64]	@ 0x40
    hcan->RxFifo0FullCallback        =  HAL_CAN_RxFifo0FullCallback;        /* Legacy weak RxFifo0FullCallback        */
 80010ec:	4b4f      	ldr	r3, [pc, #316]	@ (800122c <HAL_CAN_Init+0x154>)
 80010ee:	6443      	str	r3, [r0, #68]	@ 0x44
    hcan->RxFifo1MsgPendingCallback  =  HAL_CAN_RxFifo1MsgPendingCallback;  /* Legacy weak RxFifo1MsgPendingCallback  */
 80010f0:	4b4f      	ldr	r3, [pc, #316]	@ (8001230 <HAL_CAN_Init+0x158>)
 80010f2:	6483      	str	r3, [r0, #72]	@ 0x48
    hcan->RxFifo1FullCallback        =  HAL_CAN_RxFifo1FullCallback;        /* Legacy weak RxFifo1FullCallback        */
 80010f4:	4b4f      	ldr	r3, [pc, #316]	@ (8001234 <HAL_CAN_Init+0x15c>)
 80010f6:	64c3      	str	r3, [r0, #76]	@ 0x4c
    hcan->TxMailbox0CompleteCallback =  HAL_CAN_TxMailbox0CompleteCallback; /* Legacy weak TxMailbox0CompleteCallback */
 80010f8:	4b4f      	ldr	r3, [pc, #316]	@ (8001238 <HAL_CAN_Init+0x160>)
 80010fa:	6283      	str	r3, [r0, #40]	@ 0x28
    hcan->TxMailbox1CompleteCallback =  HAL_CAN_TxMailbox1CompleteCallback; /* Legacy weak TxMailbox1CompleteCallback */
 80010fc:	4b4f      	ldr	r3, [pc, #316]	@ (800123c <HAL_CAN_Init+0x164>)
 80010fe:	62c3      	str	r3, [r0, #44]	@ 0x2c
    hcan->TxMailbox2CompleteCallback =  HAL_CAN_TxMailbox2CompleteCallback; /* Legacy weak TxMailbox2CompleteCallback */
 8001100:	4b4f      	ldr	r3, [pc, #316]	@ (8001240 <HAL_CAN_Init+0x168>)
 8001102:	6303      	str	r3, [r0, #48]	@ 0x30
    hcan->TxMailbox0AbortCallback    =  HAL_CAN_TxMailbox0AbortCallback;    /* Legacy weak TxMailbox0AbortCallback    */
 8001104:	4b4f      	ldr	r3, [pc, #316]	@ (8001244 <HAL_CAN_Init+0x16c>)
 8001106:	6343      	str	r3, [r0, #52]	@ 0x34
    hcan->TxMailbox1AbortCallback    =  HAL_CAN_TxMailbox1AbortCallback;    /* Legacy weak TxMailbox1AbortCallback    */
 8001108:	4b4f      	ldr	r3, [pc, #316]	@ (8001248 <HAL_CAN_Init+0x170>)
 800110a:	6383      	str	r3, [r0, #56]	@ 0x38
    hcan->TxMailbox2AbortCallback    =  HAL_CAN_TxMailbox2AbortCallback;    /* Legacy weak TxMailbox2AbortCallback    */
 800110c:	4b4f      	ldr	r3, [pc, #316]	@ (800124c <HAL_CAN_Init+0x174>)
 800110e:	63c3      	str	r3, [r0, #60]	@ 0x3c
    hcan->SleepCallback              =  HAL_CAN_SleepCallback;              /* Legacy weak SleepCallback              */
 8001110:	4b4f      	ldr	r3, [pc, #316]	@ (8001250 <HAL_CAN_Init+0x178>)
 8001112:	6503      	str	r3, [r0, #80]	@ 0x50
    hcan->WakeUpFromRxMsgCallback    =  HAL_CAN_WakeUpFromRxMsgCallback;    /* Legacy weak WakeUpFromRxMsgCallback    */
 8001114:	4b4f      	ldr	r3, [pc, #316]	@ (8001254 <HAL_CAN_Init+0x17c>)
 8001116:	6543      	str	r3, [r0, #84]	@ 0x54
    hcan->ErrorCallback              =  HAL_CAN_ErrorCallback;              /* Legacy weak ErrorCallback              */
 8001118:	4b4f      	ldr	r3, [pc, #316]	@ (8001258 <HAL_CAN_Init+0x180>)
 800111a:	6583      	str	r3, [r0, #88]	@ 0x58
    if (hcan->MspInitCallback == NULL)
 800111c:	6dc3      	ldr	r3, [r0, #92]	@ 0x5c
 800111e:	2b00      	cmp	r3, #0
 8001120:	d101      	bne.n	8001126 <HAL_CAN_Init+0x4e>
      hcan->MspInitCallback = HAL_CAN_MspInit; /* Legacy weak MspInit */
 8001122:	4b4e      	ldr	r3, [pc, #312]	@ (800125c <HAL_CAN_Init+0x184>)
 8001124:	65c3      	str	r3, [r0, #92]	@ 0x5c
    hcan->MspInitCallback(hcan);
 8001126:	0020      	movs	r0, r4
 8001128:	6de3      	ldr	r3, [r4, #92]	@ 0x5c
 800112a:	4798      	blx	r3
  SET_BIT(hcan->Instance->MCR, CAN_MCR_INRQ);
 800112c:	2701      	movs	r7, #1
 800112e:	6822      	ldr	r2, [r4, #0]
 8001130:	6813      	ldr	r3, [r2, #0]
 8001132:	433b      	orrs	r3, r7
 8001134:	6013      	str	r3, [r2, #0]
  tickstart = HAL_GetTick();
 8001136:	f7ff ffab 	bl	8001090 <HAL_GetTick>
 800113a:	0006      	movs	r6, r0
  while ((hcan->Instance->MSR & CAN_MSR_INAK) == 0U)
 800113c:	6823      	ldr	r3, [r4, #0]
 800113e:	685a      	ldr	r2, [r3, #4]
 8001140:	423a      	tst	r2, r7
 8001142:	d044      	beq.n	80011ce <HAL_CAN_Init+0xf6>
  CLEAR_BIT(hcan->Instance->MCR, CAN_MCR_SLEEP);
 8001144:	2702      	movs	r7, #2
 8001146:	681a      	ldr	r2, [r3, #0]
 8001148:	43ba      	bics	r2, r7
 800114a:	601a      	str	r2, [r3, #0]
  tickstart = HAL_GetTick();
 800114c:	f7ff ffa0 	bl	8001090 <HAL_GetTick>
 8001150:	0006      	movs	r6, r0
  while ((hcan->Instance->MSR & CAN_MSR_SLAK) != 0U)
 8001152:	6823      	ldr	r3, [r4, #0]
 8001154:	685a      	ldr	r2, [r3, #4]
 8001156:	423a      	tst	r2, r7
 8001158:	d147      	bne.n	80011ea <HAL_CAN_Init+0x112>
  if (hcan->Init.TimeTriggeredMode == ENABLE)
 800115a:	7e21      	ldrb	r1, [r4, #24]
 800115c:	2280      	movs	r2, #128	@ 0x80
 800115e:	2901      	cmp	r1, #1
 8001160:	d149      	bne.n	80011f6 <HAL_CAN_Init+0x11e>
    SET_BIT(hcan->Instance->MCR, CAN_MCR_TTCM);
 8001162:	6819      	ldr	r1, [r3, #0]
 8001164:	430a      	orrs	r2, r1
 8001166:	601a      	str	r2, [r3, #0]
  if (hcan->Init.AutoBusOff == ENABLE)
 8001168:	7e61      	ldrb	r1, [r4, #25]
 800116a:	2240      	movs	r2, #64	@ 0x40
 800116c:	2901      	cmp	r1, #1
 800116e:	d146      	bne.n	80011fe <HAL_CAN_Init+0x126>
    SET_BIT(hcan->Instance->MCR, CAN_MCR_ABOM);
 8001170:	6819      	ldr	r1, [r3, #0]
 8001172:	430a      	orrs	r2, r1
 8001174:	601a      	str	r2, [r3, #0]
  if (hcan->Init.AutoWakeUp == ENABLE)
 8001176:	7ea1      	ldrb	r1, [r4, #26]
 8001178:	2220      	movs	r2, #32
 800117a:	2901      	cmp	r1, #1
 800117c:	d143      	bne.n	8001206 <HAL_CAN_Init+0x12e>
    SET_BIT(hcan->Instance->MCR, CAN_MCR_AWUM);
 800117e:	6819      	ldr	r1, [r3, #0]
 8001180:	430a      	orrs	r2, r1
 8001182:	601a      	str	r2, [r3, #0]
  if (hcan->Init.AutoRetransmission == ENABLE)
 8001184:	7ee1      	ldrb	r1, [r4, #27]
 8001186:	2210      	movs	r2, #16
 8001188:	2901      	cmp	r1, #1
 800118a:	d140      	bne.n	800120e <HAL_CAN_Init+0x136>
    CLEAR_BIT(hcan->Instance->MCR, CAN_MCR_NART);
 800118c:	6819      	ldr	r1, [r3, #0]
 800118e:	4391      	bics	r1, r2
 8001190:	6019      	str	r1, [r3, #0]
  if (hcan->Init.ReceiveFifoLocked == ENABLE)
 8001192:	7f21      	ldrb	r1, [r4, #28]
 8001194:	2208      	movs	r2, #8
 8001196:	2901      	cmp	r1, #1
 8001198:	d13d      	bne.n	8001216 <HAL_CAN_Init+0x13e>
    SET_BIT(hcan->Instance->MCR, CAN_MCR_RFLM);
 800119a:	6819      	ldr	r1, [r3, #0]
 800119c:	430a      	orrs	r2, r1
 800119e:	601a      	str	r2, [r3, #0]
  if (hcan->Init.TransmitFifoPriority == ENABLE)
 80011a0:	7f61      	ldrb	r1, [r4, #29]
 80011a2:	2204      	movs	r2, #4
 80011a4:	2901      	cmp	r1, #1
 80011a6:	d13a      	bne.n	800121e <HAL_CAN_Init+0x146>
    SET_BIT(hcan->Instance->MCR, CAN_MCR_TXFP);
 80011a8:	6819      	ldr	r1, [r3, #0]
 80011aa:	430a      	orrs	r2, r1
 80011ac:	601a      	str	r2, [r3, #0]
  WRITE_REG(hcan->Instance->BTR, (uint32_t)(hcan->Init.Mode           |
 80011ae:	68e1      	ldr	r1, [r4, #12]
 80011b0:	68a2      	ldr	r2, [r4, #8]
  hcan->ErrorCode = HAL_CAN_ERROR_NONE;
 80011b2:	2000      	movs	r0, #0
  WRITE_REG(hcan->Instance->BTR, (uint32_t)(hcan->Init.Mode           |
 80011b4:	430a      	orrs	r2, r1
 80011b6:	6921      	ldr	r1, [r4, #16]
 80011b8:	430a      	orrs	r2, r1
 80011ba:	6961      	ldr	r1, [r4, #20]
 80011bc:	430a      	orrs	r2, r1
 80011be:	6861      	ldr	r1, [r4, #4]
 80011c0:	3901      	subs	r1, #1
 80011c2:	430a      	orrs	r2, r1
 80011c4:	61da      	str	r2, [r3, #28]
  hcan->State = HAL_CAN_STATE_READY;
 80011c6:	2301      	movs	r3, #1
  hcan->ErrorCode = HAL_CAN_ERROR_NONE;
 80011c8:	6260      	str	r0, [r4, #36]	@ 0x24
  hcan->State = HAL_CAN_STATE_READY;
 80011ca:	77eb      	strb	r3, [r5, #31]
  return HAL_OK;
 80011cc:	e00c      	b.n	80011e8 <HAL_CAN_Init+0x110>
    if ((HAL_GetTick() - tickstart) > CAN_TIMEOUT_VALUE)
 80011ce:	f7ff ff5f 	bl	8001090 <HAL_GetTick>
 80011d2:	1b80      	subs	r0, r0, r6
 80011d4:	280a      	cmp	r0, #10
 80011d6:	d9b1      	bls.n	800113c <HAL_CAN_Init+0x64>
      hcan->ErrorCode |= HAL_CAN_ERROR_TIMEOUT;
 80011d8:	2380      	movs	r3, #128	@ 0x80
 80011da:	6a62      	ldr	r2, [r4, #36]	@ 0x24
 80011dc:	029b      	lsls	r3, r3, #10
 80011de:	4313      	orrs	r3, r2
 80011e0:	6263      	str	r3, [r4, #36]	@ 0x24
      hcan->State = HAL_CAN_STATE_ERROR;
 80011e2:	2305      	movs	r3, #5
 80011e4:	77eb      	strb	r3, [r5, #31]
    return HAL_ERROR;
 80011e6:	2001      	movs	r0, #1
}
 80011e8:	bdf8      	pop	{r3, r4, r5, r6, r7, pc}
    if ((HAL_GetTick() - tickstart) > CAN_TIMEOUT_VALUE)
 80011ea:	f7ff ff51 	bl	8001090 <HAL_GetTick>
 80011ee:	1b80      	subs	r0, r0, r6
 80011f0:	280a      	cmp	r0, #10
 80011f2:	d9ae      	bls.n	8001152 <HAL_CAN_Init+0x7a>
 80011f4:	e7f0      	b.n	80011d8 <HAL_CAN_Init+0x100>
    CLEAR_BIT(hcan->Instance->MCR, CAN_MCR_TTCM);
 80011f6:	6819      	ldr	r1, [r3, #0]
 80011f8:	4391      	bics	r1, r2
 80011fa:	6019      	str	r1, [r3, #0]
 80011fc:	e7b4      	b.n	8001168 <HAL_CAN_Init+0x90>
    CLEAR_BIT(hcan->Instance->MCR, CAN_MCR_ABOM);
 80011fe:	6819      	ldr	r1, [r3, #0]
 8001200:	4391      	bics	r1, r2
 8001202:	6019      	str	r1, [r3, #0]
 8001204:	e7b7      	b.n	8001176 <HAL_CAN_Init+0x9e>
    CLEAR_BIT(hcan->Instance->MCR, CAN_MCR_AWUM);
 8001206:	6819      	ldr	r1, [r3, #0]
 8001208:	4391      	bics	r1, r2
 800120a:	6019      	str	r1, [r3, #0]
 800120c:	e7ba      	b.n	8001184 <HAL_CAN_Init+0xac>
    SET_BIT(hcan->Instance->MCR, CAN_MCR_NART);
 800120e:	6819      	ldr	r1, [r3, #0]
 8001210:	430a      	orrs	r2, r1
 8001212:	601a      	str	r2, [r3, #0]
 8001214:	e7bd      	b.n	8001192 <HAL_CAN_Init+0xba>
    CLEAR_BIT(hcan->Instance->MCR, CAN_MCR_RFLM);
 8001216:	6819      	ldr	r1, [r3, #0]
 8001218:	4391      	bics	r1, r2
 800121a:	6019      	str	r1, [r3, #0]
 800121c:	e7c0      	b.n	80011a0 <HAL_CAN_Init+0xc8>
    CLEAR_BIT(hcan->Instance->MCR, CAN_MCR_TXFP);
 800121e:	6819      	ldr	r1, [r3, #0]
 8001220:	4391      	bics	r1, r2
 8001222:	6019      	str	r1, [r3, #0]
 8001224:	e7c3      	b.n	80011ae <HAL_CAN_Init+0xd6>
 8001226:	46c0      	nop			@ (mov r8, r8)
 8001228:	08002d49 	.word	0x08002d49
 800122c:	080010cf 	.word	0x080010cf
 8001230:	080010d1 	.word	0x080010d1
 8001234:	080010d3 	.word	0x080010d3
 8001238:	080010c3 	.word	0x080010c3
 800123c:	080010c5 	.word	0x080010c5
 8001240:	080010c7 	.word	0x080010c7
 8001244:	080010c9 	.word	0x080010c9
 8001248:	080010cb 	.word	0x080010cb
 800124c:	080010cd 	.word	0x080010cd
 8001250:	080010d5 	.word	0x080010d5
 8001254:	080010d7 	.word	0x080010d7
 8001258:	080010c1 	.word	0x080010c1
 800125c:	0800047d 	.word	0x0800047d

08001260 <HAL_CAN_ConfigFilter>:
{
 8001260:	b570      	push	{r4, r5, r6, lr}
  HAL_CAN_StateTypeDef state = hcan->State;
 8001262:	1c42      	adds	r2, r0, #1
 8001264:	7fd2      	ldrb	r2, [r2, #31]
  CAN_TypeDef *can_ip = hcan->Instance;
 8001266:	6803      	ldr	r3, [r0, #0]
  if ((state == HAL_CAN_STATE_READY) ||
 8001268:	3a01      	subs	r2, #1
 800126a:	2a01      	cmp	r2, #1
 800126c:	d864      	bhi.n	8001338 <HAL_CAN_ConfigFilter+0xd8>
    SET_BIT(can_ip->FMR, CAN_FMR_FINIT);
 800126e:	2480      	movs	r4, #128	@ 0x80
 8001270:	2001      	movs	r0, #1
 8001272:	00a4      	lsls	r4, r4, #2
 8001274:	591a      	ldr	r2, [r3, r4]
    CLEAR_BIT(can_ip->FA1R, filternbrbitpos);
 8001276:	2687      	movs	r6, #135	@ 0x87
    SET_BIT(can_ip->FMR, CAN_FMR_FINIT);
 8001278:	4302      	orrs	r2, r0
 800127a:	511a      	str	r2, [r3, r4]
    filternbrbitpos = (uint32_t)1 << (sFilterConfig->FilterBank & 0x1FU);
 800127c:	694a      	ldr	r2, [r1, #20]
 800127e:	3ce2      	subs	r4, #226	@ 0xe2
 8001280:	3cff      	subs	r4, #255	@ 0xff
 8001282:	4014      	ands	r4, r2
 8001284:	40a0      	lsls	r0, r4
    CLEAR_BIT(can_ip->FA1R, filternbrbitpos);
 8001286:	00b6      	lsls	r6, r6, #2
 8001288:	599c      	ldr	r4, [r3, r6]
 800128a:	43c5      	mvns	r5, r0
 800128c:	4384      	bics	r4, r0
 800128e:	519c      	str	r4, [r3, r6]
    if (sFilterConfig->FilterScale == CAN_FILTERSCALE_16BIT)
 8001290:	69cc      	ldr	r4, [r1, #28]
 8001292:	2c00      	cmp	r4, #0
 8001294:	d135      	bne.n	8001302 <HAL_CAN_ConfigFilter+0xa2>
      CLEAR_BIT(can_ip->FS1R, filternbrbitpos);
 8001296:	3e10      	subs	r6, #16
 8001298:	599c      	ldr	r4, [r3, r6]
 800129a:	00d2      	lsls	r2, r2, #3
 800129c:	402c      	ands	r4, r5
 800129e:	519c      	str	r4, [r3, r6]
        ((0x0000FFFFU & (uint32_t)sFilterConfig->FilterMaskIdLow) << 16U) |
 80012a0:	68cc      	ldr	r4, [r1, #12]
        (0x0000FFFFU & (uint32_t)sFilterConfig->FilterIdLow);
 80012a2:	684e      	ldr	r6, [r1, #4]
        ((0x0000FFFFU & (uint32_t)sFilterConfig->FilterMaskIdLow) << 16U) |
 80012a4:	0424      	lsls	r4, r4, #16
        (0x0000FFFFU & (uint32_t)sFilterConfig->FilterIdLow);
 80012a6:	b2b6      	uxth	r6, r6
        ((0x0000FFFFU & (uint32_t)sFilterConfig->FilterMaskIdLow) << 16U) |
 80012a8:	4334      	orrs	r4, r6
      can_ip->sFilterRegister[sFilterConfig->FilterBank].FR1 =
 80012aa:	2690      	movs	r6, #144	@ 0x90
 80012ac:	189a      	adds	r2, r3, r2
 80012ae:	00b6      	lsls	r6, r6, #2
 80012b0:	5194      	str	r4, [r2, r6]
        ((0x0000FFFFU & (uint32_t)sFilterConfig->FilterMaskIdHigh) << 16U) |
 80012b2:	688c      	ldr	r4, [r1, #8]
        (0x0000FFFFU & (uint32_t)sFilterConfig->FilterIdHigh);
 80012b4:	680e      	ldr	r6, [r1, #0]
        ((0x0000FFFFU & (uint32_t)sFilterConfig->FilterMaskIdHigh) << 16U) |
 80012b6:	0424      	lsls	r4, r4, #16
        (0x0000FFFFU & (uint32_t)sFilterConfig->FilterMaskIdLow);
 80012b8:	b2b6      	uxth	r6, r6
        ((0x0000FFFFU & (uint32_t)sFilterConfig->FilterMaskIdHigh) << 16U) |
 80012ba:	4334      	orrs	r4, r6
      can_ip->sFilterRegister[sFilterConfig->FilterBank].FR2 =
 80012bc:	2691      	movs	r6, #145	@ 0x91
 80012be:	00b6      	lsls	r6, r6, #2
 80012c0:	5194      	str	r4, [r2, r6]
    if (sFilterConfig->FilterMode == CAN_FILTERMODE_IDMASK)
 80012c2:	2281      	movs	r2, #129	@ 0x81
 80012c4:	698c      	ldr	r4, [r1, #24]
 80012c6:	0092      	lsls	r2, r2, #2
 80012c8:	2c00      	cmp	r4, #0
 80012ca:	d12f      	bne.n	800132c <HAL_CAN_ConfigFilter+0xcc>
      CLEAR_BIT(can_ip->FM1R, filternbrbitpos);
 80012cc:	589c      	ldr	r4, [r3, r2]
 80012ce:	402c      	ands	r4, r5
      SET_BIT(can_ip->FM1R, filternbrbitpos);
 80012d0:	509c      	str	r4, [r3, r2]
    if (sFilterConfig->FilterFIFOAssignment == CAN_FILTER_FIFO0)
 80012d2:	2285      	movs	r2, #133	@ 0x85
 80012d4:	690c      	ldr	r4, [r1, #16]
 80012d6:	0092      	lsls	r2, r2, #2
 80012d8:	2c00      	cmp	r4, #0
 80012da:	d12a      	bne.n	8001332 <HAL_CAN_ConfigFilter+0xd2>
      CLEAR_BIT(can_ip->FFA1R, filternbrbitpos);
 80012dc:	589c      	ldr	r4, [r3, r2]
 80012de:	402c      	ands	r4, r5
      SET_BIT(can_ip->FFA1R, filternbrbitpos);
 80012e0:	509c      	str	r4, [r3, r2]
    if (sFilterConfig->FilterActivation == CAN_FILTER_ENABLE)
 80012e2:	6a0a      	ldr	r2, [r1, #32]
 80012e4:	2a01      	cmp	r2, #1
 80012e6:	d104      	bne.n	80012f2 <HAL_CAN_ConfigFilter+0x92>
      SET_BIT(can_ip->FA1R, filternbrbitpos);
 80012e8:	2187      	movs	r1, #135	@ 0x87
 80012ea:	0089      	lsls	r1, r1, #2
 80012ec:	585a      	ldr	r2, [r3, r1]
 80012ee:	4302      	orrs	r2, r0
 80012f0:	505a      	str	r2, [r3, r1]
    CLEAR_BIT(can_ip->FMR, CAN_FMR_FINIT);
 80012f2:	2180      	movs	r1, #128	@ 0x80
 80012f4:	2001      	movs	r0, #1
 80012f6:	0089      	lsls	r1, r1, #2
 80012f8:	585a      	ldr	r2, [r3, r1]
 80012fa:	4382      	bics	r2, r0
    return HAL_OK;
 80012fc:	2000      	movs	r0, #0
    CLEAR_BIT(can_ip->FMR, CAN_FMR_FINIT);
 80012fe:	505a      	str	r2, [r3, r1]
}
 8001300:	bd70      	pop	{r4, r5, r6, pc}
    if (sFilterConfig->FilterScale == CAN_FILTERSCALE_32BIT)
 8001302:	2c01      	cmp	r4, #1
 8001304:	d1dd      	bne.n	80012c2 <HAL_CAN_ConfigFilter+0x62>
      SET_BIT(can_ip->FS1R, filternbrbitpos);
 8001306:	2683      	movs	r6, #131	@ 0x83
 8001308:	00b6      	lsls	r6, r6, #2
 800130a:	599c      	ldr	r4, [r3, r6]
 800130c:	00d2      	lsls	r2, r2, #3
 800130e:	4304      	orrs	r4, r0
 8001310:	519c      	str	r4, [r3, r6]
        ((0x0000FFFFU & (uint32_t)sFilterConfig->FilterIdHigh) << 16U) |
 8001312:	680c      	ldr	r4, [r1, #0]
        (0x0000FFFFU & (uint32_t)sFilterConfig->FilterIdLow);
 8001314:	684e      	ldr	r6, [r1, #4]
        ((0x0000FFFFU & (uint32_t)sFilterConfig->FilterIdHigh) << 16U) |
 8001316:	0424      	lsls	r4, r4, #16
        (0x0000FFFFU & (uint32_t)sFilterConfig->FilterIdLow);
 8001318:	b2b6      	uxth	r6, r6
        ((0x0000FFFFU & (uint32_t)sFilterConfig->FilterIdHigh) << 16U) |
 800131a:	4334      	orrs	r4, r6
      can_ip->sFilterRegister[sFilterConfig->FilterBank].FR1 =
 800131c:	2690      	movs	r6, #144	@ 0x90
 800131e:	189a      	adds	r2, r3, r2
 8001320:	00b6      	lsls	r6, r6, #2
 8001322:	5194      	str	r4, [r2, r6]
        ((0x0000FFFFU & (uint32_t)sFilterConfig->FilterMaskIdHigh) << 16U) |
 8001324:	688c      	ldr	r4, [r1, #8]
        (0x0000FFFFU & (uint32_t)sFilterConfig->FilterMaskIdLow);
 8001326:	68ce      	ldr	r6, [r1, #12]
        ((0x0000FFFFU & (uint32_t)sFilterConfig->FilterMaskIdHigh) << 16U) |
 8001328:	0424      	lsls	r4, r4, #16
 800132a:	e7c5      	b.n	80012b8 <HAL_CAN_ConfigFilter+0x58>
      SET_BIT(can_ip->FM1R, filternbrbitpos);
 800132c:	589c      	ldr	r4, [r3, r2]
 800132e:	4304      	orrs	r4, r0
 8001330:	e7ce      	b.n	80012d0 <HAL_CAN_ConfigFilter+0x70>
      SET_BIT(can_ip->FFA1R, filternbrbitpos);
 8001332:	589c      	ldr	r4, [r3, r2]
 8001334:	4304      	orrs	r4, r0
 8001336:	e7d3      	b.n	80012e0 <HAL_CAN_ConfigFilter+0x80>
    hcan->ErrorCode |= HAL_CAN_ERROR_NOT_INITIALIZED;
 8001338:	2380      	movs	r3, #128	@ 0x80
 800133a:	6a42      	ldr	r2, [r0, #36]	@ 0x24
 800133c:	02db      	lsls	r3, r3, #11
 800133e:	4313      	orrs	r3, r2
 8001340:	6243      	str	r3, [r0, #36]	@ 0x24
    return HAL_ERROR;
 8001342:	2001      	movs	r0, #1
 8001344:	e7dc      	b.n	8001300 <HAL_CAN_ConfigFilter+0xa0>

08001346 <HAL_CAN_Start>:
{
 8001346:	b5f8      	push	{r3, r4, r5, r6, r7, lr}
  if (hcan->State == HAL_CAN_STATE_READY)
 8001348:	1c47      	adds	r7, r0, #1
 800134a:	7ffb      	ldrb	r3, [r7, #31]
{
 800134c:	0004      	movs	r4, r0
  if (hcan->State == HAL_CAN_STATE_READY)
 800134e:	b2dd      	uxtb	r5, r3
 8001350:	2b01      	cmp	r3, #1
 8001352:	d11e      	bne.n	8001392 <HAL_CAN_Start+0x4c>
    hcan->State = HAL_CAN_STATE_LISTENING;
 8001354:	3301      	adds	r3, #1
 8001356:	77fb      	strb	r3, [r7, #31]
    CLEAR_BIT(hcan->Instance->MCR, CAN_MCR_INRQ);
 8001358:	6802      	ldr	r2, [r0, #0]
 800135a:	6813      	ldr	r3, [r2, #0]
 800135c:	43ab      	bics	r3, r5
 800135e:	6013      	str	r3, [r2, #0]
    tickstart = HAL_GetTick();
 8001360:	f7ff fe96 	bl	8001090 <HAL_GetTick>
 8001364:	0006      	movs	r6, r0
    while ((hcan->Instance->MSR & CAN_MSR_INAK) != 0U)
 8001366:	6823      	ldr	r3, [r4, #0]
 8001368:	685b      	ldr	r3, [r3, #4]
 800136a:	0018      	movs	r0, r3
 800136c:	4028      	ands	r0, r5
 800136e:	422b      	tst	r3, r5
 8001370:	d101      	bne.n	8001376 <HAL_CAN_Start+0x30>
    hcan->ErrorCode = HAL_CAN_ERROR_NONE;
 8001372:	6260      	str	r0, [r4, #36]	@ 0x24
}
 8001374:	bdf8      	pop	{r3, r4, r5, r6, r7, pc}
      if ((HAL_GetTick() - tickstart) > CAN_TIMEOUT_VALUE)
 8001376:	f7ff fe8b 	bl	8001090 <HAL_GetTick>
 800137a:	1b80      	subs	r0, r0, r6
 800137c:	280a      	cmp	r0, #10
 800137e:	d9f2      	bls.n	8001366 <HAL_CAN_Start+0x20>
        hcan->ErrorCode |= HAL_CAN_ERROR_TIMEOUT;
 8001380:	2380      	movs	r3, #128	@ 0x80
 8001382:	6a62      	ldr	r2, [r4, #36]	@ 0x24
 8001384:	029b      	lsls	r3, r3, #10
 8001386:	4313      	orrs	r3, r2
 8001388:	6263      	str	r3, [r4, #36]	@ 0x24
        hcan->State = HAL_CAN_STATE_ERROR;
 800138a:	2305      	movs	r3, #5
 800138c:	77fb      	strb	r3, [r7, #31]
        return HAL_ERROR;
 800138e:	2001      	movs	r0, #1
 8001390:	e7f0      	b.n	8001374 <HAL_CAN_Start+0x2e>
    hcan->ErrorCode |= HAL_CAN_ERROR_NOT_READY;
 8001392:	2380      	movs	r3, #128	@ 0x80
 8001394:	6a42      	ldr	r2, [r0, #36]	@ 0x24
 8001396:	031b      	lsls	r3, r3, #12
 8001398:	4313      	orrs	r3, r2
 800139a:	6243      	str	r3, [r0, #36]	@ 0x24
    return HAL_ERROR;
 800139c:	e7f7      	b.n	800138e <HAL_CAN_Start+0x48>

0800139e <HAL_CAN_AddTxMessage>:
{
 800139e:	b5f0      	push	{r4, r5, r6, r7, lr}
  HAL_CAN_StateTypeDef state = hcan->State;
 80013a0:	1c44      	adds	r4, r0, #1
 80013a2:	7fe6      	ldrb	r6, [r4, #31]
  uint32_t tsr = READ_REG(hcan->Instance->TSR);
 80013a4:	6805      	ldr	r5, [r0, #0]
  if ((state == HAL_CAN_STATE_READY) ||
 80013a6:	3e01      	subs	r6, #1
  uint32_t tsr = READ_REG(hcan->Instance->TSR);
 80013a8:	68ac      	ldr	r4, [r5, #8]
  if ((state == HAL_CAN_STATE_READY) ||
 80013aa:	2e01      	cmp	r6, #1
 80013ac:	d850      	bhi.n	8001450 <HAL_CAN_AddTxMessage+0xb2>
        ((tsr & CAN_TSR_TME1) != 0U) ||
 80013ae:	26e0      	movs	r6, #224	@ 0xe0
 80013b0:	0576      	lsls	r6, r6, #21
    if (((tsr & CAN_TSR_TME0) != 0U) ||
 80013b2:	4234      	tst	r4, r6
 80013b4:	d045      	beq.n	8001442 <HAL_CAN_AddTxMessage+0xa4>
      transmitmailbox = (tsr & CAN_TSR_CODE) >> CAN_TSR_CODE_Pos;
 80013b6:	01a0      	lsls	r0, r4, #6
      *pTxMailbox = (uint32_t)1 << transmitmailbox;
 80013b8:	2401      	movs	r4, #1
      transmitmailbox = (tsr & CAN_TSR_CODE) >> CAN_TSR_CODE_Pos;
 80013ba:	0f80      	lsrs	r0, r0, #30
      *pTxMailbox = (uint32_t)1 << transmitmailbox;
 80013bc:	4084      	lsls	r4, r0
 80013be:	601c      	str	r4, [r3, #0]
      if (pHeader->IDE == CAN_ID_STD)
 80013c0:	0004      	movs	r4, r0
 80013c2:	688f      	ldr	r7, [r1, #8]
 80013c4:	68ce      	ldr	r6, [r1, #12]
 80013c6:	3418      	adds	r4, #24
 80013c8:	2f00      	cmp	r7, #0
 80013ca:	d135      	bne.n	8001438 <HAL_CAN_AddTxMessage+0x9a>
        hcan->Instance->sTxMailBox[transmitmailbox].TIR = ((pHeader->StdId << CAN_TI0R_STID_Pos) |
 80013cc:	680b      	ldr	r3, [r1, #0]
 80013ce:	055b      	lsls	r3, r3, #21
 80013d0:	4333      	orrs	r3, r6
        hcan->Instance->sTxMailBox[transmitmailbox].TIR = ((pHeader->ExtId << CAN_TI0R_EXID_Pos) |
 80013d2:	0124      	lsls	r4, r4, #4
 80013d4:	5163      	str	r3, [r4, r5]
      hcan->Instance->sTxMailBox[transmitmailbox].TDTR = (pHeader->DLC);
 80013d6:	23c2      	movs	r3, #194	@ 0xc2
 80013d8:	690e      	ldr	r6, [r1, #16]
 80013da:	0100      	lsls	r0, r0, #4
 80013dc:	182c      	adds	r4, r5, r0
 80013de:	005b      	lsls	r3, r3, #1
 80013e0:	50e6      	str	r6, [r4, r3]
      if (pHeader->TransmitGlobalTime == ENABLE)
 80013e2:	7d09      	ldrb	r1, [r1, #20]
 80013e4:	2901      	cmp	r1, #1
 80013e6:	d103      	bne.n	80013f0 <HAL_CAN_AddTxMessage+0x52>
        SET_BIT(hcan->Instance->sTxMailBox[transmitmailbox].TDTR, CAN_TDT0R_TGT);
 80013e8:	58e6      	ldr	r6, [r4, r3]
 80013ea:	31ff      	adds	r1, #255	@ 0xff
 80013ec:	4331      	orrs	r1, r6
 80013ee:	50e1      	str	r1, [r4, r3]
      WRITE_REG(hcan->Instance->sTxMailBox[transmitmailbox].TDHR,
 80013f0:	7951      	ldrb	r1, [r2, #5]
 80013f2:	7913      	ldrb	r3, [r2, #4]
 80013f4:	0209      	lsls	r1, r1, #8
 80013f6:	4319      	orrs	r1, r3
 80013f8:	7993      	ldrb	r3, [r2, #6]
 80013fa:	041b      	lsls	r3, r3, #16
 80013fc:	430b      	orrs	r3, r1
 80013fe:	79d1      	ldrb	r1, [r2, #7]
 8001400:	0609      	lsls	r1, r1, #24
 8001402:	4319      	orrs	r1, r3
 8001404:	182b      	adds	r3, r5, r0
 8001406:	0018      	movs	r0, r3
 8001408:	308d      	adds	r0, #141	@ 0x8d
 800140a:	30ff      	adds	r0, #255	@ 0xff
 800140c:	6001      	str	r1, [r0, #0]
      WRITE_REG(hcan->Instance->sTxMailBox[transmitmailbox].TDLR,
 800140e:	7850      	ldrb	r0, [r2, #1]
 8001410:	7811      	ldrb	r1, [r2, #0]
 8001412:	0200      	lsls	r0, r0, #8
 8001414:	4308      	orrs	r0, r1
 8001416:	7891      	ldrb	r1, [r2, #2]
 8001418:	78d2      	ldrb	r2, [r2, #3]
 800141a:	0409      	lsls	r1, r1, #16
 800141c:	4301      	orrs	r1, r0
 800141e:	0612      	lsls	r2, r2, #24
 8001420:	3389      	adds	r3, #137	@ 0x89
 8001422:	430a      	orrs	r2, r1
 8001424:	33ff      	adds	r3, #255	@ 0xff
 8001426:	601a      	str	r2, [r3, #0]
      SET_BIT(hcan->Instance->sTxMailBox[transmitmailbox].TIR, CAN_TI0R_TXRQ);
 8001428:	22c0      	movs	r2, #192	@ 0xc0
 800142a:	2301      	movs	r3, #1
      return HAL_OK;
 800142c:	2000      	movs	r0, #0
      SET_BIT(hcan->Instance->sTxMailBox[transmitmailbox].TIR, CAN_TI0R_TXRQ);
 800142e:	0052      	lsls	r2, r2, #1
 8001430:	58a1      	ldr	r1, [r4, r2]
 8001432:	430b      	orrs	r3, r1
 8001434:	50a3      	str	r3, [r4, r2]
}
 8001436:	bdf0      	pop	{r4, r5, r6, r7, pc}
        hcan->Instance->sTxMailBox[transmitmailbox].TIR = ((pHeader->ExtId << CAN_TI0R_EXID_Pos) |
 8001438:	684b      	ldr	r3, [r1, #4]
                                                           pHeader->IDE |
 800143a:	4337      	orrs	r7, r6
        hcan->Instance->sTxMailBox[transmitmailbox].TIR = ((pHeader->ExtId << CAN_TI0R_EXID_Pos) |
 800143c:	00db      	lsls	r3, r3, #3
                                                           pHeader->IDE |
 800143e:	433b      	orrs	r3, r7
 8001440:	e7c7      	b.n	80013d2 <HAL_CAN_AddTxMessage+0x34>
      hcan->ErrorCode |= HAL_CAN_ERROR_PARAM;
 8001442:	2380      	movs	r3, #128	@ 0x80
 8001444:	6a42      	ldr	r2, [r0, #36]	@ 0x24
 8001446:	039b      	lsls	r3, r3, #14
    hcan->ErrorCode |= HAL_CAN_ERROR_NOT_INITIALIZED;
 8001448:	4313      	orrs	r3, r2
 800144a:	6243      	str	r3, [r0, #36]	@ 0x24
      return HAL_ERROR;
 800144c:	2001      	movs	r0, #1
 800144e:	e7f2      	b.n	8001436 <HAL_CAN_AddTxMessage+0x98>
    hcan->ErrorCode |= HAL_CAN_ERROR_NOT_INITIALIZED;
 8001450:	2380      	movs	r3, #128	@ 0x80
 8001452:	6a42      	ldr	r2, [r0, #36]	@ 0x24
 8001454:	02db      	lsls	r3, r3, #11
 8001456:	e7f7      	b.n	8001448 <HAL_CAN_AddTxMessage+0xaa>

08001458 <HAL_CAN_GetTxMailboxesFreeLevel>:
  HAL_CAN_StateTypeDef state = hcan->State;
 8001458:	1c42      	adds	r2, r0, #1
 800145a:	7fd2      	ldrb	r2, [r2, #31]
{
 800145c:	0003      	movs	r3, r0
  if ((state == HAL_CAN_STATE_READY) ||
 800145e:	3a01      	subs	r2, #1
  uint32_t freelevel = 0U;
 8001460:	2000      	movs	r0, #0
  if ((state == HAL_CAN_STATE_READY) ||
 8001462:	2a01      	cmp	r2, #1
 8001464:	d80b      	bhi.n	800147e <HAL_CAN_GetTxMailboxesFreeLevel+0x26>
    if ((hcan->Instance->TSR & CAN_TSR_TME0) != 0U)
 8001466:	681a      	ldr	r2, [r3, #0]
 8001468:	6890      	ldr	r0, [r2, #8]
    if ((hcan->Instance->TSR & CAN_TSR_TME1) != 0U)
 800146a:	6893      	ldr	r3, [r2, #8]
    if ((hcan->Instance->TSR & CAN_TSR_TME0) != 0U)
 800146c:	0140      	lsls	r0, r0, #5
    if ((hcan->Instance->TSR & CAN_TSR_TME1) != 0U)
 800146e:	011b      	lsls	r3, r3, #4
      freelevel++;
 8001470:	0fdb      	lsrs	r3, r3, #31
    if ((hcan->Instance->TSR & CAN_TSR_TME0) != 0U)
 8001472:	0fc0      	lsrs	r0, r0, #31
      freelevel++;
 8001474:	18c0      	adds	r0, r0, r3
    if ((hcan->Instance->TSR & CAN_TSR_TME2) != 0U)
 8001476:	6893      	ldr	r3, [r2, #8]
 8001478:	00db      	lsls	r3, r3, #3
      freelevel++;
 800147a:	0fdb      	lsrs	r3, r3, #31
 800147c:	18c0      	adds	r0, r0, r3
}
 800147e:	4770      	bx	lr

08001480 <HAL_CAN_GetRxMessage>:
{
 8001480:	b5f7      	push	{r0, r1, r2, r4, r5, r6, r7, lr}
  HAL_CAN_StateTypeDef state = hcan->State;
 8001482:	1c44      	adds	r4, r0, #1
{
 8001484:	9101      	str	r1, [sp, #4]
  HAL_CAN_StateTypeDef state = hcan->State;
 8001486:	7fe4      	ldrb	r4, [r4, #31]
  if ((state == HAL_CAN_STATE_READY) ||
 8001488:	3c01      	subs	r4, #1
 800148a:	2c01      	cmp	r4, #1
 800148c:	d900      	bls.n	8001490 <HAL_CAN_GetRxMessage+0x10>
 800148e:	e07a      	b.n	8001586 <HAL_CAN_GetRxMessage+0x106>
    if (RxFifo == CAN_RX_FIFO0) /* Rx element is assigned to Rx FIFO 0 */
 8001490:	2403      	movs	r4, #3
      if ((hcan->Instance->RF0R & CAN_RF0R_FMP0) == 0U)
 8001492:	6805      	ldr	r5, [r0, #0]
    if (RxFifo == CAN_RX_FIFO0) /* Rx element is assigned to Rx FIFO 0 */
 8001494:	2900      	cmp	r1, #0
 8001496:	d109      	bne.n	80014ac <HAL_CAN_GetRxMessage+0x2c>
      if ((hcan->Instance->RF0R & CAN_RF0R_FMP0) == 0U)
 8001498:	68ee      	ldr	r6, [r5, #12]
      if ((hcan->Instance->RF1R & CAN_RF1R_FMP1) == 0U)
 800149a:	4226      	tst	r6, r4
 800149c:	d108      	bne.n	80014b0 <HAL_CAN_GetRxMessage+0x30>
        hcan->ErrorCode |= HAL_CAN_ERROR_PARAM;
 800149e:	2380      	movs	r3, #128	@ 0x80
 80014a0:	6a42      	ldr	r2, [r0, #36]	@ 0x24
 80014a2:	039b      	lsls	r3, r3, #14
 80014a4:	4313      	orrs	r3, r2
 80014a6:	6243      	str	r3, [r0, #36]	@ 0x24
        return HAL_ERROR;
 80014a8:	2001      	movs	r0, #1
}
 80014aa:	bdfe      	pop	{r1, r2, r3, r4, r5, r6, r7, pc}
      if ((hcan->Instance->RF1R & CAN_RF1R_FMP1) == 0U)
 80014ac:	692e      	ldr	r6, [r5, #16]
 80014ae:	e7f4      	b.n	800149a <HAL_CAN_GetRxMessage+0x1a>
    pHeader->IDE = CAN_RI0R_IDE & hcan->Instance->sFIFOMailBox[RxFifo].RIR;
 80014b0:	26d8      	movs	r6, #216	@ 0xd8
 80014b2:	9901      	ldr	r1, [sp, #4]
 80014b4:	0076      	lsls	r6, r6, #1
 80014b6:	010c      	lsls	r4, r1, #4
 80014b8:	2104      	movs	r1, #4
 80014ba:	192c      	adds	r4, r5, r4
 80014bc:	59a7      	ldr	r7, [r4, r6]
 80014be:	400f      	ands	r7, r1
 80014c0:	6097      	str	r7, [r2, #8]
    if (pHeader->IDE == CAN_ID_STD)
 80014c2:	d158      	bne.n	8001576 <HAL_CAN_GetRxMessage+0xf6>
      pHeader->StdId = (CAN_RI0R_STID & hcan->Instance->sFIFOMailBox[RxFifo].RIR) >> CAN_TI0R_STID_Pos;
 80014c4:	59a7      	ldr	r7, [r4, r6]
 80014c6:	0d7f      	lsrs	r7, r7, #21
 80014c8:	6017      	str	r7, [r2, #0]
    pHeader->RTR = (CAN_RI0R_RTR & hcan->Instance->sFIFOMailBox[RxFifo].RIR);
 80014ca:	2702      	movs	r7, #2
 80014cc:	59a6      	ldr	r6, [r4, r6]
 80014ce:	403e      	ands	r6, r7
 80014d0:	60d6      	str	r6, [r2, #12]
      pHeader->DLC = 8U;
 80014d2:	2608      	movs	r6, #8
    if (((CAN_RDT0R_DLC & hcan->Instance->sFIFOMailBox[RxFifo].RDTR) >> CAN_RDT0R_DLC_Pos) >= 8U)
 80014d4:	37b3      	adds	r7, #179	@ 0xb3
 80014d6:	37ff      	adds	r7, #255	@ 0xff
 80014d8:	59e1      	ldr	r1, [r4, r7]
 80014da:	4231      	tst	r1, r6
 80014dc:	d102      	bne.n	80014e4 <HAL_CAN_GetRxMessage+0x64>
      pHeader->DLC = (CAN_RDT0R_DLC & hcan->Instance->sFIFOMailBox[RxFifo].RDTR) >> CAN_RDT0R_DLC_Pos;
 80014de:	210f      	movs	r1, #15
 80014e0:	59e6      	ldr	r6, [r4, r7]
 80014e2:	400e      	ands	r6, r1
 80014e4:	6116      	str	r6, [r2, #16]
    pHeader->FilterMatchIndex = (CAN_RDT0R_FMI & hcan->Instance->sFIFOMailBox[RxFifo].RDTR) >> CAN_RDT0R_FMI_Pos;
 80014e6:	59e6      	ldr	r6, [r4, r7]
    pHeader->Timestamp = (CAN_RDT0R_TIME & hcan->Instance->sFIFOMailBox[RxFifo].RDTR) >> CAN_RDT0R_TIME_Pos;
 80014e8:	59e4      	ldr	r4, [r4, r7]
    pHeader->FilterMatchIndex = (CAN_RDT0R_FMI & hcan->Instance->sFIFOMailBox[RxFifo].RDTR) >> CAN_RDT0R_FMI_Pos;
 80014ea:	0a36      	lsrs	r6, r6, #8
    pHeader->Timestamp = (CAN_RDT0R_TIME & hcan->Instance->sFIFOMailBox[RxFifo].RDTR) >> CAN_RDT0R_TIME_Pos;
 80014ec:	0c24      	lsrs	r4, r4, #16
    pHeader->FilterMatchIndex = (CAN_RDT0R_FMI & hcan->Instance->sFIFOMailBox[RxFifo].RDTR) >> CAN_RDT0R_FMI_Pos;
 80014ee:	b2f6      	uxtb	r6, r6
    pHeader->Timestamp = (CAN_RDT0R_TIME & hcan->Instance->sFIFOMailBox[RxFifo].RDTR) >> CAN_RDT0R_TIME_Pos;
 80014f0:	6154      	str	r4, [r2, #20]
    pHeader->FilterMatchIndex = (CAN_RDT0R_FMI & hcan->Instance->sFIFOMailBox[RxFifo].RDTR) >> CAN_RDT0R_FMI_Pos;
 80014f2:	6196      	str	r6, [r2, #24]
    aData[0] = (uint8_t)((CAN_RDL0R_DATA0 & hcan->Instance->sFIFOMailBox[RxFifo].RDLR) >> CAN_RDL0R_DATA0_Pos);
 80014f4:	9a01      	ldr	r2, [sp, #4]
    if (RxFifo == CAN_RX_FIFO0) /* Rx element is assigned to Rx FIFO 0 */
 80014f6:	9901      	ldr	r1, [sp, #4]
    aData[0] = (uint8_t)((CAN_RDL0R_DATA0 & hcan->Instance->sFIFOMailBox[RxFifo].RDLR) >> CAN_RDL0R_DATA0_Pos);
 80014f8:	0112      	lsls	r2, r2, #4
 80014fa:	18ad      	adds	r5, r5, r2
 80014fc:	35b9      	adds	r5, #185	@ 0xb9
 80014fe:	35ff      	adds	r5, #255	@ 0xff
 8001500:	682c      	ldr	r4, [r5, #0]
 8001502:	701c      	strb	r4, [r3, #0]
    aData[1] = (uint8_t)((CAN_RDL0R_DATA1 & hcan->Instance->sFIFOMailBox[RxFifo].RDLR) >> CAN_RDL0R_DATA1_Pos);
 8001504:	6804      	ldr	r4, [r0, #0]
 8001506:	18a4      	adds	r4, r4, r2
 8001508:	34b9      	adds	r4, #185	@ 0xb9
 800150a:	34ff      	adds	r4, #255	@ 0xff
 800150c:	6824      	ldr	r4, [r4, #0]
 800150e:	0a24      	lsrs	r4, r4, #8
 8001510:	705c      	strb	r4, [r3, #1]
    aData[2] = (uint8_t)((CAN_RDL0R_DATA2 & hcan->Instance->sFIFOMailBox[RxFifo].RDLR) >> CAN_RDL0R_DATA2_Pos);
 8001512:	6804      	ldr	r4, [r0, #0]
 8001514:	18a4      	adds	r4, r4, r2
 8001516:	34b9      	adds	r4, #185	@ 0xb9
 8001518:	34ff      	adds	r4, #255	@ 0xff
 800151a:	6824      	ldr	r4, [r4, #0]
 800151c:	0c24      	lsrs	r4, r4, #16
 800151e:	709c      	strb	r4, [r3, #2]
    aData[3] = (uint8_t)((CAN_RDL0R_DATA3 & hcan->Instance->sFIFOMailBox[RxFifo].RDLR) >> CAN_RDL0R_DATA3_Pos);
 8001520:	6804      	ldr	r4, [r0, #0]
 8001522:	18a4      	adds	r4, r4, r2
 8001524:	34b9      	adds	r4, #185	@ 0xb9
 8001526:	34ff      	adds	r4, #255	@ 0xff
 8001528:	6824      	ldr	r4, [r4, #0]
 800152a:	0e24      	lsrs	r4, r4, #24
 800152c:	70dc      	strb	r4, [r3, #3]
    aData[4] = (uint8_t)((CAN_RDH0R_DATA4 & hcan->Instance->sFIFOMailBox[RxFifo].RDHR) >> CAN_RDH0R_DATA4_Pos);
 800152e:	6804      	ldr	r4, [r0, #0]
 8001530:	18a4      	adds	r4, r4, r2
 8001532:	34bd      	adds	r4, #189	@ 0xbd
 8001534:	34ff      	adds	r4, #255	@ 0xff
 8001536:	6824      	ldr	r4, [r4, #0]
 8001538:	711c      	strb	r4, [r3, #4]
    aData[5] = (uint8_t)((CAN_RDH0R_DATA5 & hcan->Instance->sFIFOMailBox[RxFifo].RDHR) >> CAN_RDH0R_DATA5_Pos);
 800153a:	6804      	ldr	r4, [r0, #0]
 800153c:	18a4      	adds	r4, r4, r2
 800153e:	34bd      	adds	r4, #189	@ 0xbd
 8001540:	34ff      	adds	r4, #255	@ 0xff
 8001542:	6824      	ldr	r4, [r4, #0]
 8001544:	0a24      	lsrs	r4, r4, #8
 8001546:	715c      	strb	r4, [r3, #5]
    aData[6] = (uint8_t)((CAN_RDH0R_DATA6 & hcan->Instance->sFIFOMailBox[RxFifo].RDHR) >> CAN_RDH0R_DATA6_Pos);
 8001548:	6804      	ldr	r4, [r0, #0]
 800154a:	18a4      	adds	r4, r4, r2
 800154c:	34bd      	adds	r4, #189	@ 0xbd
 800154e:	34ff      	adds	r4, #255	@ 0xff
 8001550:	6824      	ldr	r4, [r4, #0]
 8001552:	0c24      	lsrs	r4, r4, #16
 8001554:	719c      	strb	r4, [r3, #6]
    aData[7] = (uint8_t)((CAN_RDH0R_DATA7 & hcan->Instance->sFIFOMailBox[RxFifo].RDHR) >> CAN_RDH0R_DATA7_Pos);
 8001556:	6804      	ldr	r4, [r0, #0]
 8001558:	18a2      	adds	r2, r4, r2
 800155a:	32bd      	adds	r2, #189	@ 0xbd
 800155c:	32ff      	adds	r2, #255	@ 0xff
 800155e:	6812      	ldr	r2, [r2, #0]
 8001560:	0e12      	lsrs	r2, r2, #24
 8001562:	71da      	strb	r2, [r3, #7]
    if (RxFifo == CAN_RX_FIFO0) /* Rx element is assigned to Rx FIFO 0 */
 8001564:	6802      	ldr	r2, [r0, #0]
 8001566:	2320      	movs	r3, #32
 8001568:	2900      	cmp	r1, #0
 800156a:	d108      	bne.n	800157e <HAL_CAN_GetRxMessage+0xfe>
      SET_BIT(hcan->Instance->RF0R, CAN_RF0R_RFOM0);
 800156c:	68d1      	ldr	r1, [r2, #12]
 800156e:	430b      	orrs	r3, r1
 8001570:	60d3      	str	r3, [r2, #12]
    return HAL_OK;
 8001572:	2000      	movs	r0, #0
 8001574:	e799      	b.n	80014aa <HAL_CAN_GetRxMessage+0x2a>
                        hcan->Instance->sFIFOMailBox[RxFifo].RIR) >> CAN_RI0R_EXID_Pos;
 8001576:	59a7      	ldr	r7, [r4, r6]
 8001578:	08ff      	lsrs	r7, r7, #3
      pHeader->ExtId = ((CAN_RI0R_EXID | CAN_RI0R_STID) &
 800157a:	6057      	str	r7, [r2, #4]
 800157c:	e7a5      	b.n	80014ca <HAL_CAN_GetRxMessage+0x4a>
      SET_BIT(hcan->Instance->RF1R, CAN_RF1R_RFOM1);
 800157e:	6911      	ldr	r1, [r2, #16]
 8001580:	430b      	orrs	r3, r1
 8001582:	6113      	str	r3, [r2, #16]
 8001584:	e7f5      	b.n	8001572 <HAL_CAN_GetRxMessage+0xf2>
    hcan->ErrorCode |= HAL_CAN_ERROR_NOT_INITIALIZED;
 8001586:	2380      	movs	r3, #128	@ 0x80
 8001588:	6a42      	ldr	r2, [r0, #36]	@ 0x24
 800158a:	02db      	lsls	r3, r3, #11
 800158c:	e78a      	b.n	80014a4 <HAL_CAN_GetRxMessage+0x24>

0800158e <HAL_CAN_ActivateNotification>:
  HAL_CAN_StateTypeDef state = hcan->State;
 800158e:	1c42      	adds	r2, r0, #1
 8001590:	7fd2      	ldrb	r2, [r2, #31]
{
 8001592:	000b      	movs	r3, r1
  if ((state == HAL_CAN_STATE_READY) ||
 8001594:	3a01      	subs	r2, #1
 8001596:	2a01      	cmp	r2, #1
 8001598:	d805      	bhi.n	80015a6 <HAL_CAN_ActivateNotification+0x18>
    __HAL_CAN_ENABLE_IT(hcan, ActiveITs);
 800159a:	6802      	ldr	r2, [r0, #0]
    return HAL_OK;
 800159c:	2000      	movs	r0, #0
    __HAL_CAN_ENABLE_IT(hcan, ActiveITs);
 800159e:	6951      	ldr	r1, [r2, #20]
 80015a0:	4319      	orrs	r1, r3
 80015a2:	6151      	str	r1, [r2, #20]
}
 80015a4:	4770      	bx	lr
    hcan->ErrorCode |= HAL_CAN_ERROR_NOT_INITIALIZED;
 80015a6:	2380      	movs	r3, #128	@ 0x80
 80015a8:	6a42      	ldr	r2, [r0, #36]	@ 0x24
 80015aa:	02db      	lsls	r3, r3, #11
 80015ac:	4313      	orrs	r3, r2
 80015ae:	6243      	str	r3, [r0, #36]	@ 0x24
    return HAL_ERROR;
 80015b0:	2001      	movs	r0, #1
 80015b2:	e7f7      	b.n	80015a4 <HAL_CAN_ActivateNotification+0x16>

080015b4 <HAL_CAN_IRQHandler>:
{
 80015b4:	b5f0      	push	{r4, r5, r6, r7, lr}
  uint32_t interrupts = READ_REG(hcan->Instance->IER);
 80015b6:	6803      	ldr	r3, [r0, #0]
{
 80015b8:	b085      	sub	sp, #20
  uint32_t interrupts = READ_REG(hcan->Instance->IER);
 80015ba:	695e      	ldr	r6, [r3, #20]
  uint32_t msrflags = READ_REG(hcan->Instance->MSR);
 80015bc:	685a      	ldr	r2, [r3, #4]
  uint32_t tsrflags = READ_REG(hcan->Instance->TSR);
 80015be:	689f      	ldr	r7, [r3, #8]
  uint32_t msrflags = READ_REG(hcan->Instance->MSR);
 80015c0:	9201      	str	r2, [sp, #4]
  uint32_t rf0rflags = READ_REG(hcan->Instance->RF0R);
 80015c2:	68da      	ldr	r2, [r3, #12]
  if ((interrupts & CAN_IT_TX_MAILBOX_EMPTY) != 0U)
 80015c4:	0035      	movs	r5, r6
  uint32_t rf0rflags = READ_REG(hcan->Instance->RF0R);
 80015c6:	9202      	str	r2, [sp, #8]
  uint32_t rf1rflags = READ_REG(hcan->Instance->RF1R);
 80015c8:	691a      	ldr	r2, [r3, #16]
{
 80015ca:	0004      	movs	r4, r0
  uint32_t rf1rflags = READ_REG(hcan->Instance->RF1R);
 80015cc:	9203      	str	r2, [sp, #12]
  uint32_t esrflags = READ_REG(hcan->Instance->ESR);
 80015ce:	699a      	ldr	r2, [r3, #24]
 80015d0:	9200      	str	r2, [sp, #0]
  if ((interrupts & CAN_IT_TX_MAILBOX_EMPTY) != 0U)
 80015d2:	2201      	movs	r2, #1
 80015d4:	4015      	ands	r5, r2
 80015d6:	4216      	tst	r6, r2
 80015d8:	d03e      	beq.n	8001658 <HAL_CAN_IRQHandler+0xa4>
    if ((tsrflags & CAN_TSR_RQCP0) != 0U)
 80015da:	4217      	tst	r7, r2
 80015dc:	d005      	beq.n	80015ea <HAL_CAN_IRQHandler+0x36>
      __HAL_CAN_CLEAR_FLAG(hcan, CAN_FLAG_RQCP0);
 80015de:	609a      	str	r2, [r3, #8]
      if ((tsrflags & CAN_TSR_TXOK0) != 0U)
 80015e0:	07bb      	lsls	r3, r7, #30
 80015e2:	d50f      	bpl.n	8001604 <HAL_CAN_IRQHandler+0x50>
        hcan->TxMailbox0CompleteCallback(hcan);
 80015e4:	6a83      	ldr	r3, [r0, #40]	@ 0x28
 80015e6:	0020      	movs	r0, r4
 80015e8:	4798      	blx	r3
  uint32_t errorcode = HAL_CAN_ERROR_NONE;
 80015ea:	2500      	movs	r5, #0
    if ((tsrflags & CAN_TSR_RQCP1) != 0U)
 80015ec:	2380      	movs	r3, #128	@ 0x80
 80015ee:	005b      	lsls	r3, r3, #1
 80015f0:	421f      	tst	r7, r3
 80015f2:	d018      	beq.n	8001626 <HAL_CAN_IRQHandler+0x72>
      __HAL_CAN_CLEAR_FLAG(hcan, CAN_FLAG_RQCP1);
 80015f4:	6822      	ldr	r2, [r4, #0]
 80015f6:	6093      	str	r3, [r2, #8]
      if ((tsrflags & CAN_TSR_TXOK1) != 0U)
 80015f8:	05bb      	lsls	r3, r7, #22
 80015fa:	d50f      	bpl.n	800161c <HAL_CAN_IRQHandler+0x68>
        hcan->TxMailbox1CompleteCallback(hcan);
 80015fc:	6ae3      	ldr	r3, [r4, #44]	@ 0x2c
          hcan->TxMailbox1AbortCallback(hcan);
 80015fe:	0020      	movs	r0, r4
 8001600:	4798      	blx	r3
 8001602:	e010      	b.n	8001626 <HAL_CAN_IRQHandler+0x72>
        if ((tsrflags & CAN_TSR_ALST0) != 0U)
 8001604:	077b      	lsls	r3, r7, #29
 8001606:	d403      	bmi.n	8001610 <HAL_CAN_IRQHandler+0x5c>
        else if ((tsrflags & CAN_TSR_TERR0) != 0U)
 8001608:	073b      	lsls	r3, r7, #28
 800160a:	d404      	bmi.n	8001616 <HAL_CAN_IRQHandler+0x62>
          hcan->TxMailbox0AbortCallback(hcan);
 800160c:	6b43      	ldr	r3, [r0, #52]	@ 0x34
 800160e:	e7ea      	b.n	80015e6 <HAL_CAN_IRQHandler+0x32>
          errorcode |= HAL_CAN_ERROR_TX_ALST0;
 8001610:	2580      	movs	r5, #128	@ 0x80
 8001612:	012d      	lsls	r5, r5, #4
 8001614:	e7ea      	b.n	80015ec <HAL_CAN_IRQHandler+0x38>
          errorcode |= HAL_CAN_ERROR_TX_TERR0;
 8001616:	2580      	movs	r5, #128	@ 0x80
 8001618:	016d      	lsls	r5, r5, #5
 800161a:	e7e7      	b.n	80015ec <HAL_CAN_IRQHandler+0x38>
        if ((tsrflags & CAN_TSR_ALST1) != 0U)
 800161c:	057b      	lsls	r3, r7, #21
 800161e:	d50e      	bpl.n	800163e <HAL_CAN_IRQHandler+0x8a>
          errorcode |= HAL_CAN_ERROR_TX_ALST1;
 8001620:	2380      	movs	r3, #128	@ 0x80
 8001622:	019b      	lsls	r3, r3, #6
          errorcode |= HAL_CAN_ERROR_TX_TERR1;
 8001624:	431d      	orrs	r5, r3
    if ((tsrflags & CAN_TSR_RQCP2) != 0U)
 8001626:	2380      	movs	r3, #128	@ 0x80
 8001628:	025b      	lsls	r3, r3, #9
 800162a:	421f      	tst	r7, r3
 800162c:	d014      	beq.n	8001658 <HAL_CAN_IRQHandler+0xa4>
      __HAL_CAN_CLEAR_FLAG(hcan, CAN_FLAG_RQCP2);
 800162e:	6822      	ldr	r2, [r4, #0]
 8001630:	6093      	str	r3, [r2, #8]
      if ((tsrflags & CAN_TSR_TXOK2) != 0U)
 8001632:	03ba      	lsls	r2, r7, #14
 8001634:	d50a      	bpl.n	800164c <HAL_CAN_IRQHandler+0x98>
        hcan->TxMailbox2CompleteCallback(hcan);
 8001636:	6b23      	ldr	r3, [r4, #48]	@ 0x30
          hcan->TxMailbox2AbortCallback(hcan);
 8001638:	0020      	movs	r0, r4
 800163a:	4798      	blx	r3
 800163c:	e00c      	b.n	8001658 <HAL_CAN_IRQHandler+0xa4>
        else if ((tsrflags & CAN_TSR_TERR1) != 0U)
 800163e:	053b      	lsls	r3, r7, #20
 8001640:	d502      	bpl.n	8001648 <HAL_CAN_IRQHandler+0x94>
          errorcode |= HAL_CAN_ERROR_TX_TERR1;
 8001642:	2380      	movs	r3, #128	@ 0x80
 8001644:	01db      	lsls	r3, r3, #7
 8001646:	e7ed      	b.n	8001624 <HAL_CAN_IRQHandler+0x70>
          hcan->TxMailbox1AbortCallback(hcan);
 8001648:	6ba3      	ldr	r3, [r4, #56]	@ 0x38
 800164a:	e7d8      	b.n	80015fe <HAL_CAN_IRQHandler+0x4a>
        if ((tsrflags & CAN_TSR_ALST2) != 0U)
 800164c:	037a      	lsls	r2, r7, #13
 800164e:	d400      	bmi.n	8001652 <HAL_CAN_IRQHandler+0x9e>
 8001650:	e091      	b.n	8001776 <HAL_CAN_IRQHandler+0x1c2>
          errorcode |= HAL_CAN_ERROR_TX_ALST2;
 8001652:	2380      	movs	r3, #128	@ 0x80
 8001654:	021b      	lsls	r3, r3, #8
          errorcode |= HAL_CAN_ERROR_TX_TERR2;
 8001656:	431d      	orrs	r5, r3
  if ((interrupts & CAN_IT_RX_FIFO0_OVERRUN) != 0U)
 8001658:	0733      	lsls	r3, r6, #28
 800165a:	d508      	bpl.n	800166e <HAL_CAN_IRQHandler+0xba>
    if ((rf0rflags & CAN_RF0R_FOVR0) != 0U)
 800165c:	2310      	movs	r3, #16
 800165e:	9a02      	ldr	r2, [sp, #8]
 8001660:	421a      	tst	r2, r3
 8001662:	d004      	beq.n	800166e <HAL_CAN_IRQHandler+0xba>
      errorcode |= HAL_CAN_ERROR_RX_FOV0;
 8001664:	2280      	movs	r2, #128	@ 0x80
 8001666:	0092      	lsls	r2, r2, #2
 8001668:	4315      	orrs	r5, r2
      __HAL_CAN_CLEAR_FLAG(hcan, CAN_FLAG_FOV0);
 800166a:	6822      	ldr	r2, [r4, #0]
 800166c:	60d3      	str	r3, [r2, #12]
  if ((interrupts & CAN_IT_RX_FIFO0_FULL) != 0U)
 800166e:	0773      	lsls	r3, r6, #29
 8001670:	d508      	bpl.n	8001684 <HAL_CAN_IRQHandler+0xd0>
    if ((rf0rflags & CAN_RF0R_FULL0) != 0U)
 8001672:	2308      	movs	r3, #8
 8001674:	9a02      	ldr	r2, [sp, #8]
 8001676:	421a      	tst	r2, r3
 8001678:	d004      	beq.n	8001684 <HAL_CAN_IRQHandler+0xd0>
      __HAL_CAN_CLEAR_FLAG(hcan, CAN_FLAG_FF0);
 800167a:	6822      	ldr	r2, [r4, #0]
      hcan->RxFifo0FullCallback(hcan);
 800167c:	0020      	movs	r0, r4
      __HAL_CAN_CLEAR_FLAG(hcan, CAN_FLAG_FF0);
 800167e:	60d3      	str	r3, [r2, #12]
      hcan->RxFifo0FullCallback(hcan);
 8001680:	6c63      	ldr	r3, [r4, #68]	@ 0x44
 8001682:	4798      	blx	r3
  if ((interrupts & CAN_IT_RX_FIFO0_MSG_PENDING) != 0U)
 8001684:	07b3      	lsls	r3, r6, #30
 8001686:	d506      	bpl.n	8001696 <HAL_CAN_IRQHandler+0xe2>
    if ((hcan->Instance->RF0R & CAN_RF0R_FMP0) != 0U)
 8001688:	6823      	ldr	r3, [r4, #0]
 800168a:	68db      	ldr	r3, [r3, #12]
 800168c:	079b      	lsls	r3, r3, #30
 800168e:	d002      	beq.n	8001696 <HAL_CAN_IRQHandler+0xe2>
      hcan->RxFifo0MsgPendingCallback(hcan);
 8001690:	0020      	movs	r0, r4
 8001692:	6c23      	ldr	r3, [r4, #64]	@ 0x40
 8001694:	4798      	blx	r3
  if ((interrupts & CAN_IT_RX_FIFO1_OVERRUN) != 0U)
 8001696:	0673      	lsls	r3, r6, #25
 8001698:	d508      	bpl.n	80016ac <HAL_CAN_IRQHandler+0xf8>
    if ((rf1rflags & CAN_RF1R_FOVR1) != 0U)
 800169a:	2310      	movs	r3, #16
 800169c:	9a03      	ldr	r2, [sp, #12]
 800169e:	421a      	tst	r2, r3
 80016a0:	d004      	beq.n	80016ac <HAL_CAN_IRQHandler+0xf8>
      errorcode |= HAL_CAN_ERROR_RX_FOV1;
 80016a2:	2280      	movs	r2, #128	@ 0x80
 80016a4:	00d2      	lsls	r2, r2, #3
 80016a6:	4315      	orrs	r5, r2
      __HAL_CAN_CLEAR_FLAG(hcan, CAN_FLAG_FOV1);
 80016a8:	6822      	ldr	r2, [r4, #0]
 80016aa:	6113      	str	r3, [r2, #16]
  if ((interrupts & CAN_IT_RX_FIFO1_FULL) != 0U)
 80016ac:	06b3      	lsls	r3, r6, #26
 80016ae:	d508      	bpl.n	80016c2 <HAL_CAN_IRQHandler+0x10e>
    if ((rf1rflags & CAN_RF1R_FULL1) != 0U)
 80016b0:	2308      	movs	r3, #8
 80016b2:	9a03      	ldr	r2, [sp, #12]
 80016b4:	421a      	tst	r2, r3
 80016b6:	d004      	beq.n	80016c2 <HAL_CAN_IRQHandler+0x10e>
      __HAL_CAN_CLEAR_FLAG(hcan, CAN_FLAG_FF1);
 80016b8:	6822      	ldr	r2, [r4, #0]
      hcan->RxFifo1FullCallback(hcan);
 80016ba:	0020      	movs	r0, r4
      __HAL_CAN_CLEAR_FLAG(hcan, CAN_FLAG_FF1);
 80016bc:	6113      	str	r3, [r2, #16]
      hcan->RxFifo1FullCallback(hcan);
 80016be:	6ce3      	ldr	r3, [r4, #76]	@ 0x4c
 80016c0:	4798      	blx	r3
  if ((interrupts & CAN_IT_RX_FIFO1_MSG_PENDING) != 0U)
 80016c2:	06f3      	lsls	r3, r6, #27
 80016c4:	d506      	bpl.n	80016d4 <HAL_CAN_IRQHandler+0x120>
    if ((hcan->Instance->RF1R & CAN_RF1R_FMP1) != 0U)
 80016c6:	6823      	ldr	r3, [r4, #0]
 80016c8:	691b      	ldr	r3, [r3, #16]
 80016ca:	079b      	lsls	r3, r3, #30
 80016cc:	d002      	beq.n	80016d4 <HAL_CAN_IRQHandler+0x120>
      hcan->RxFifo1MsgPendingCallback(hcan);
 80016ce:	0020      	movs	r0, r4
 80016d0:	6ca3      	ldr	r3, [r4, #72]	@ 0x48
 80016d2:	4798      	blx	r3
  if ((interrupts & CAN_IT_SLEEP_ACK) != 0U)
 80016d4:	03b3      	lsls	r3, r6, #14
 80016d6:	d508      	bpl.n	80016ea <HAL_CAN_IRQHandler+0x136>
    if ((msrflags & CAN_MSR_SLAKI) != 0U)
 80016d8:	2310      	movs	r3, #16
 80016da:	9a01      	ldr	r2, [sp, #4]
 80016dc:	421a      	tst	r2, r3
 80016de:	d004      	beq.n	80016ea <HAL_CAN_IRQHandler+0x136>
      __HAL_CAN_CLEAR_FLAG(hcan, CAN_FLAG_SLAKI);
 80016e0:	6822      	ldr	r2, [r4, #0]
      hcan->SleepCallback(hcan);
 80016e2:	0020      	movs	r0, r4
      __HAL_CAN_CLEAR_FLAG(hcan, CAN_FLAG_SLAKI);
 80016e4:	6053      	str	r3, [r2, #4]
      hcan->SleepCallback(hcan);
 80016e6:	6d23      	ldr	r3, [r4, #80]	@ 0x50
 80016e8:	4798      	blx	r3
  if ((interrupts & CAN_IT_WAKEUP) != 0U)
 80016ea:	03f3      	lsls	r3, r6, #15
 80016ec:	d508      	bpl.n	8001700 <HAL_CAN_IRQHandler+0x14c>
    if ((msrflags & CAN_MSR_WKUI) != 0U)
 80016ee:	2308      	movs	r3, #8
 80016f0:	9a01      	ldr	r2, [sp, #4]
 80016f2:	421a      	tst	r2, r3
 80016f4:	d004      	beq.n	8001700 <HAL_CAN_IRQHandler+0x14c>
      __HAL_CAN_CLEAR_FLAG(hcan, CAN_FLAG_WKU);
 80016f6:	6822      	ldr	r2, [r4, #0]
      hcan->WakeUpFromRxMsgCallback(hcan);
 80016f8:	0020      	movs	r0, r4
      __HAL_CAN_CLEAR_FLAG(hcan, CAN_FLAG_WKU);
 80016fa:	6053      	str	r3, [r2, #4]
      hcan->WakeUpFromRxMsgCallback(hcan);
 80016fc:	6d63      	ldr	r3, [r4, #84]	@ 0x54
 80016fe:	4798      	blx	r3
  if ((interrupts & CAN_IT_ERROR) != 0U)
 8001700:	0433      	lsls	r3, r6, #16
 8001702:	d52e      	bpl.n	8001762 <HAL_CAN_IRQHandler+0x1ae>
    if ((msrflags & CAN_MSR_ERRI) != 0U)
 8001704:	9b01      	ldr	r3, [sp, #4]
 8001706:	6822      	ldr	r2, [r4, #0]
 8001708:	075b      	lsls	r3, r3, #29
 800170a:	d528      	bpl.n	800175e <HAL_CAN_IRQHandler+0x1aa>
      if (((interrupts & CAN_IT_ERROR_WARNING) != 0U) &&
 800170c:	05f3      	lsls	r3, r6, #23
 800170e:	d503      	bpl.n	8001718 <HAL_CAN_IRQHandler+0x164>
 8001710:	2301      	movs	r3, #1
 8001712:	9900      	ldr	r1, [sp, #0]
 8001714:	400b      	ands	r3, r1
 8001716:	431d      	orrs	r5, r3
      if (((interrupts & CAN_IT_ERROR_PASSIVE) != 0U) &&
 8001718:	05b3      	lsls	r3, r6, #22
 800171a:	d504      	bpl.n	8001726 <HAL_CAN_IRQHandler+0x172>
          ((esrflags & CAN_ESR_EPVF) != 0U))
 800171c:	2302      	movs	r3, #2
      if (((interrupts & CAN_IT_ERROR_PASSIVE) != 0U) &&
 800171e:	9900      	ldr	r1, [sp, #0]
 8001720:	4219      	tst	r1, r3
 8001722:	d000      	beq.n	8001726 <HAL_CAN_IRQHandler+0x172>
        errorcode |= HAL_CAN_ERROR_EPV;
 8001724:	431d      	orrs	r5, r3
      if (((interrupts & CAN_IT_BUSOFF) != 0U) &&
 8001726:	0573      	lsls	r3, r6, #21
 8001728:	d504      	bpl.n	8001734 <HAL_CAN_IRQHandler+0x180>
          ((esrflags & CAN_ESR_BOFF) != 0U))
 800172a:	2304      	movs	r3, #4
      if (((interrupts & CAN_IT_BUSOFF) != 0U) &&
 800172c:	9900      	ldr	r1, [sp, #0]
 800172e:	4219      	tst	r1, r3
 8001730:	d000      	beq.n	8001734 <HAL_CAN_IRQHandler+0x180>
        errorcode |= HAL_CAN_ERROR_BOF;
 8001732:	431d      	orrs	r5, r3
      if (((interrupts & CAN_IT_LAST_ERROR_CODE) != 0U) &&
 8001734:	0536      	lsls	r6, r6, #20
 8001736:	d512      	bpl.n	800175e <HAL_CAN_IRQHandler+0x1aa>
          ((esrflags & CAN_ESR_LEC) != 0U))
 8001738:	2170      	movs	r1, #112	@ 0x70
 800173a:	9b00      	ldr	r3, [sp, #0]
      if (((interrupts & CAN_IT_LAST_ERROR_CODE) != 0U) &&
 800173c:	9800      	ldr	r0, [sp, #0]
          ((esrflags & CAN_ESR_LEC) != 0U))
 800173e:	400b      	ands	r3, r1
      if (((interrupts & CAN_IT_LAST_ERROR_CODE) != 0U) &&
 8001740:	4208      	tst	r0, r1
 8001742:	d00c      	beq.n	800175e <HAL_CAN_IRQHandler+0x1aa>
        switch (esrflags & CAN_ESR_LEC)
 8001744:	2b40      	cmp	r3, #64	@ 0x40
 8001746:	d023      	beq.n	8001790 <HAL_CAN_IRQHandler+0x1dc>
 8001748:	d81a      	bhi.n	8001780 <HAL_CAN_IRQHandler+0x1cc>
 800174a:	2b20      	cmp	r3, #32
 800174c:	d022      	beq.n	8001794 <HAL_CAN_IRQHandler+0x1e0>
 800174e:	2b30      	cmp	r3, #48	@ 0x30
 8001750:	d022      	beq.n	8001798 <HAL_CAN_IRQHandler+0x1e4>
 8001752:	2b10      	cmp	r3, #16
 8001754:	d01b      	beq.n	800178e <HAL_CAN_IRQHandler+0x1da>
        CLEAR_BIT(hcan->Instance->ESR, CAN_ESR_LEC);
 8001756:	2170      	movs	r1, #112	@ 0x70
 8001758:	6993      	ldr	r3, [r2, #24]
 800175a:	438b      	bics	r3, r1
 800175c:	6193      	str	r3, [r2, #24]
    __HAL_CAN_CLEAR_FLAG(hcan, CAN_FLAG_ERRI);
 800175e:	2304      	movs	r3, #4
 8001760:	6053      	str	r3, [r2, #4]
  if (errorcode != HAL_CAN_ERROR_NONE)
 8001762:	2d00      	cmp	r5, #0
 8001764:	d005      	beq.n	8001772 <HAL_CAN_IRQHandler+0x1be>
    hcan->ErrorCode |= errorcode;
 8001766:	6a63      	ldr	r3, [r4, #36]	@ 0x24
    hcan->ErrorCallback(hcan);
 8001768:	0020      	movs	r0, r4
    hcan->ErrorCode |= errorcode;
 800176a:	432b      	orrs	r3, r5
 800176c:	6263      	str	r3, [r4, #36]	@ 0x24
    hcan->ErrorCallback(hcan);
 800176e:	6da3      	ldr	r3, [r4, #88]	@ 0x58
 8001770:	4798      	blx	r3
}
 8001772:	b005      	add	sp, #20
 8001774:	bdf0      	pop	{r4, r5, r6, r7, pc}
        else if ((tsrflags & CAN_TSR_TERR2) != 0U)
 8001776:	033f      	lsls	r7, r7, #12
 8001778:	d500      	bpl.n	800177c <HAL_CAN_IRQHandler+0x1c8>
 800177a:	e76c      	b.n	8001656 <HAL_CAN_IRQHandler+0xa2>
          hcan->TxMailbox2AbortCallback(hcan);
 800177c:	6be3      	ldr	r3, [r4, #60]	@ 0x3c
 800177e:	e75b      	b.n	8001638 <HAL_CAN_IRQHandler+0x84>
        switch (esrflags & CAN_ESR_LEC)
 8001780:	2b50      	cmp	r3, #80	@ 0x50
 8001782:	d00b      	beq.n	800179c <HAL_CAN_IRQHandler+0x1e8>
 8001784:	2b60      	cmp	r3, #96	@ 0x60
 8001786:	d1e6      	bne.n	8001756 <HAL_CAN_IRQHandler+0x1a2>
            errorcode |= HAL_CAN_ERROR_CRC;
 8001788:	2380      	movs	r3, #128	@ 0x80
 800178a:	005b      	lsls	r3, r3, #1
 800178c:	e000      	b.n	8001790 <HAL_CAN_IRQHandler+0x1dc>
            errorcode |= HAL_CAN_ERROR_STF;
 800178e:	2308      	movs	r3, #8
            errorcode |= HAL_CAN_ERROR_CRC;
 8001790:	431d      	orrs	r5, r3
            break;
 8001792:	e7e0      	b.n	8001756 <HAL_CAN_IRQHandler+0x1a2>
            errorcode |= HAL_CAN_ERROR_FOR;
 8001794:	2310      	movs	r3, #16
 8001796:	e7fb      	b.n	8001790 <HAL_CAN_IRQHandler+0x1dc>
            errorcode |= HAL_CAN_ERROR_ACK;
 8001798:	2320      	movs	r3, #32
 800179a:	e7f9      	b.n	8001790 <HAL_CAN_IRQHandler+0x1dc>
            errorcode |= HAL_CAN_ERROR_BD;
 800179c:	2380      	movs	r3, #128	@ 0x80
 800179e:	e7f7      	b.n	8001790 <HAL_CAN_IRQHandler+0x1dc>

080017a0 <HAL_NVIC_SetPriority>:
  *         with stm32f0xx devices, this parameter is a dummy value and it is ignored, because 
  *         no subpriority supported in Cortex M0 based products.   
  * @retval None
  */
void HAL_NVIC_SetPriority(IRQn_Type IRQn, uint32_t PreemptPriority, uint32_t SubPriority)
{
 80017a0:	b510      	push	{r4, lr}
 */
__STATIC_INLINE void __NVIC_SetPriority(IRQn_Type IRQn, uint32_t priority)
{
  if ((int32_t)(IRQn) >= 0)
  {
    NVIC->IP[_IP_IDX(IRQn)]  = ((uint32_t)(NVIC->IP[_IP_IDX(IRQn)]  & ~(0xFFUL << _BIT_SHIFT(IRQn))) |
 80017a2:	24ff      	movs	r4, #255	@ 0xff
 80017a4:	2203      	movs	r2, #3
 80017a6:	000b      	movs	r3, r1
 80017a8:	0021      	movs	r1, r4
 80017aa:	4002      	ands	r2, r0
 80017ac:	00d2      	lsls	r2, r2, #3
 80017ae:	4091      	lsls	r1, r2
       (((priority << (8U - __NVIC_PRIO_BITS)) & (uint32_t)0xFFUL) << _BIT_SHIFT(IRQn)));
 80017b0:	019b      	lsls	r3, r3, #6
 80017b2:	4023      	ands	r3, r4
    NVIC->IP[_IP_IDX(IRQn)]  = ((uint32_t)(NVIC->IP[_IP_IDX(IRQn)]  & ~(0xFFUL << _BIT_SHIFT(IRQn))) |
 80017b4:	43c9      	mvns	r1, r1
       (((priority << (8U - __NVIC_PRIO_BITS)) & (uint32_t)0xFFUL) << _BIT_SHIFT(IRQn)));
 80017b6:	4093      	lsls	r3, r2
  if ((int32_t)(IRQn) >= 0)
 80017b8:	2800      	cmp	r0, #0
 80017ba:	db0a      	blt.n	80017d2 <HAL_NVIC_SetPriority+0x32>
    NVIC->IP[_IP_IDX(IRQn)]  = ((uint32_t)(NVIC->IP[_IP_IDX(IRQn)]  & ~(0xFFUL << _BIT_SHIFT(IRQn))) |
 80017bc:	24c0      	movs	r4, #192	@ 0xc0
 80017be:	4a0b      	ldr	r2, [pc, #44]	@ (80017ec <HAL_NVIC_SetPriority+0x4c>)
 80017c0:	0880      	lsrs	r0, r0, #2
 80017c2:	0080      	lsls	r0, r0, #2
 80017c4:	1880      	adds	r0, r0, r2
 80017c6:	00a4      	lsls	r4, r4, #2
 80017c8:	5902      	ldr	r2, [r0, r4]
 80017ca:	400a      	ands	r2, r1
 80017cc:	4313      	orrs	r3, r2
 80017ce:	5103      	str	r3, [r0, r4]
  assert_param(IS_NVIC_PREEMPTION_PRIORITY(PreemptPriority));
  NVIC_SetPriority(IRQn,PreemptPriority);

  /* Prevent unused argument(s) compilation warning */
  UNUSED(SubPriority);
}
 80017d0:	bd10      	pop	{r4, pc}
  }
  else
  {
    SCB->SHP[_SHP_IDX(IRQn)] = ((uint32_t)(SCB->SHP[_SHP_IDX(IRQn)] & ~(0xFFUL << _BIT_SHIFT(IRQn))) |
 80017d2:	220f      	movs	r2, #15
 80017d4:	4010      	ands	r0, r2
 80017d6:	3808      	subs	r0, #8
 80017d8:	4a05      	ldr	r2, [pc, #20]	@ (80017f0 <HAL_NVIC_SetPriority+0x50>)
 80017da:	0880      	lsrs	r0, r0, #2
 80017dc:	0080      	lsls	r0, r0, #2
 80017de:	1880      	adds	r0, r0, r2
 80017e0:	69c2      	ldr	r2, [r0, #28]
 80017e2:	4011      	ands	r1, r2
 80017e4:	4319      	orrs	r1, r3
 80017e6:	61c1      	str	r1, [r0, #28]
 80017e8:	e7f2      	b.n	80017d0 <HAL_NVIC_SetPriority+0x30>
 80017ea:	46c0      	nop			@ (mov r8, r8)
 80017ec:	e000e100 	.word	0xe000e100
 80017f0:	e000ed00 	.word	0xe000ed00

080017f4 <HAL_NVIC_EnableIRQ>:
  if ((int32_t)(IRQn) >= 0)
 80017f4:	2800      	cmp	r0, #0
 80017f6:	db05      	blt.n	8001804 <HAL_NVIC_EnableIRQ+0x10>
    NVIC->ISER[0U] = (uint32_t)(1UL << (((uint32_t)IRQn) & 0x1FUL));
 80017f8:	231f      	movs	r3, #31
 80017fa:	4018      	ands	r0, r3
 80017fc:	3b1e      	subs	r3, #30
 80017fe:	4083      	lsls	r3, r0
 8001800:	4a01      	ldr	r2, [pc, #4]	@ (8001808 <HAL_NVIC_EnableIRQ+0x14>)
 8001802:	6013      	str	r3, [r2, #0]
  /* Check the parameters */
  assert_param(IS_NVIC_DEVICE_IRQ(IRQn));
  
  /* Enable interrupt */
  NVIC_EnableIRQ(IRQn);
}
 8001804:	4770      	bx	lr
 8001806:	46c0      	nop			@ (mov r8, r8)
 8001808:	e000e100 	.word	0xe000e100

0800180c <HAL_SYSTICK_Config>:
           function <b>SysTick_Config</b> is not included. In this case, the file <b><i>device</i>.h</b>
           must contain a vendor-specific implementation of this function.
 */
__STATIC_INLINE uint32_t SysTick_Config(uint32_t ticks)
{
  if ((ticks - 1UL) > SysTick_LOAD_RELOAD_Msk)
 800180c:	2280      	movs	r2, #128	@ 0x80
 800180e:	1e43      	subs	r3, r0, #1
 8001810:	0452      	lsls	r2, r2, #17
  {
    return (1UL);                                                   /* Reload value impossible */
 8001812:	2001      	movs	r0, #1
  if ((ticks - 1UL) > SysTick_LOAD_RELOAD_Msk)
 8001814:	4293      	cmp	r3, r2
 8001816:	d20d      	bcs.n	8001834 <HAL_SYSTICK_Config+0x28>
    SCB->SHP[_SHP_IDX(IRQn)] = ((uint32_t)(SCB->SHP[_SHP_IDX(IRQn)] & ~(0xFFUL << _BIT_SHIFT(IRQn))) |
 8001818:	21c0      	movs	r1, #192	@ 0xc0
  }

  SysTick->LOAD  = (uint32_t)(ticks - 1UL);                         /* set reload register */
 800181a:	4a07      	ldr	r2, [pc, #28]	@ (8001838 <HAL_SYSTICK_Config+0x2c>)
    SCB->SHP[_SHP_IDX(IRQn)] = ((uint32_t)(SCB->SHP[_SHP_IDX(IRQn)] & ~(0xFFUL << _BIT_SHIFT(IRQn))) |
 800181c:	4807      	ldr	r0, [pc, #28]	@ (800183c <HAL_SYSTICK_Config+0x30>)
  SysTick->LOAD  = (uint32_t)(ticks - 1UL);                         /* set reload register */
 800181e:	6053      	str	r3, [r2, #4]
    SCB->SHP[_SHP_IDX(IRQn)] = ((uint32_t)(SCB->SHP[_SHP_IDX(IRQn)] & ~(0xFFUL << _BIT_SHIFT(IRQn))) |
 8001820:	6a03      	ldr	r3, [r0, #32]
 8001822:	0609      	lsls	r1, r1, #24
 8001824:	021b      	lsls	r3, r3, #8
 8001826:	0a1b      	lsrs	r3, r3, #8
 8001828:	430b      	orrs	r3, r1
 800182a:	6203      	str	r3, [r0, #32]
  NVIC_SetPriority (SysTick_IRQn, (1UL << __NVIC_PRIO_BITS) - 1UL); /* set Priority for Systick Interrupt */
  SysTick->VAL   = 0UL;                                             /* Load the SysTick Counter Value */
 800182c:	2000      	movs	r0, #0
  SysTick->CTRL  = SysTick_CTRL_CLKSOURCE_Msk |
 800182e:	2307      	movs	r3, #7
  SysTick->VAL   = 0UL;                                             /* Load the SysTick Counter Value */
 8001830:	6090      	str	r0, [r2, #8]
  SysTick->CTRL  = SysTick_CTRL_CLKSOURCE_Msk |
 8001832:	6013      	str	r3, [r2, #0]
  *                  - 1  Function failed.
  */
uint32_t HAL_SYSTICK_Config(uint32_t TicksNumb)
{
   return SysTick_Config(TicksNumb);
}
 8001834:	4770      	bx	lr
 8001836:	46c0      	nop			@ (mov r8, r8)
 8001838:	e000e010 	.word	0xe000e010
 800183c:	e000ed00 	.word	0xe000ed00

08001840 <FLASH_SetErrorCode>:
  */
static void FLASH_SetErrorCode(void)
{
  uint32_t flags = 0U;
  
  if(__HAL_FLASH_GET_FLAG(FLASH_FLAG_WRPERR))
 8001840:	4a0c      	ldr	r2, [pc, #48]	@ (8001874 <FLASH_SetErrorCode+0x34>)
 8001842:	2110      	movs	r1, #16
 8001844:	68d0      	ldr	r0, [r2, #12]
{
 8001846:	b530      	push	{r4, r5, lr}
  if(__HAL_FLASH_GET_FLAG(FLASH_FLAG_WRPERR))
 8001848:	0003      	movs	r3, r0
 800184a:	400b      	ands	r3, r1
 800184c:	4208      	tst	r0, r1
 800184e:	d005      	beq.n	800185c <FLASH_SetErrorCode+0x1c>
  {
    pFlash.ErrorCode |= HAL_FLASH_ERROR_WRP;
 8001850:	2302      	movs	r3, #2
 8001852:	4809      	ldr	r0, [pc, #36]	@ (8001878 <FLASH_SetErrorCode+0x38>)
 8001854:	69c4      	ldr	r4, [r0, #28]
 8001856:	4323      	orrs	r3, r4
 8001858:	61c3      	str	r3, [r0, #28]
    flags |= FLASH_FLAG_WRPERR;
 800185a:	000b      	movs	r3, r1
  }
  if(__HAL_FLASH_GET_FLAG(FLASH_FLAG_PGERR))
 800185c:	2004      	movs	r0, #4
 800185e:	68d1      	ldr	r1, [r2, #12]
 8001860:	4201      	tst	r1, r0
 8001862:	d005      	beq.n	8001870 <FLASH_SetErrorCode+0x30>
  {
    pFlash.ErrorCode |= HAL_FLASH_ERROR_PROG;
 8001864:	2101      	movs	r1, #1
 8001866:	4c04      	ldr	r4, [pc, #16]	@ (8001878 <FLASH_SetErrorCode+0x38>)
    flags |= FLASH_FLAG_PGERR;
 8001868:	4303      	orrs	r3, r0
    pFlash.ErrorCode |= HAL_FLASH_ERROR_PROG;
 800186a:	69e5      	ldr	r5, [r4, #28]
 800186c:	4329      	orrs	r1, r5
 800186e:	61e1      	str	r1, [r4, #28]
  }
  /* Clear FLASH error pending bits */
  __HAL_FLASH_CLEAR_FLAG(flags);
 8001870:	60d3      	str	r3, [r2, #12]
}  
 8001872:	bd30      	pop	{r4, r5, pc}
 8001874:	40022000 	.word	0x40022000
 8001878:	20000250 	.word	0x20000250

0800187c <HAL_FLASH_Unlock>:
  if(READ_BIT(FLASH->CR, FLASH_CR_LOCK) != RESET)
 800187c:	4b06      	ldr	r3, [pc, #24]	@ (8001898 <HAL_FLASH_Unlock+0x1c>)
  HAL_StatusTypeDef status = HAL_OK;
 800187e:	2000      	movs	r0, #0
  if(READ_BIT(FLASH->CR, FLASH_CR_LOCK) != RESET)
 8001880:	691a      	ldr	r2, [r3, #16]
 8001882:	0612      	lsls	r2, r2, #24
 8001884:	d506      	bpl.n	8001894 <HAL_FLASH_Unlock+0x18>
    WRITE_REG(FLASH->KEYR, FLASH_KEY1);
 8001886:	4a05      	ldr	r2, [pc, #20]	@ (800189c <HAL_FLASH_Unlock+0x20>)
 8001888:	605a      	str	r2, [r3, #4]
    WRITE_REG(FLASH->KEYR, FLASH_KEY2);
 800188a:	4a05      	ldr	r2, [pc, #20]	@ (80018a0 <HAL_FLASH_Unlock+0x24>)
 800188c:	605a      	str	r2, [r3, #4]
    if(READ_BIT(FLASH->CR, FLASH_CR_LOCK) != RESET)
 800188e:	6918      	ldr	r0, [r3, #16]
 8001890:	0600      	lsls	r0, r0, #24
 8001892:	0fc0      	lsrs	r0, r0, #31
}
 8001894:	4770      	bx	lr
 8001896:	46c0      	nop			@ (mov r8, r8)
 8001898:	40022000 	.word	0x40022000
 800189c:	45670123 	.word	0x45670123
 80018a0:	cdef89ab 	.word	0xcdef89ab

080018a4 <HAL_FLASH_Lock>:
  SET_BIT(FLASH->CR, FLASH_CR_LOCK);
 80018a4:	2380      	movs	r3, #128	@ 0x80
 80018a6:	4a03      	ldr	r2, [pc, #12]	@ (80018b4 <HAL_FLASH_Lock+0x10>)
}
 80018a8:	2000      	movs	r0, #0
  SET_BIT(FLASH->CR, FLASH_CR_LOCK);
 80018aa:	6911      	ldr	r1, [r2, #16]
 80018ac:	430b      	orrs	r3, r1
 80018ae:	6113      	str	r3, [r2, #16]
}
 80018b0:	4770      	bx	lr
 80018b2:	46c0      	nop			@ (mov r8, r8)
 80018b4:	40022000 	.word	0x40022000

080018b8 <FLASH_WaitForLastOperation>:
{
 80018b8:	b570      	push	{r4, r5, r6, lr}
 80018ba:	0004      	movs	r4, r0
  uint32_t tickstart = HAL_GetTick();
 80018bc:	f7ff fbe8 	bl	8001090 <HAL_GetTick>
  while(__HAL_FLASH_GET_FLAG(FLASH_FLAG_BSY)) 
 80018c0:	2601      	movs	r6, #1
  uint32_t tickstart = HAL_GetTick();
 80018c2:	0005      	movs	r5, r0
  while(__HAL_FLASH_GET_FLAG(FLASH_FLAG_BSY)) 
 80018c4:	4b10      	ldr	r3, [pc, #64]	@ (8001908 <FLASH_WaitForLastOperation+0x50>)
 80018c6:	68da      	ldr	r2, [r3, #12]
 80018c8:	4232      	tst	r2, r6
 80018ca:	d111      	bne.n	80018f0 <FLASH_WaitForLastOperation+0x38>
  if (__HAL_FLASH_GET_FLAG(FLASH_FLAG_EOP))
 80018cc:	2220      	movs	r2, #32
 80018ce:	68d9      	ldr	r1, [r3, #12]
 80018d0:	4211      	tst	r1, r2
 80018d2:	d000      	beq.n	80018d6 <FLASH_WaitForLastOperation+0x1e>
    __HAL_FLASH_CLEAR_FLAG(FLASH_FLAG_EOP);
 80018d4:	60da      	str	r2, [r3, #12]
  if(__HAL_FLASH_GET_FLAG(FLASH_FLAG_WRPERR)  || 
 80018d6:	68d9      	ldr	r1, [r3, #12]
 80018d8:	2210      	movs	r2, #16
 80018da:	0008      	movs	r0, r1
 80018dc:	4010      	ands	r0, r2
 80018de:	4211      	tst	r1, r2
 80018e0:	d102      	bne.n	80018e8 <FLASH_WaitForLastOperation+0x30>
     __HAL_FLASH_GET_FLAG(FLASH_FLAG_PGERR))
 80018e2:	68db      	ldr	r3, [r3, #12]
  if(__HAL_FLASH_GET_FLAG(FLASH_FLAG_WRPERR)  || 
 80018e4:	075b      	lsls	r3, r3, #29
 80018e6:	d508      	bpl.n	80018fa <FLASH_WaitForLastOperation+0x42>
    FLASH_SetErrorCode();
 80018e8:	f7ff ffaa 	bl	8001840 <FLASH_SetErrorCode>
    return HAL_ERROR;
 80018ec:	2001      	movs	r0, #1
 80018ee:	e004      	b.n	80018fa <FLASH_WaitForLastOperation+0x42>
    if (Timeout != HAL_MAX_DELAY)
 80018f0:	1c62      	adds	r2, r4, #1
 80018f2:	d0e8      	beq.n	80018c6 <FLASH_WaitForLastOperation+0xe>
      if((Timeout == 0U) || ((HAL_GetTick()-tickstart) > Timeout))
 80018f4:	2c00      	cmp	r4, #0
 80018f6:	d101      	bne.n	80018fc <FLASH_WaitForLastOperation+0x44>
        return HAL_TIMEOUT;
 80018f8:	2003      	movs	r0, #3
}
 80018fa:	bd70      	pop	{r4, r5, r6, pc}
      if((Timeout == 0U) || ((HAL_GetTick()-tickstart) > Timeout))
 80018fc:	f7ff fbc8 	bl	8001090 <HAL_GetTick>
 8001900:	1b40      	subs	r0, r0, r5
 8001902:	42a0      	cmp	r0, r4
 8001904:	d9de      	bls.n	80018c4 <FLASH_WaitForLastOperation+0xc>
 8001906:	e7f7      	b.n	80018f8 <FLASH_WaitForLastOperation+0x40>
 8001908:	40022000 	.word	0x40022000

0800190c <HAL_FLASH_Program>:
{
 800190c:	b5f0      	push	{r4, r5, r6, r7, lr}
 800190e:	b085      	sub	sp, #20
 8001910:	9303      	str	r3, [sp, #12]
  __HAL_LOCK(&pFlash);
 8001912:	4b1e      	ldr	r3, [pc, #120]	@ (800198c <HAL_FLASH_Program+0x80>)
{
 8001914:	9100      	str	r1, [sp, #0]
 8001916:	9202      	str	r2, [sp, #8]
  __HAL_LOCK(&pFlash);
 8001918:	7e1a      	ldrb	r2, [r3, #24]
{
 800191a:	0004      	movs	r4, r0
  __HAL_LOCK(&pFlash);
 800191c:	2002      	movs	r0, #2
 800191e:	2a01      	cmp	r2, #1
 8001920:	d031      	beq.n	8001986 <HAL_FLASH_Program+0x7a>
 8001922:	2201      	movs	r2, #1
    status = FLASH_WaitForLastOperation(FLASH_TIMEOUT_VALUE);
 8001924:	481a      	ldr	r0, [pc, #104]	@ (8001990 <HAL_FLASH_Program+0x84>)
  __HAL_LOCK(&pFlash);
 8001926:	761a      	strb	r2, [r3, #24]
    status = FLASH_WaitForLastOperation(FLASH_TIMEOUT_VALUE);
 8001928:	f7ff ffc6 	bl	80018b8 <FLASH_WaitForLastOperation>
  if(status == HAL_OK)
 800192c:	2800      	cmp	r0, #0
 800192e:	d127      	bne.n	8001980 <HAL_FLASH_Program+0x74>
      nbiterations = 1U;
 8001930:	0026      	movs	r6, r4
    if(TypeProgram == FLASH_TYPEPROGRAM_HALFWORD)
 8001932:	2c01      	cmp	r4, #1
 8001934:	d003      	beq.n	800193e <HAL_FLASH_Program+0x32>
      nbiterations = 4U;
 8001936:	2604      	movs	r6, #4
    else if(TypeProgram == FLASH_TYPEPROGRAM_WORD)
 8001938:	2c02      	cmp	r4, #2
 800193a:	d100      	bne.n	800193e <HAL_FLASH_Program+0x32>
      nbiterations = 2U;
 800193c:	0026      	movs	r6, r4
      nbiterations = 4U;
 800193e:	2400      	movs	r4, #0
  pFlash.ErrorCode = HAL_FLASH_ERROR_NONE;
 8001940:	4b12      	ldr	r3, [pc, #72]	@ (800198c <HAL_FLASH_Program+0x80>)
 8001942:	9301      	str	r3, [sp, #4]
      FLASH_Program_HalfWord((Address + (2U*index)), (uint16_t)(Data >> (16U*index)));
 8001944:	9802      	ldr	r0, [sp, #8]
 8001946:	9903      	ldr	r1, [sp, #12]
 8001948:	0122      	lsls	r2, r4, #4
 800194a:	f7fe fd6f 	bl	800042c <__aeabi_llsr>
  pFlash.ErrorCode = HAL_FLASH_ERROR_NONE;
 800194e:	2200      	movs	r2, #0
    SET_BIT(FLASH->CR, FLASH_CR_PG);
 8001950:	2701      	movs	r7, #1
  pFlash.ErrorCode = HAL_FLASH_ERROR_NONE;
 8001952:	9b01      	ldr	r3, [sp, #4]
    SET_BIT(FLASH->CR, FLASH_CR_PG);
 8001954:	4d0f      	ldr	r5, [pc, #60]	@ (8001994 <HAL_FLASH_Program+0x88>)
  pFlash.ErrorCode = HAL_FLASH_ERROR_NONE;
 8001956:	61da      	str	r2, [r3, #28]
    SET_BIT(FLASH->CR, FLASH_CR_PG);
 8001958:	692b      	ldr	r3, [r5, #16]
  *(__IO uint16_t*)Address = Data;
 800195a:	9a00      	ldr	r2, [sp, #0]
    SET_BIT(FLASH->CR, FLASH_CR_PG);
 800195c:	433b      	orrs	r3, r7
 800195e:	612b      	str	r3, [r5, #16]
  *(__IO uint16_t*)Address = Data;
 8001960:	0063      	lsls	r3, r4, #1
 8001962:	189b      	adds	r3, r3, r2
      FLASH_Program_HalfWord((Address + (2U*index)), (uint16_t)(Data >> (16U*index)));
 8001964:	b280      	uxth	r0, r0
  *(__IO uint16_t*)Address = Data;
 8001966:	8018      	strh	r0, [r3, #0]
        status = FLASH_WaitForLastOperation(FLASH_TIMEOUT_VALUE);
 8001968:	4809      	ldr	r0, [pc, #36]	@ (8001990 <HAL_FLASH_Program+0x84>)
 800196a:	f7ff ffa5 	bl	80018b8 <FLASH_WaitForLastOperation>
        CLEAR_BIT(FLASH->CR, FLASH_CR_PG);
 800196e:	692b      	ldr	r3, [r5, #16]
 8001970:	43bb      	bics	r3, r7
 8001972:	612b      	str	r3, [r5, #16]
      if (status != HAL_OK)
 8001974:	2800      	cmp	r0, #0
 8001976:	d103      	bne.n	8001980 <HAL_FLASH_Program+0x74>
    for (index = 0U; index < nbiterations; index++)
 8001978:	19e4      	adds	r4, r4, r7
 800197a:	b2e3      	uxtb	r3, r4
 800197c:	429e      	cmp	r6, r3
 800197e:	d8e1      	bhi.n	8001944 <HAL_FLASH_Program+0x38>
  __HAL_UNLOCK(&pFlash);
 8001980:	2200      	movs	r2, #0
 8001982:	4b02      	ldr	r3, [pc, #8]	@ (800198c <HAL_FLASH_Program+0x80>)
 8001984:	761a      	strb	r2, [r3, #24]
}
 8001986:	b005      	add	sp, #20
 8001988:	bdf0      	pop	{r4, r5, r6, r7, pc}
 800198a:	46c0      	nop			@ (mov r8, r8)
 800198c:	20000250 	.word	0x20000250
 8001990:	0000c350 	.word	0x0000c350
 8001994:	40022000 	.word	0x40022000

08001998 <FLASH_MassErase>:
  * @retval None
  */
static void FLASH_MassErase(void)
{
  /* Clean the error context */
  pFlash.ErrorCode = HAL_FLASH_ERROR_NONE;
 8001998:	2200      	movs	r2, #0
 800199a:	4b06      	ldr	r3, [pc, #24]	@ (80019b4 <FLASH_MassErase+0x1c>)
 800199c:	61da      	str	r2, [r3, #28]

    /* Only bank1 will be erased*/
    SET_BIT(FLASH->CR, FLASH_CR_MER);
 800199e:	4b06      	ldr	r3, [pc, #24]	@ (80019b8 <FLASH_MassErase+0x20>)
 80019a0:	3204      	adds	r2, #4
 80019a2:	6919      	ldr	r1, [r3, #16]
 80019a4:	430a      	orrs	r2, r1
 80019a6:	611a      	str	r2, [r3, #16]
    SET_BIT(FLASH->CR, FLASH_CR_STRT);
 80019a8:	2240      	movs	r2, #64	@ 0x40
 80019aa:	6919      	ldr	r1, [r3, #16]
 80019ac:	430a      	orrs	r2, r1
 80019ae:	611a      	str	r2, [r3, #16]
}
 80019b0:	4770      	bx	lr
 80019b2:	46c0      	nop			@ (mov r8, r8)
 80019b4:	20000250 	.word	0x20000250
 80019b8:	40022000 	.word	0x40022000

080019bc <FLASH_PageErase>:
  * @retval None
  */
void FLASH_PageErase(uint32_t PageAddress)
{
  /* Clean the error context */
  pFlash.ErrorCode = HAL_FLASH_ERROR_NONE;
 80019bc:	2200      	movs	r2, #0
 80019be:	4b06      	ldr	r3, [pc, #24]	@ (80019d8 <FLASH_PageErase+0x1c>)
 80019c0:	61da      	str	r2, [r3, #28]

    /* Proceed to erase the page */
    SET_BIT(FLASH->CR, FLASH_CR_PER);
 80019c2:	4b06      	ldr	r3, [pc, #24]	@ (80019dc <FLASH_PageErase+0x20>)
 80019c4:	3202      	adds	r2, #2
 80019c6:	6919      	ldr	r1, [r3, #16]
 80019c8:	430a      	orrs	r2, r1
 80019ca:	611a      	str	r2, [r3, #16]
    WRITE_REG(FLASH->AR, PageAddress);
    SET_BIT(FLASH->CR, FLASH_CR_STRT);
 80019cc:	2240      	movs	r2, #64	@ 0x40
    WRITE_REG(FLASH->AR, PageAddress);
 80019ce:	6158      	str	r0, [r3, #20]
    SET_BIT(FLASH->CR, FLASH_CR_STRT);
 80019d0:	6919      	ldr	r1, [r3, #16]
 80019d2:	430a      	orrs	r2, r1
 80019d4:	611a      	str	r2, [r3, #16]
}
 80019d6:	4770      	bx	lr
 80019d8:	20000250 	.word	0x20000250
 80019dc:	40022000 	.word	0x40022000

080019e0 <HAL_FLASHEx_Erase>:
{
 80019e0:	b5f8      	push	{r3, r4, r5, r6, r7, lr}
  __HAL_LOCK(&pFlash);
 80019e2:	4f21      	ldr	r7, [pc, #132]	@ (8001a68 <HAL_FLASHEx_Erase+0x88>)
{
 80019e4:	0004      	movs	r4, r0
  __HAL_LOCK(&pFlash);
 80019e6:	7e3b      	ldrb	r3, [r7, #24]
{
 80019e8:	000e      	movs	r6, r1
  __HAL_LOCK(&pFlash);
 80019ea:	2002      	movs	r0, #2
 80019ec:	2b01      	cmp	r3, #1
 80019ee:	d00c      	beq.n	8001a0a <HAL_FLASHEx_Erase+0x2a>
 80019f0:	2301      	movs	r3, #1
 80019f2:	763b      	strb	r3, [r7, #24]
  if (pEraseInit->TypeErase == FLASH_TYPEERASE_MASSERASE)
 80019f4:	6823      	ldr	r3, [r4, #0]
      if (FLASH_WaitForLastOperation((uint32_t)FLASH_TIMEOUT_VALUE) == HAL_OK)
 80019f6:	481d      	ldr	r0, [pc, #116]	@ (8001a6c <HAL_FLASHEx_Erase+0x8c>)
  if (pEraseInit->TypeErase == FLASH_TYPEERASE_MASSERASE)
 80019f8:	2b01      	cmp	r3, #1
 80019fa:	d112      	bne.n	8001a22 <HAL_FLASHEx_Erase+0x42>
      if (FLASH_WaitForLastOperation((uint32_t)FLASH_TIMEOUT_VALUE) == HAL_OK)
 80019fc:	f7ff ff5c 	bl	80018b8 <FLASH_WaitForLastOperation>
 8001a00:	2800      	cmp	r0, #0
 8001a02:	d003      	beq.n	8001a0c <HAL_FLASHEx_Erase+0x2c>
  HAL_StatusTypeDef status = HAL_ERROR;
 8001a04:	2001      	movs	r0, #1
  __HAL_UNLOCK(&pFlash);
 8001a06:	2300      	movs	r3, #0
 8001a08:	763b      	strb	r3, [r7, #24]
}
 8001a0a:	bdf8      	pop	{r3, r4, r5, r6, r7, pc}
        FLASH_MassErase();
 8001a0c:	f7ff ffc4 	bl	8001998 <FLASH_MassErase>
        status = FLASH_WaitForLastOperation((uint32_t)FLASH_TIMEOUT_VALUE);
 8001a10:	4816      	ldr	r0, [pc, #88]	@ (8001a6c <HAL_FLASHEx_Erase+0x8c>)
 8001a12:	f7ff ff51 	bl	80018b8 <FLASH_WaitForLastOperation>
        CLEAR_BIT(FLASH->CR, FLASH_CR_MER);
 8001a16:	2104      	movs	r1, #4
 8001a18:	4a15      	ldr	r2, [pc, #84]	@ (8001a70 <HAL_FLASHEx_Erase+0x90>)
 8001a1a:	6913      	ldr	r3, [r2, #16]
 8001a1c:	438b      	bics	r3, r1
 8001a1e:	6113      	str	r3, [r2, #16]
 8001a20:	e7f1      	b.n	8001a06 <HAL_FLASHEx_Erase+0x26>
      if (FLASH_WaitForLastOperation((uint32_t)FLASH_TIMEOUT_VALUE) == HAL_OK)
 8001a22:	f7ff ff49 	bl	80018b8 <FLASH_WaitForLastOperation>
 8001a26:	2800      	cmp	r0, #0
 8001a28:	d1ec      	bne.n	8001a04 <HAL_FLASHEx_Erase+0x24>
        *PageError = 0xFFFFFFFFU;
 8001a2a:	2301      	movs	r3, #1
 8001a2c:	425b      	negs	r3, r3
 8001a2e:	6033      	str	r3, [r6, #0]
        for(address = pEraseInit->PageAddress;
 8001a30:	6865      	ldr	r5, [r4, #4]
  HAL_StatusTypeDef status = HAL_ERROR;
 8001a32:	3001      	adds	r0, #1
            address < ((pEraseInit->NbPages * FLASH_PAGE_SIZE) + pEraseInit->PageAddress);
 8001a34:	68a3      	ldr	r3, [r4, #8]
 8001a36:	6862      	ldr	r2, [r4, #4]
 8001a38:	029b      	lsls	r3, r3, #10
 8001a3a:	189b      	adds	r3, r3, r2
 8001a3c:	42ab      	cmp	r3, r5
 8001a3e:	d9e2      	bls.n	8001a06 <HAL_FLASHEx_Erase+0x26>
          FLASH_PageErase(address);
 8001a40:	0028      	movs	r0, r5
 8001a42:	f7ff ffbb 	bl	80019bc <FLASH_PageErase>
          status = FLASH_WaitForLastOperation((uint32_t)FLASH_TIMEOUT_VALUE);
 8001a46:	4809      	ldr	r0, [pc, #36]	@ (8001a6c <HAL_FLASHEx_Erase+0x8c>)
 8001a48:	f7ff ff36 	bl	80018b8 <FLASH_WaitForLastOperation>
          CLEAR_BIT(FLASH->CR, FLASH_CR_PER);
 8001a4c:	2102      	movs	r1, #2
 8001a4e:	4a08      	ldr	r2, [pc, #32]	@ (8001a70 <HAL_FLASHEx_Erase+0x90>)
 8001a50:	6913      	ldr	r3, [r2, #16]
 8001a52:	438b      	bics	r3, r1
 8001a54:	6113      	str	r3, [r2, #16]
          if (status != HAL_OK)
 8001a56:	2800      	cmp	r0, #0
 8001a58:	d001      	beq.n	8001a5e <HAL_FLASHEx_Erase+0x7e>
            *PageError = address;
 8001a5a:	6035      	str	r5, [r6, #0]
            break;
 8001a5c:	e7d3      	b.n	8001a06 <HAL_FLASHEx_Erase+0x26>
            address += FLASH_PAGE_SIZE)
 8001a5e:	2380      	movs	r3, #128	@ 0x80
 8001a60:	00db      	lsls	r3, r3, #3
 8001a62:	18ed      	adds	r5, r5, r3
 8001a64:	e7e6      	b.n	8001a34 <HAL_FLASHEx_Erase+0x54>
 8001a66:	46c0      	nop			@ (mov r8, r8)
 8001a68:	20000250 	.word	0x20000250
 8001a6c:	0000c350 	.word	0x0000c350
 8001a70:	40022000 	.word	0x40022000

08001a74 <HAL_GPIO_Init>:
  *         the configuration information for the specified GPIO peripheral.
  * @retval None
  */
void HAL_GPIO_Init(GPIO_TypeDef  *GPIOx, GPIO_InitTypeDef *GPIO_Init)
{
  uint32_t position = 0x00u;
 8001a74:	2300      	movs	r3, #0
{
 8001a76:	b5f0      	push	{r4, r5, r6, r7, lr}
 8001a78:	b087      	sub	sp, #28
  assert_param(IS_GPIO_ALL_INSTANCE(GPIOx));
  assert_param(IS_GPIO_PIN(GPIO_Init->Pin));
  assert_param(IS_GPIO_MODE(GPIO_Init->Mode));

  /* Configure the port pins */
  while (((GPIO_Init->Pin) >> position) != 0x00u)
 8001a7a:	680a      	ldr	r2, [r1, #0]
 8001a7c:	0014      	movs	r4, r2
 8001a7e:	40dc      	lsrs	r4, r3
 8001a80:	d101      	bne.n	8001a86 <HAL_GPIO_Init+0x12>
      }
    }

    position++;
  } 
}
 8001a82:	b007      	add	sp, #28
 8001a84:	bdf0      	pop	{r4, r5, r6, r7, pc}
    iocurrent = (GPIO_Init->Pin) & (1uL << position);
 8001a86:	2501      	movs	r5, #1
 8001a88:	0014      	movs	r4, r2
 8001a8a:	409d      	lsls	r5, r3
 8001a8c:	402c      	ands	r4, r5
 8001a8e:	9400      	str	r4, [sp, #0]
    if (iocurrent != 0x00u)
 8001a90:	422a      	tst	r2, r5
 8001a92:	d100      	bne.n	8001a96 <HAL_GPIO_Init+0x22>
 8001a94:	e094      	b.n	8001bc0 <HAL_GPIO_Init+0x14c>
      if(((GPIO_Init->Mode & GPIO_MODE) == MODE_OUTPUT) ||
 8001a96:	684a      	ldr	r2, [r1, #4]
 8001a98:	005f      	lsls	r7, r3, #1
 8001a9a:	4694      	mov	ip, r2
 8001a9c:	2203      	movs	r2, #3
 8001a9e:	4664      	mov	r4, ip
 8001aa0:	4022      	ands	r2, r4
        temp &= ~(GPIO_OSPEEDER_OSPEEDR0 << (position * 2u));
 8001aa2:	2403      	movs	r4, #3
 8001aa4:	40bc      	lsls	r4, r7
 8001aa6:	43e4      	mvns	r4, r4
 8001aa8:	9401      	str	r4, [sp, #4]
      if(((GPIO_Init->Mode & GPIO_MODE) == MODE_OUTPUT) ||
 8001aaa:	1e54      	subs	r4, r2, #1
 8001aac:	2c01      	cmp	r4, #1
 8001aae:	d82e      	bhi.n	8001b0e <HAL_GPIO_Init+0x9a>
        temp = GPIOx->OSPEEDR;
 8001ab0:	6886      	ldr	r6, [r0, #8]
        temp &= ~(GPIO_OSPEEDER_OSPEEDR0 << (position * 2u));
 8001ab2:	9c01      	ldr	r4, [sp, #4]
 8001ab4:	4026      	ands	r6, r4
        temp |= (GPIO_Init->Speed << (position * 2u));
 8001ab6:	68cc      	ldr	r4, [r1, #12]
 8001ab8:	40bc      	lsls	r4, r7
 8001aba:	4334      	orrs	r4, r6
        GPIOx->OSPEEDR = temp;
 8001abc:	6084      	str	r4, [r0, #8]
        temp = GPIOx->OTYPER;
 8001abe:	6844      	ldr	r4, [r0, #4]
        temp |= (((GPIO_Init->Mode & OUTPUT_TYPE) >> OUTPUT_TYPE_Pos) << position);
 8001ac0:	2601      	movs	r6, #1
        temp &= ~(GPIO_OTYPER_OT_0 << position) ;
 8001ac2:	43ac      	bics	r4, r5
 8001ac4:	0025      	movs	r5, r4
        temp |= (((GPIO_Init->Mode & OUTPUT_TYPE) >> OUTPUT_TYPE_Pos) << position);
 8001ac6:	4664      	mov	r4, ip
 8001ac8:	0924      	lsrs	r4, r4, #4
 8001aca:	4034      	ands	r4, r6
 8001acc:	409c      	lsls	r4, r3
 8001ace:	432c      	orrs	r4, r5
        GPIOx->OTYPER = temp;
 8001ad0:	6044      	str	r4, [r0, #4]
        temp = GPIOx->PUPDR;
 8001ad2:	68c5      	ldr	r5, [r0, #12]
        temp &= ~(GPIO_PUPDR_PUPDR0 << (position * 2u));
 8001ad4:	9c01      	ldr	r4, [sp, #4]
 8001ad6:	4025      	ands	r5, r4
        temp |= ((GPIO_Init->Pull) << (position * 2u));
 8001ad8:	688c      	ldr	r4, [r1, #8]
 8001ada:	40bc      	lsls	r4, r7
 8001adc:	432c      	orrs	r4, r5
        GPIOx->PUPDR = temp;
 8001ade:	60c4      	str	r4, [r0, #12]
      if((GPIO_Init->Mode & GPIO_MODE) == MODE_AF)
 8001ae0:	2a02      	cmp	r2, #2
 8001ae2:	d116      	bne.n	8001b12 <HAL_GPIO_Init+0x9e>
        temp &= ~(0xFu << ((position & 0x07u) * 4u));
 8001ae4:	2507      	movs	r5, #7
 8001ae6:	260f      	movs	r6, #15
 8001ae8:	401d      	ands	r5, r3
 8001aea:	00ad      	lsls	r5, r5, #2
 8001aec:	40ae      	lsls	r6, r5
        temp = GPIOx->AFR[position >> 3u];
 8001aee:	08dc      	lsrs	r4, r3, #3
 8001af0:	00a4      	lsls	r4, r4, #2
 8001af2:	1904      	adds	r4, r0, r4
 8001af4:	9402      	str	r4, [sp, #8]
 8001af6:	6a24      	ldr	r4, [r4, #32]
        temp &= ~(0xFu << ((position & 0x07u) * 4u));
 8001af8:	9603      	str	r6, [sp, #12]
 8001afa:	0026      	movs	r6, r4
 8001afc:	9c03      	ldr	r4, [sp, #12]
 8001afe:	43a6      	bics	r6, r4
 8001b00:	0034      	movs	r4, r6
        temp |= ((GPIO_Init->Alternate) << ((position & 0x07u) * 4u));
 8001b02:	690e      	ldr	r6, [r1, #16]
 8001b04:	40ae      	lsls	r6, r5
 8001b06:	4326      	orrs	r6, r4
        GPIOx->AFR[position >> 3u] = temp;
 8001b08:	9c02      	ldr	r4, [sp, #8]
 8001b0a:	6226      	str	r6, [r4, #32]
 8001b0c:	e001      	b.n	8001b12 <HAL_GPIO_Init+0x9e>
      if((GPIO_Init->Mode & GPIO_MODE) != MODE_ANALOG)
 8001b0e:	2a03      	cmp	r2, #3
 8001b10:	d1df      	bne.n	8001ad2 <HAL_GPIO_Init+0x5e>
      temp |= ((GPIO_Init->Mode & GPIO_MODE) << (position * 2u));
 8001b12:	40ba      	lsls	r2, r7
      temp = GPIOx->MODER;
 8001b14:	6804      	ldr	r4, [r0, #0]
      temp &= ~(GPIO_MODER_MODER0 << (position * 2u));
 8001b16:	9d01      	ldr	r5, [sp, #4]
 8001b18:	4025      	ands	r5, r4
      temp |= ((GPIO_Init->Mode & GPIO_MODE) << (position * 2u));
 8001b1a:	432a      	orrs	r2, r5
      if((GPIO_Init->Mode & EXTI_MODE) != 0x00u)
 8001b1c:	24c0      	movs	r4, #192	@ 0xc0
      GPIOx->MODER = temp;
 8001b1e:	6002      	str	r2, [r0, #0]
      if((GPIO_Init->Mode & EXTI_MODE) != 0x00u)
 8001b20:	4662      	mov	r2, ip
 8001b22:	02a4      	lsls	r4, r4, #10
 8001b24:	4222      	tst	r2, r4
 8001b26:	d04b      	beq.n	8001bc0 <HAL_GPIO_Init+0x14c>
        __HAL_RCC_SYSCFG_CLK_ENABLE();
 8001b28:	2501      	movs	r5, #1
 8001b2a:	4a26      	ldr	r2, [pc, #152]	@ (8001bc4 <HAL_GPIO_Init+0x150>)
        temp |= (GPIO_GET_INDEX(GPIOx) << (4u * (position & 0x03u)));
 8001b2c:	2790      	movs	r7, #144	@ 0x90
        __HAL_RCC_SYSCFG_CLK_ENABLE();
 8001b2e:	6994      	ldr	r4, [r2, #24]
        temp |= (GPIO_GET_INDEX(GPIOx) << (4u * (position & 0x03u)));
 8001b30:	05ff      	lsls	r7, r7, #23
        __HAL_RCC_SYSCFG_CLK_ENABLE();
 8001b32:	432c      	orrs	r4, r5
 8001b34:	6194      	str	r4, [r2, #24]
 8001b36:	6992      	ldr	r2, [r2, #24]
        temp = SYSCFG->EXTICR[position >> 2u];
 8001b38:	089c      	lsrs	r4, r3, #2
        __HAL_RCC_SYSCFG_CLK_ENABLE();
 8001b3a:	402a      	ands	r2, r5
 8001b3c:	9205      	str	r2, [sp, #20]
 8001b3e:	9a05      	ldr	r2, [sp, #20]
        temp = SYSCFG->EXTICR[position >> 2u];
 8001b40:	4a21      	ldr	r2, [pc, #132]	@ (8001bc8 <HAL_GPIO_Init+0x154>)
 8001b42:	00a4      	lsls	r4, r4, #2
 8001b44:	18a4      	adds	r4, r4, r2
        temp &= ~(0x0FuL << (4u * (position & 0x03u)));
 8001b46:	220f      	movs	r2, #15
 8001b48:	3502      	adds	r5, #2
 8001b4a:	401d      	ands	r5, r3
 8001b4c:	00ad      	lsls	r5, r5, #2
 8001b4e:	40aa      	lsls	r2, r5
        temp = SYSCFG->EXTICR[position >> 2u];
 8001b50:	68a6      	ldr	r6, [r4, #8]
        temp &= ~(0x0FuL << (4u * (position & 0x03u)));
 8001b52:	4396      	bics	r6, r2
        temp |= (GPIO_GET_INDEX(GPIOx) << (4u * (position & 0x03u)));
 8001b54:	2200      	movs	r2, #0
 8001b56:	42b8      	cmp	r0, r7
 8001b58:	d008      	beq.n	8001b6c <HAL_GPIO_Init+0xf8>
 8001b5a:	4f1c      	ldr	r7, [pc, #112]	@ (8001bcc <HAL_GPIO_Init+0x158>)
 8001b5c:	3201      	adds	r2, #1
 8001b5e:	42b8      	cmp	r0, r7
 8001b60:	d004      	beq.n	8001b6c <HAL_GPIO_Init+0xf8>
 8001b62:	4f1b      	ldr	r7, [pc, #108]	@ (8001bd0 <HAL_GPIO_Init+0x15c>)
 8001b64:	3204      	adds	r2, #4
 8001b66:	42b8      	cmp	r0, r7
 8001b68:	d100      	bne.n	8001b6c <HAL_GPIO_Init+0xf8>
 8001b6a:	3a03      	subs	r2, #3
 8001b6c:	40aa      	lsls	r2, r5
        if((GPIO_Init->Mode & TRIGGER_RISING) != 0x00u)
 8001b6e:	4667      	mov	r7, ip
        temp |= (GPIO_GET_INDEX(GPIOx) << (4u * (position & 0x03u)));
 8001b70:	4332      	orrs	r2, r6
        SYSCFG->EXTICR[position >> 2u] = temp;
 8001b72:	60a2      	str	r2, [r4, #8]
        temp = EXTI->RTSR;
 8001b74:	4a17      	ldr	r2, [pc, #92]	@ (8001bd4 <HAL_GPIO_Init+0x160>)
        temp &= ~(iocurrent);
 8001b76:	9c00      	ldr	r4, [sp, #0]
        temp = EXTI->RTSR;
 8001b78:	6896      	ldr	r6, [r2, #8]
          temp |= iocurrent;
 8001b7a:	9d00      	ldr	r5, [sp, #0]
        temp &= ~(iocurrent);
 8001b7c:	43e4      	mvns	r4, r4
          temp |= iocurrent;
 8001b7e:	4335      	orrs	r5, r6
        if((GPIO_Init->Mode & TRIGGER_RISING) != 0x00u)
 8001b80:	02ff      	lsls	r7, r7, #11
 8001b82:	d401      	bmi.n	8001b88 <HAL_GPIO_Init+0x114>
        temp &= ~(iocurrent);
 8001b84:	0035      	movs	r5, r6
 8001b86:	4025      	ands	r5, r4
        if((GPIO_Init->Mode & TRIGGER_FALLING) != 0x00u)
 8001b88:	4667      	mov	r7, ip
        EXTI->RTSR = temp;
 8001b8a:	6095      	str	r5, [r2, #8]
        temp = EXTI->FTSR;
 8001b8c:	68d6      	ldr	r6, [r2, #12]
          temp |= iocurrent;
 8001b8e:	9d00      	ldr	r5, [sp, #0]
 8001b90:	4335      	orrs	r5, r6
        if((GPIO_Init->Mode & TRIGGER_FALLING) != 0x00u)
 8001b92:	02bf      	lsls	r7, r7, #10
 8001b94:	d401      	bmi.n	8001b9a <HAL_GPIO_Init+0x126>
        temp &= ~(iocurrent);
 8001b96:	0035      	movs	r5, r6
 8001b98:	4025      	ands	r5, r4
        if((GPIO_Init->Mode & EXTI_EVT) != 0x00u)
 8001b9a:	4667      	mov	r7, ip
        EXTI->FTSR = temp;
 8001b9c:	60d5      	str	r5, [r2, #12]
        temp = EXTI->EMR;
 8001b9e:	6856      	ldr	r6, [r2, #4]
          temp |= iocurrent;
 8001ba0:	9d00      	ldr	r5, [sp, #0]
 8001ba2:	4335      	orrs	r5, r6
        if((GPIO_Init->Mode & EXTI_EVT) != 0x00u)
 8001ba4:	03bf      	lsls	r7, r7, #14
 8001ba6:	d401      	bmi.n	8001bac <HAL_GPIO_Init+0x138>
        temp &= ~(iocurrent);
 8001ba8:	0035      	movs	r5, r6
 8001baa:	4025      	ands	r5, r4
        if((GPIO_Init->Mode & EXTI_IT) != 0x00u)
 8001bac:	4667      	mov	r7, ip
        EXTI->EMR = temp;
 8001bae:	6055      	str	r5, [r2, #4]
        temp = EXTI->IMR;
 8001bb0:	6815      	ldr	r5, [r2, #0]
          temp |= iocurrent;
 8001bb2:	9e00      	ldr	r6, [sp, #0]
 8001bb4:	432e      	orrs	r6, r5
        if((GPIO_Init->Mode & EXTI_IT) != 0x00u)
 8001bb6:	03ff      	lsls	r7, r7, #15
 8001bb8:	d401      	bmi.n	8001bbe <HAL_GPIO_Init+0x14a>
        temp &= ~(iocurrent);
 8001bba:	4025      	ands	r5, r4
 8001bbc:	002e      	movs	r6, r5
        EXTI->IMR = temp;
 8001bbe:	6016      	str	r6, [r2, #0]
    position++;
 8001bc0:	3301      	adds	r3, #1
 8001bc2:	e75a      	b.n	8001a7a <HAL_GPIO_Init+0x6>
 8001bc4:	40021000 	.word	0x40021000
 8001bc8:	40010000 	.word	0x40010000
 8001bcc:	48000400 	.word	0x48000400
 8001bd0:	48000800 	.word	0x48000800
 8001bd4:	40010400 	.word	0x40010400

08001bd8 <HAL_GPIO_WritePin>:
{
  /* Check the parameters */
  assert_param(IS_GPIO_PIN(GPIO_Pin));
  assert_param(IS_GPIO_PIN_ACTION(PinState));

  if (PinState != GPIO_PIN_RESET)
 8001bd8:	2a00      	cmp	r2, #0
 8001bda:	d001      	beq.n	8001be0 <HAL_GPIO_WritePin+0x8>
  {
    GPIOx->BSRR = (uint32_t)GPIO_Pin;
 8001bdc:	6181      	str	r1, [r0, #24]
  }
  else
  {
    GPIOx->BRR = (uint32_t)GPIO_Pin;
  }
}
 8001bde:	4770      	bx	lr
    GPIOx->BRR = (uint32_t)GPIO_Pin;
 8001be0:	6281      	str	r1, [r0, #40]	@ 0x28
}
 8001be2:	e7fc      	b.n	8001bde <HAL_GPIO_WritePin+0x6>

08001be4 <HAL_GPIO_TogglePin>:

  /* Check the parameters */
  assert_param(IS_GPIO_PIN(GPIO_Pin));

  /* get current Output Data Register value */
  odr = GPIOx->ODR;
 8001be4:	6942      	ldr	r2, [r0, #20]

  /* Set selected pins that were at low level, and reset ones that were high */
  GPIOx->BSRR = ((odr & GPIO_Pin) << GPIO_NUMBER) | (~odr & GPIO_Pin);
 8001be6:	0013      	movs	r3, r2
 8001be8:	400b      	ands	r3, r1
 8001bea:	041b      	lsls	r3, r3, #16
 8001bec:	4391      	bics	r1, r2
 8001bee:	430b      	orrs	r3, r1
 8001bf0:	6183      	str	r3, [r0, #24]
}
 8001bf2:	4770      	bx	lr

08001bf4 <HAL_RCC_OscConfig>:
  *         supported by this macro. User should request a transition to HSE Off
  *         first and then HSE On or HSE Bypass.
  * @retval HAL status
  */
HAL_StatusTypeDef HAL_RCC_OscConfig(RCC_OscInitTypeDef  *RCC_OscInitStruct)
{
 8001bf4:	b5f0      	push	{r4, r5, r6, r7, lr}
 8001bf6:	0004      	movs	r4, r0
 8001bf8:	b085      	sub	sp, #20
  uint32_t tickstart;
  uint32_t pll_config;
  uint32_t pll_config2;

  /* Check Null pointer */
  if(RCC_OscInitStruct == NULL)
 8001bfa:	2800      	cmp	r0, #0
 8001bfc:	d102      	bne.n	8001c04 <HAL_RCC_OscConfig+0x10>
  {
    return HAL_ERROR;
 8001bfe:	2001      	movs	r0, #1
      }
    }
  }

  return HAL_OK;
}
 8001c00:	b005      	add	sp, #20
 8001c02:	bdf0      	pop	{r4, r5, r6, r7, pc}
  if(((RCC_OscInitStruct->OscillatorType) & RCC_OSCILLATORTYPE_HSE) == RCC_OSCILLATORTYPE_HSE)
 8001c04:	6803      	ldr	r3, [r0, #0]
 8001c06:	07db      	lsls	r3, r3, #31
 8001c08:	d433      	bmi.n	8001c72 <HAL_RCC_OscConfig+0x7e>
  if(((RCC_OscInitStruct->OscillatorType) & RCC_OSCILLATORTYPE_HSI) == RCC_OSCILLATORTYPE_HSI)
 8001c0a:	6823      	ldr	r3, [r4, #0]
 8001c0c:	079b      	lsls	r3, r3, #30
 8001c0e:	d500      	bpl.n	8001c12 <HAL_RCC_OscConfig+0x1e>
 8001c10:	e087      	b.n	8001d22 <HAL_RCC_OscConfig+0x12e>
  if(((RCC_OscInitStruct->OscillatorType) & RCC_OSCILLATORTYPE_LSI) == RCC_OSCILLATORTYPE_LSI)
 8001c12:	6823      	ldr	r3, [r4, #0]
 8001c14:	071b      	lsls	r3, r3, #28
 8001c16:	d500      	bpl.n	8001c1a <HAL_RCC_OscConfig+0x26>
 8001c18:	e0c8      	b.n	8001dac <HAL_RCC_OscConfig+0x1b8>
  if(((RCC_OscInitStruct->OscillatorType) & RCC_OSCILLATORTYPE_LSE) == RCC_OSCILLATORTYPE_LSE)
 8001c1a:	6823      	ldr	r3, [r4, #0]
 8001c1c:	075b      	lsls	r3, r3, #29
 8001c1e:	d500      	bpl.n	8001c22 <HAL_RCC_OscConfig+0x2e>
 8001c20:	e0eb      	b.n	8001dfa <HAL_RCC_OscConfig+0x206>
  if(((RCC_OscInitStruct->OscillatorType) & RCC_OSCILLATORTYPE_HSI14) == RCC_OSCILLATORTYPE_HSI14)
 8001c22:	6823      	ldr	r3, [r4, #0]
 8001c24:	06db      	lsls	r3, r3, #27
 8001c26:	d51a      	bpl.n	8001c5e <HAL_RCC_OscConfig+0x6a>
    if(RCC_OscInitStruct->HSI14State == RCC_HSI14_ON)
 8001c28:	6962      	ldr	r2, [r4, #20]
 8001c2a:	2304      	movs	r3, #4
 8001c2c:	4db9      	ldr	r5, [pc, #740]	@ (8001f14 <HAL_RCC_OscConfig+0x320>)
 8001c2e:	2a01      	cmp	r2, #1
 8001c30:	d000      	beq.n	8001c34 <HAL_RCC_OscConfig+0x40>
 8001c32:	e154      	b.n	8001ede <HAL_RCC_OscConfig+0x2ea>
      __HAL_RCC_HSI14ADC_DISABLE();
 8001c34:	6b69      	ldr	r1, [r5, #52]	@ 0x34
      while(__HAL_RCC_GET_FLAG(RCC_FLAG_HSI14RDY) == RESET)
 8001c36:	2702      	movs	r7, #2
      __HAL_RCC_HSI14ADC_DISABLE();
 8001c38:	430b      	orrs	r3, r1
 8001c3a:	636b      	str	r3, [r5, #52]	@ 0x34
      __HAL_RCC_HSI14_ENABLE();
 8001c3c:	6b6b      	ldr	r3, [r5, #52]	@ 0x34
 8001c3e:	431a      	orrs	r2, r3
 8001c40:	636a      	str	r2, [r5, #52]	@ 0x34
      tickstart = HAL_GetTick();
 8001c42:	f7ff fa25 	bl	8001090 <HAL_GetTick>
 8001c46:	0006      	movs	r6, r0
      while(__HAL_RCC_GET_FLAG(RCC_FLAG_HSI14RDY) == RESET)
 8001c48:	6b6b      	ldr	r3, [r5, #52]	@ 0x34
 8001c4a:	423b      	tst	r3, r7
 8001c4c:	d100      	bne.n	8001c50 <HAL_RCC_OscConfig+0x5c>
 8001c4e:	e13f      	b.n	8001ed0 <HAL_RCC_OscConfig+0x2dc>
      __HAL_RCC_HSI14_CALIBRATIONVALUE_ADJUST(RCC_OscInitStruct->HSI14CalibrationValue);
 8001c50:	21f8      	movs	r1, #248	@ 0xf8
 8001c52:	6b6a      	ldr	r2, [r5, #52]	@ 0x34
 8001c54:	69a3      	ldr	r3, [r4, #24]
 8001c56:	438a      	bics	r2, r1
 8001c58:	00db      	lsls	r3, r3, #3
 8001c5a:	4313      	orrs	r3, r2
 8001c5c:	636b      	str	r3, [r5, #52]	@ 0x34
  if(((RCC_OscInitStruct->OscillatorType) & RCC_OSCILLATORTYPE_HSI48) == RCC_OSCILLATORTYPE_HSI48)
 8001c5e:	6823      	ldr	r3, [r4, #0]
 8001c60:	069b      	lsls	r3, r3, #26
 8001c62:	d500      	bpl.n	8001c66 <HAL_RCC_OscConfig+0x72>
 8001c64:	e162      	b.n	8001f2c <HAL_RCC_OscConfig+0x338>
  if ((RCC_OscInitStruct->PLL.PLLState) != RCC_PLL_NONE)
 8001c66:	6a63      	ldr	r3, [r4, #36]	@ 0x24
 8001c68:	2b00      	cmp	r3, #0
 8001c6a:	d000      	beq.n	8001c6e <HAL_RCC_OscConfig+0x7a>
 8001c6c:	e1a1      	b.n	8001fb2 <HAL_RCC_OscConfig+0x3be>
  return HAL_OK;
 8001c6e:	2000      	movs	r0, #0
 8001c70:	e7c6      	b.n	8001c00 <HAL_RCC_OscConfig+0xc>
    if((__HAL_RCC_GET_SYSCLK_SOURCE() == RCC_SYSCLKSOURCE_STATUS_HSE) 
 8001c72:	220c      	movs	r2, #12
 8001c74:	4da7      	ldr	r5, [pc, #668]	@ (8001f14 <HAL_RCC_OscConfig+0x320>)
 8001c76:	686b      	ldr	r3, [r5, #4]
 8001c78:	4013      	ands	r3, r2
 8001c7a:	2b04      	cmp	r3, #4
 8001c7c:	d00b      	beq.n	8001c96 <HAL_RCC_OscConfig+0xa2>
       || ((__HAL_RCC_GET_SYSCLK_SOURCE() == RCC_SYSCLKSOURCE_STATUS_PLLCLK) && (__HAL_RCC_GET_PLL_OSCSOURCE() == RCC_PLLSOURCE_HSE)))
 8001c7e:	686b      	ldr	r3, [r5, #4]
 8001c80:	4013      	ands	r3, r2
 8001c82:	2b08      	cmp	r3, #8
 8001c84:	d10e      	bne.n	8001ca4 <HAL_RCC_OscConfig+0xb0>
 8001c86:	22c0      	movs	r2, #192	@ 0xc0
 8001c88:	686b      	ldr	r3, [r5, #4]
 8001c8a:	0252      	lsls	r2, r2, #9
 8001c8c:	4013      	ands	r3, r2
 8001c8e:	2280      	movs	r2, #128	@ 0x80
 8001c90:	0252      	lsls	r2, r2, #9
 8001c92:	4293      	cmp	r3, r2
 8001c94:	d106      	bne.n	8001ca4 <HAL_RCC_OscConfig+0xb0>
      if((__HAL_RCC_GET_FLAG(RCC_FLAG_HSERDY) != RESET) && (RCC_OscInitStruct->HSEState == RCC_HSE_OFF))
 8001c96:	682b      	ldr	r3, [r5, #0]
 8001c98:	039b      	lsls	r3, r3, #14
 8001c9a:	d5b6      	bpl.n	8001c0a <HAL_RCC_OscConfig+0x16>
 8001c9c:	6863      	ldr	r3, [r4, #4]
 8001c9e:	2b00      	cmp	r3, #0
 8001ca0:	d1b3      	bne.n	8001c0a <HAL_RCC_OscConfig+0x16>
 8001ca2:	e7ac      	b.n	8001bfe <HAL_RCC_OscConfig+0xa>
      __HAL_RCC_HSE_CONFIG(RCC_OscInitStruct->HSEState);
 8001ca4:	6863      	ldr	r3, [r4, #4]
 8001ca6:	2b01      	cmp	r3, #1
 8001ca8:	d113      	bne.n	8001cd2 <HAL_RCC_OscConfig+0xde>
 8001caa:	2380      	movs	r3, #128	@ 0x80
 8001cac:	682a      	ldr	r2, [r5, #0]
 8001cae:	025b      	lsls	r3, r3, #9
 8001cb0:	4313      	orrs	r3, r2
 8001cb2:	602b      	str	r3, [r5, #0]
        tickstart = HAL_GetTick();
 8001cb4:	f7ff f9ec 	bl	8001090 <HAL_GetTick>
        while(__HAL_RCC_GET_FLAG(RCC_FLAG_HSERDY) == RESET)
 8001cb8:	2780      	movs	r7, #128	@ 0x80
        tickstart = HAL_GetTick();
 8001cba:	0006      	movs	r6, r0
        while(__HAL_RCC_GET_FLAG(RCC_FLAG_HSERDY) == RESET)
 8001cbc:	02bf      	lsls	r7, r7, #10
 8001cbe:	682b      	ldr	r3, [r5, #0]
 8001cc0:	423b      	tst	r3, r7
 8001cc2:	d1a2      	bne.n	8001c0a <HAL_RCC_OscConfig+0x16>
          if((HAL_GetTick() - tickstart ) > HSE_TIMEOUT_VALUE)
 8001cc4:	f7ff f9e4 	bl	8001090 <HAL_GetTick>
 8001cc8:	1b80      	subs	r0, r0, r6
 8001cca:	2864      	cmp	r0, #100	@ 0x64
 8001ccc:	d9f7      	bls.n	8001cbe <HAL_RCC_OscConfig+0xca>
            return HAL_TIMEOUT;
 8001cce:	2003      	movs	r0, #3
 8001cd0:	e796      	b.n	8001c00 <HAL_RCC_OscConfig+0xc>
      __HAL_RCC_HSE_CONFIG(RCC_OscInitStruct->HSEState);
 8001cd2:	2b00      	cmp	r3, #0
 8001cd4:	d115      	bne.n	8001d02 <HAL_RCC_OscConfig+0x10e>
 8001cd6:	682b      	ldr	r3, [r5, #0]
 8001cd8:	4a8f      	ldr	r2, [pc, #572]	@ (8001f18 <HAL_RCC_OscConfig+0x324>)
        while(__HAL_RCC_GET_FLAG(RCC_FLAG_HSERDY) != RESET)
 8001cda:	2780      	movs	r7, #128	@ 0x80
      __HAL_RCC_HSE_CONFIG(RCC_OscInitStruct->HSEState);
 8001cdc:	4013      	ands	r3, r2
 8001cde:	602b      	str	r3, [r5, #0]
 8001ce0:	682b      	ldr	r3, [r5, #0]
 8001ce2:	4a8e      	ldr	r2, [pc, #568]	@ (8001f1c <HAL_RCC_OscConfig+0x328>)
        while(__HAL_RCC_GET_FLAG(RCC_FLAG_HSERDY) != RESET)
 8001ce4:	02bf      	lsls	r7, r7, #10
      __HAL_RCC_HSE_CONFIG(RCC_OscInitStruct->HSEState);
 8001ce6:	4013      	ands	r3, r2
 8001ce8:	602b      	str	r3, [r5, #0]
        tickstart = HAL_GetTick();
 8001cea:	f7ff f9d1 	bl	8001090 <HAL_GetTick>
 8001cee:	0006      	movs	r6, r0
        while(__HAL_RCC_GET_FLAG(RCC_FLAG_HSERDY) != RESET)
 8001cf0:	682b      	ldr	r3, [r5, #0]
 8001cf2:	423b      	tst	r3, r7
 8001cf4:	d089      	beq.n	8001c0a <HAL_RCC_OscConfig+0x16>
           if((HAL_GetTick() - tickstart ) > HSE_TIMEOUT_VALUE)
 8001cf6:	f7ff f9cb 	bl	8001090 <HAL_GetTick>
 8001cfa:	1b80      	subs	r0, r0, r6
 8001cfc:	2864      	cmp	r0, #100	@ 0x64
 8001cfe:	d9f7      	bls.n	8001cf0 <HAL_RCC_OscConfig+0xfc>
 8001d00:	e7e5      	b.n	8001cce <HAL_RCC_OscConfig+0xda>
      __HAL_RCC_HSE_CONFIG(RCC_OscInitStruct->HSEState);
 8001d02:	2b05      	cmp	r3, #5
 8001d04:	d105      	bne.n	8001d12 <HAL_RCC_OscConfig+0x11e>
 8001d06:	2380      	movs	r3, #128	@ 0x80
 8001d08:	682a      	ldr	r2, [r5, #0]
 8001d0a:	02db      	lsls	r3, r3, #11
 8001d0c:	4313      	orrs	r3, r2
 8001d0e:	602b      	str	r3, [r5, #0]
 8001d10:	e7cb      	b.n	8001caa <HAL_RCC_OscConfig+0xb6>
 8001d12:	682b      	ldr	r3, [r5, #0]
 8001d14:	4a80      	ldr	r2, [pc, #512]	@ (8001f18 <HAL_RCC_OscConfig+0x324>)
 8001d16:	4013      	ands	r3, r2
 8001d18:	602b      	str	r3, [r5, #0]
 8001d1a:	682b      	ldr	r3, [r5, #0]
 8001d1c:	4a7f      	ldr	r2, [pc, #508]	@ (8001f1c <HAL_RCC_OscConfig+0x328>)
 8001d1e:	4013      	ands	r3, r2
 8001d20:	e7c7      	b.n	8001cb2 <HAL_RCC_OscConfig+0xbe>
    if((__HAL_RCC_GET_SYSCLK_SOURCE() == RCC_SYSCLKSOURCE_STATUS_HSI) 
 8001d22:	220c      	movs	r2, #12
 8001d24:	4d7b      	ldr	r5, [pc, #492]	@ (8001f14 <HAL_RCC_OscConfig+0x320>)
 8001d26:	686b      	ldr	r3, [r5, #4]
 8001d28:	4213      	tst	r3, r2
 8001d2a:	d00b      	beq.n	8001d44 <HAL_RCC_OscConfig+0x150>
       || ((__HAL_RCC_GET_SYSCLK_SOURCE() == RCC_SYSCLKSOURCE_STATUS_PLLCLK) && (__HAL_RCC_GET_PLL_OSCSOURCE() == RCC_PLLSOURCE_HSI)))
 8001d2c:	686b      	ldr	r3, [r5, #4]
 8001d2e:	4013      	ands	r3, r2
 8001d30:	2b08      	cmp	r3, #8
 8001d32:	d116      	bne.n	8001d62 <HAL_RCC_OscConfig+0x16e>
 8001d34:	22c0      	movs	r2, #192	@ 0xc0
 8001d36:	686b      	ldr	r3, [r5, #4]
 8001d38:	0252      	lsls	r2, r2, #9
 8001d3a:	4013      	ands	r3, r2
 8001d3c:	2280      	movs	r2, #128	@ 0x80
 8001d3e:	0212      	lsls	r2, r2, #8
 8001d40:	4293      	cmp	r3, r2
 8001d42:	d10e      	bne.n	8001d62 <HAL_RCC_OscConfig+0x16e>
      if((__HAL_RCC_GET_FLAG(RCC_FLAG_HSIRDY) != RESET) && (RCC_OscInitStruct->HSIState != RCC_HSI_ON))
 8001d44:	682b      	ldr	r3, [r5, #0]
 8001d46:	079b      	lsls	r3, r3, #30
 8001d48:	d503      	bpl.n	8001d52 <HAL_RCC_OscConfig+0x15e>
 8001d4a:	68e3      	ldr	r3, [r4, #12]
 8001d4c:	2b01      	cmp	r3, #1
 8001d4e:	d000      	beq.n	8001d52 <HAL_RCC_OscConfig+0x15e>
 8001d50:	e755      	b.n	8001bfe <HAL_RCC_OscConfig+0xa>
        __HAL_RCC_HSI_CALIBRATIONVALUE_ADJUST(RCC_OscInitStruct->HSICalibrationValue);
 8001d52:	21f8      	movs	r1, #248	@ 0xf8
 8001d54:	682a      	ldr	r2, [r5, #0]
 8001d56:	6923      	ldr	r3, [r4, #16]
 8001d58:	438a      	bics	r2, r1
 8001d5a:	00db      	lsls	r3, r3, #3
 8001d5c:	4313      	orrs	r3, r2
 8001d5e:	602b      	str	r3, [r5, #0]
 8001d60:	e757      	b.n	8001c12 <HAL_RCC_OscConfig+0x1e>
      if(RCC_OscInitStruct->HSIState != RCC_HSI_OFF)
 8001d62:	68e2      	ldr	r2, [r4, #12]
 8001d64:	2301      	movs	r3, #1
 8001d66:	2a00      	cmp	r2, #0
 8001d68:	d00f      	beq.n	8001d8a <HAL_RCC_OscConfig+0x196>
        __HAL_RCC_HSI_ENABLE();
 8001d6a:	682a      	ldr	r2, [r5, #0]
        while(__HAL_RCC_GET_FLAG(RCC_FLAG_HSIRDY) == RESET)
 8001d6c:	2702      	movs	r7, #2
        __HAL_RCC_HSI_ENABLE();
 8001d6e:	4313      	orrs	r3, r2
 8001d70:	602b      	str	r3, [r5, #0]
        tickstart = HAL_GetTick();
 8001d72:	f7ff f98d 	bl	8001090 <HAL_GetTick>
 8001d76:	0006      	movs	r6, r0
        while(__HAL_RCC_GET_FLAG(RCC_FLAG_HSIRDY) == RESET)
 8001d78:	682b      	ldr	r3, [r5, #0]
 8001d7a:	423b      	tst	r3, r7
 8001d7c:	d1e9      	bne.n	8001d52 <HAL_RCC_OscConfig+0x15e>
          if((HAL_GetTick() - tickstart ) > HSI_TIMEOUT_VALUE)
 8001d7e:	f7ff f987 	bl	8001090 <HAL_GetTick>
 8001d82:	1b80      	subs	r0, r0, r6
 8001d84:	2802      	cmp	r0, #2
 8001d86:	d9f7      	bls.n	8001d78 <HAL_RCC_OscConfig+0x184>
 8001d88:	e7a1      	b.n	8001cce <HAL_RCC_OscConfig+0xda>
        __HAL_RCC_HSI_DISABLE();
 8001d8a:	682a      	ldr	r2, [r5, #0]
        while(__HAL_RCC_GET_FLAG(RCC_FLAG_HSIRDY) != RESET)
 8001d8c:	2702      	movs	r7, #2
        __HAL_RCC_HSI_DISABLE();
 8001d8e:	439a      	bics	r2, r3
 8001d90:	602a      	str	r2, [r5, #0]
        tickstart = HAL_GetTick();
 8001d92:	f7ff f97d 	bl	8001090 <HAL_GetTick>
 8001d96:	0006      	movs	r6, r0
        while(__HAL_RCC_GET_FLAG(RCC_FLAG_HSIRDY) != RESET)
 8001d98:	682b      	ldr	r3, [r5, #0]
 8001d9a:	423b      	tst	r3, r7
 8001d9c:	d100      	bne.n	8001da0 <HAL_RCC_OscConfig+0x1ac>
 8001d9e:	e738      	b.n	8001c12 <HAL_RCC_OscConfig+0x1e>
          if((HAL_GetTick() - tickstart ) > HSI_TIMEOUT_VALUE)
 8001da0:	f7ff f976 	bl	8001090 <HAL_GetTick>
 8001da4:	1b80      	subs	r0, r0, r6
 8001da6:	2802      	cmp	r0, #2
 8001da8:	d9f6      	bls.n	8001d98 <HAL_RCC_OscConfig+0x1a4>
 8001daa:	e790      	b.n	8001cce <HAL_RCC_OscConfig+0xda>
    if(RCC_OscInitStruct->LSIState != RCC_LSI_OFF)
 8001dac:	69e2      	ldr	r2, [r4, #28]
 8001dae:	2301      	movs	r3, #1
 8001db0:	4d58      	ldr	r5, [pc, #352]	@ (8001f14 <HAL_RCC_OscConfig+0x320>)
 8001db2:	2a00      	cmp	r2, #0
 8001db4:	d010      	beq.n	8001dd8 <HAL_RCC_OscConfig+0x1e4>
      __HAL_RCC_LSI_ENABLE();
 8001db6:	6a6a      	ldr	r2, [r5, #36]	@ 0x24
      while(__HAL_RCC_GET_FLAG(RCC_FLAG_LSIRDY) == RESET)
 8001db8:	2702      	movs	r7, #2
      __HAL_RCC_LSI_ENABLE();
 8001dba:	4313      	orrs	r3, r2
 8001dbc:	626b      	str	r3, [r5, #36]	@ 0x24
      tickstart = HAL_GetTick();
 8001dbe:	f7ff f967 	bl	8001090 <HAL_GetTick>
 8001dc2:	0006      	movs	r6, r0
      while(__HAL_RCC_GET_FLAG(RCC_FLAG_LSIRDY) == RESET)
 8001dc4:	6a6b      	ldr	r3, [r5, #36]	@ 0x24
 8001dc6:	423b      	tst	r3, r7
 8001dc8:	d000      	beq.n	8001dcc <HAL_RCC_OscConfig+0x1d8>
 8001dca:	e726      	b.n	8001c1a <HAL_RCC_OscConfig+0x26>
        if((HAL_GetTick() - tickstart ) > LSI_TIMEOUT_VALUE)
 8001dcc:	f7ff f960 	bl	8001090 <HAL_GetTick>
 8001dd0:	1b80      	subs	r0, r0, r6
 8001dd2:	2802      	cmp	r0, #2
 8001dd4:	d9f6      	bls.n	8001dc4 <HAL_RCC_OscConfig+0x1d0>
 8001dd6:	e77a      	b.n	8001cce <HAL_RCC_OscConfig+0xda>
      __HAL_RCC_LSI_DISABLE();
 8001dd8:	6a6a      	ldr	r2, [r5, #36]	@ 0x24
      while(__HAL_RCC_GET_FLAG(RCC_FLAG_LSIRDY) != RESET)
 8001dda:	2702      	movs	r7, #2
      __HAL_RCC_LSI_DISABLE();
 8001ddc:	439a      	bics	r2, r3
 8001dde:	626a      	str	r2, [r5, #36]	@ 0x24
      tickstart = HAL_GetTick();
 8001de0:	f7ff f956 	bl	8001090 <HAL_GetTick>
 8001de4:	0006      	movs	r6, r0
      while(__HAL_RCC_GET_FLAG(RCC_FLAG_LSIRDY) != RESET)
 8001de6:	6a6b      	ldr	r3, [r5, #36]	@ 0x24
 8001de8:	423b      	tst	r3, r7
 8001dea:	d100      	bne.n	8001dee <HAL_RCC_OscConfig+0x1fa>
 8001dec:	e715      	b.n	8001c1a <HAL_RCC_OscConfig+0x26>
        if((HAL_GetTick() - tickstart ) > LSI_TIMEOUT_VALUE)
 8001dee:	f7ff f94f 	bl	8001090 <HAL_GetTick>
 8001df2:	1b80      	subs	r0, r0, r6
 8001df4:	2802      	cmp	r0, #2
 8001df6:	d9f6      	bls.n	8001de6 <HAL_RCC_OscConfig+0x1f2>
 8001df8:	e769      	b.n	8001cce <HAL_RCC_OscConfig+0xda>
    if(__HAL_RCC_PWR_IS_CLK_DISABLED())
 8001dfa:	2280      	movs	r2, #128	@ 0x80
    FlagStatus       pwrclkchanged = RESET;
 8001dfc:	2100      	movs	r1, #0
    if(__HAL_RCC_PWR_IS_CLK_DISABLED())
 8001dfe:	4d45      	ldr	r5, [pc, #276]	@ (8001f14 <HAL_RCC_OscConfig+0x320>)
 8001e00:	0552      	lsls	r2, r2, #21
 8001e02:	69eb      	ldr	r3, [r5, #28]
    FlagStatus       pwrclkchanged = RESET;
 8001e04:	9100      	str	r1, [sp, #0]
    if(__HAL_RCC_PWR_IS_CLK_DISABLED())
 8001e06:	4213      	tst	r3, r2
 8001e08:	d108      	bne.n	8001e1c <HAL_RCC_OscConfig+0x228>
      __HAL_RCC_PWR_CLK_ENABLE();
 8001e0a:	69eb      	ldr	r3, [r5, #28]
 8001e0c:	4313      	orrs	r3, r2
 8001e0e:	61eb      	str	r3, [r5, #28]
 8001e10:	69eb      	ldr	r3, [r5, #28]
 8001e12:	4013      	ands	r3, r2
 8001e14:	9303      	str	r3, [sp, #12]
 8001e16:	9b03      	ldr	r3, [sp, #12]
      pwrclkchanged = SET;
 8001e18:	2301      	movs	r3, #1
 8001e1a:	9300      	str	r3, [sp, #0]
    if(HAL_IS_BIT_CLR(PWR->CR, PWR_CR_DBP))
 8001e1c:	2780      	movs	r7, #128	@ 0x80
 8001e1e:	4e40      	ldr	r6, [pc, #256]	@ (8001f20 <HAL_RCC_OscConfig+0x32c>)
 8001e20:	007f      	lsls	r7, r7, #1
 8001e22:	6833      	ldr	r3, [r6, #0]
 8001e24:	423b      	tst	r3, r7
 8001e26:	d015      	beq.n	8001e54 <HAL_RCC_OscConfig+0x260>
    __HAL_RCC_LSE_CONFIG(RCC_OscInitStruct->LSEState);
 8001e28:	68a3      	ldr	r3, [r4, #8]
 8001e2a:	2b01      	cmp	r3, #1
 8001e2c:	d122      	bne.n	8001e74 <HAL_RCC_OscConfig+0x280>
 8001e2e:	6a2a      	ldr	r2, [r5, #32]
 8001e30:	4313      	orrs	r3, r2
 8001e32:	622b      	str	r3, [r5, #32]
      tickstart = HAL_GetTick();
 8001e34:	f7ff f92c 	bl	8001090 <HAL_GetTick>
      while(__HAL_RCC_GET_FLAG(RCC_FLAG_LSERDY) == RESET)
 8001e38:	2702      	movs	r7, #2
      tickstart = HAL_GetTick();
 8001e3a:	0006      	movs	r6, r0
      while(__HAL_RCC_GET_FLAG(RCC_FLAG_LSERDY) == RESET)
 8001e3c:	6a2b      	ldr	r3, [r5, #32]
 8001e3e:	423b      	tst	r3, r7
 8001e40:	d03f      	beq.n	8001ec2 <HAL_RCC_OscConfig+0x2ce>
    if(pwrclkchanged == SET)
 8001e42:	9b00      	ldr	r3, [sp, #0]
 8001e44:	2b01      	cmp	r3, #1
 8001e46:	d000      	beq.n	8001e4a <HAL_RCC_OscConfig+0x256>
 8001e48:	e6eb      	b.n	8001c22 <HAL_RCC_OscConfig+0x2e>
      __HAL_RCC_PWR_CLK_DISABLE();
 8001e4a:	69eb      	ldr	r3, [r5, #28]
 8001e4c:	4a35      	ldr	r2, [pc, #212]	@ (8001f24 <HAL_RCC_OscConfig+0x330>)
 8001e4e:	4013      	ands	r3, r2
 8001e50:	61eb      	str	r3, [r5, #28]
 8001e52:	e6e6      	b.n	8001c22 <HAL_RCC_OscConfig+0x2e>
      SET_BIT(PWR->CR, PWR_CR_DBP);
 8001e54:	6833      	ldr	r3, [r6, #0]
 8001e56:	433b      	orrs	r3, r7
 8001e58:	6033      	str	r3, [r6, #0]
      tickstart = HAL_GetTick();
 8001e5a:	f7ff f919 	bl	8001090 <HAL_GetTick>
 8001e5e:	9001      	str	r0, [sp, #4]
      while(HAL_IS_BIT_CLR(PWR->CR, PWR_CR_DBP))
 8001e60:	6833      	ldr	r3, [r6, #0]
 8001e62:	423b      	tst	r3, r7
 8001e64:	d1e0      	bne.n	8001e28 <HAL_RCC_OscConfig+0x234>
        if((HAL_GetTick() - tickstart) > RCC_DBP_TIMEOUT_VALUE)
 8001e66:	f7ff f913 	bl	8001090 <HAL_GetTick>
 8001e6a:	9b01      	ldr	r3, [sp, #4]
 8001e6c:	1ac0      	subs	r0, r0, r3
 8001e6e:	2864      	cmp	r0, #100	@ 0x64
 8001e70:	d9f6      	bls.n	8001e60 <HAL_RCC_OscConfig+0x26c>
 8001e72:	e72c      	b.n	8001cce <HAL_RCC_OscConfig+0xda>
    __HAL_RCC_LSE_CONFIG(RCC_OscInitStruct->LSEState);
 8001e74:	2201      	movs	r2, #1
 8001e76:	2b00      	cmp	r3, #0
 8001e78:	d114      	bne.n	8001ea4 <HAL_RCC_OscConfig+0x2b0>
 8001e7a:	6a2b      	ldr	r3, [r5, #32]
      while(__HAL_RCC_GET_FLAG(RCC_FLAG_LSERDY) != RESET)
 8001e7c:	2702      	movs	r7, #2
    __HAL_RCC_LSE_CONFIG(RCC_OscInitStruct->LSEState);
 8001e7e:	4393      	bics	r3, r2
 8001e80:	622b      	str	r3, [r5, #32]
 8001e82:	6a2b      	ldr	r3, [r5, #32]
 8001e84:	3203      	adds	r2, #3
 8001e86:	4393      	bics	r3, r2
 8001e88:	622b      	str	r3, [r5, #32]
      tickstart = HAL_GetTick();
 8001e8a:	f7ff f901 	bl	8001090 <HAL_GetTick>
 8001e8e:	0006      	movs	r6, r0
      while(__HAL_RCC_GET_FLAG(RCC_FLAG_LSERDY) != RESET)
 8001e90:	6a2b      	ldr	r3, [r5, #32]
 8001e92:	423b      	tst	r3, r7
 8001e94:	d0d5      	beq.n	8001e42 <HAL_RCC_OscConfig+0x24e>
        if((HAL_GetTick() - tickstart ) > RCC_LSE_TIMEOUT_VALUE)
 8001e96:	f7ff f8fb 	bl	8001090 <HAL_GetTick>
 8001e9a:	4b23      	ldr	r3, [pc, #140]	@ (8001f28 <HAL_RCC_OscConfig+0x334>)
 8001e9c:	1b80      	subs	r0, r0, r6
 8001e9e:	4298      	cmp	r0, r3
 8001ea0:	d9f6      	bls.n	8001e90 <HAL_RCC_OscConfig+0x29c>
 8001ea2:	e714      	b.n	8001cce <HAL_RCC_OscConfig+0xda>
    __HAL_RCC_LSE_CONFIG(RCC_OscInitStruct->LSEState);
 8001ea4:	2b05      	cmp	r3, #5
 8001ea6:	d105      	bne.n	8001eb4 <HAL_RCC_OscConfig+0x2c0>
 8001ea8:	6a29      	ldr	r1, [r5, #32]
 8001eaa:	3b01      	subs	r3, #1
 8001eac:	430b      	orrs	r3, r1
 8001eae:	622b      	str	r3, [r5, #32]
 8001eb0:	6a2b      	ldr	r3, [r5, #32]
 8001eb2:	e7bd      	b.n	8001e30 <HAL_RCC_OscConfig+0x23c>
 8001eb4:	6a2b      	ldr	r3, [r5, #32]
 8001eb6:	4393      	bics	r3, r2
 8001eb8:	2204      	movs	r2, #4
 8001eba:	622b      	str	r3, [r5, #32]
 8001ebc:	6a2b      	ldr	r3, [r5, #32]
 8001ebe:	4393      	bics	r3, r2
 8001ec0:	e7b7      	b.n	8001e32 <HAL_RCC_OscConfig+0x23e>
        if((HAL_GetTick() - tickstart ) > RCC_LSE_TIMEOUT_VALUE)
 8001ec2:	f7ff f8e5 	bl	8001090 <HAL_GetTick>
 8001ec6:	4b18      	ldr	r3, [pc, #96]	@ (8001f28 <HAL_RCC_OscConfig+0x334>)
 8001ec8:	1b80      	subs	r0, r0, r6
 8001eca:	4298      	cmp	r0, r3
 8001ecc:	d9b6      	bls.n	8001e3c <HAL_RCC_OscConfig+0x248>
 8001ece:	e6fe      	b.n	8001cce <HAL_RCC_OscConfig+0xda>
        if((HAL_GetTick() - tickstart) > HSI14_TIMEOUT_VALUE)
 8001ed0:	f7ff f8de 	bl	8001090 <HAL_GetTick>
 8001ed4:	1b80      	subs	r0, r0, r6
 8001ed6:	2802      	cmp	r0, #2
 8001ed8:	d800      	bhi.n	8001edc <HAL_RCC_OscConfig+0x2e8>
 8001eda:	e6b5      	b.n	8001c48 <HAL_RCC_OscConfig+0x54>
 8001edc:	e6f7      	b.n	8001cce <HAL_RCC_OscConfig+0xda>
    else if(RCC_OscInitStruct->HSI14State == RCC_HSI14_ADC_CONTROL)
 8001ede:	3205      	adds	r2, #5
 8001ee0:	d103      	bne.n	8001eea <HAL_RCC_OscConfig+0x2f6>
      __HAL_RCC_HSI14ADC_ENABLE();
 8001ee2:	6b6a      	ldr	r2, [r5, #52]	@ 0x34
 8001ee4:	439a      	bics	r2, r3
 8001ee6:	636a      	str	r2, [r5, #52]	@ 0x34
 8001ee8:	e6b2      	b.n	8001c50 <HAL_RCC_OscConfig+0x5c>
      __HAL_RCC_HSI14ADC_DISABLE();
 8001eea:	6b6a      	ldr	r2, [r5, #52]	@ 0x34
      while(__HAL_RCC_GET_FLAG(RCC_FLAG_HSI14RDY) != RESET)
 8001eec:	2702      	movs	r7, #2
      __HAL_RCC_HSI14ADC_DISABLE();
 8001eee:	4313      	orrs	r3, r2
      __HAL_RCC_HSI14_DISABLE();
 8001ef0:	2201      	movs	r2, #1
      __HAL_RCC_HSI14ADC_DISABLE();
 8001ef2:	636b      	str	r3, [r5, #52]	@ 0x34
      __HAL_RCC_HSI14_DISABLE();
 8001ef4:	6b6b      	ldr	r3, [r5, #52]	@ 0x34
 8001ef6:	4393      	bics	r3, r2
 8001ef8:	636b      	str	r3, [r5, #52]	@ 0x34
      tickstart = HAL_GetTick();
 8001efa:	f7ff f8c9 	bl	8001090 <HAL_GetTick>
 8001efe:	0006      	movs	r6, r0
      while(__HAL_RCC_GET_FLAG(RCC_FLAG_HSI14RDY) != RESET)
 8001f00:	6b6b      	ldr	r3, [r5, #52]	@ 0x34
 8001f02:	423b      	tst	r3, r7
 8001f04:	d100      	bne.n	8001f08 <HAL_RCC_OscConfig+0x314>
 8001f06:	e6aa      	b.n	8001c5e <HAL_RCC_OscConfig+0x6a>
        if((HAL_GetTick() - tickstart) > HSI14_TIMEOUT_VALUE)
 8001f08:	f7ff f8c2 	bl	8001090 <HAL_GetTick>
 8001f0c:	1b80      	subs	r0, r0, r6
 8001f0e:	2802      	cmp	r0, #2
 8001f10:	d9f6      	bls.n	8001f00 <HAL_RCC_OscConfig+0x30c>
 8001f12:	e6dc      	b.n	8001cce <HAL_RCC_OscConfig+0xda>
 8001f14:	40021000 	.word	0x40021000
 8001f18:	fffeffff 	.word	0xfffeffff
 8001f1c:	fffbffff 	.word	0xfffbffff
 8001f20:	40007000 	.word	0x40007000
 8001f24:	efffffff 	.word	0xefffffff
 8001f28:	00001388 	.word	0x00001388
    if((__HAL_RCC_GET_SYSCLK_SOURCE() == RCC_SYSCLKSOURCE_STATUS_HSI48) ||
 8001f2c:	220c      	movs	r2, #12
 8001f2e:	4d55      	ldr	r5, [pc, #340]	@ (8002084 <HAL_RCC_OscConfig+0x490>)
 8001f30:	686b      	ldr	r3, [r5, #4]
 8001f32:	4013      	ands	r3, r2
 8001f34:	4293      	cmp	r3, r2
 8001f36:	d009      	beq.n	8001f4c <HAL_RCC_OscConfig+0x358>
       ((__HAL_RCC_GET_SYSCLK_SOURCE() == RCC_SYSCLKSOURCE_STATUS_PLLCLK) && (__HAL_RCC_GET_PLL_OSCSOURCE() == RCC_PLLSOURCE_HSI48)))
 8001f38:	686b      	ldr	r3, [r5, #4]
 8001f3a:	4013      	ands	r3, r2
    if((__HAL_RCC_GET_SYSCLK_SOURCE() == RCC_SYSCLKSOURCE_STATUS_HSI48) ||
 8001f3c:	2b08      	cmp	r3, #8
 8001f3e:	d10e      	bne.n	8001f5e <HAL_RCC_OscConfig+0x36a>
       ((__HAL_RCC_GET_SYSCLK_SOURCE() == RCC_SYSCLKSOURCE_STATUS_PLLCLK) && (__HAL_RCC_GET_PLL_OSCSOURCE() == RCC_PLLSOURCE_HSI48)))
 8001f40:	22c0      	movs	r2, #192	@ 0xc0
 8001f42:	686b      	ldr	r3, [r5, #4]
 8001f44:	0252      	lsls	r2, r2, #9
 8001f46:	4013      	ands	r3, r2
 8001f48:	4293      	cmp	r3, r2
 8001f4a:	d108      	bne.n	8001f5e <HAL_RCC_OscConfig+0x36a>
      if((__HAL_RCC_GET_FLAG(RCC_FLAG_HSI48RDY) != RESET) && (RCC_OscInitStruct->HSI48State != RCC_HSI48_ON))
 8001f4c:	6b6b      	ldr	r3, [r5, #52]	@ 0x34
 8001f4e:	039b      	lsls	r3, r3, #14
 8001f50:	d400      	bmi.n	8001f54 <HAL_RCC_OscConfig+0x360>
 8001f52:	e688      	b.n	8001c66 <HAL_RCC_OscConfig+0x72>
 8001f54:	6a23      	ldr	r3, [r4, #32]
 8001f56:	2b01      	cmp	r3, #1
 8001f58:	d000      	beq.n	8001f5c <HAL_RCC_OscConfig+0x368>
 8001f5a:	e650      	b.n	8001bfe <HAL_RCC_OscConfig+0xa>
 8001f5c:	e683      	b.n	8001c66 <HAL_RCC_OscConfig+0x72>
      if(RCC_OscInitStruct->HSI48State != RCC_HSI48_OFF)
 8001f5e:	6a23      	ldr	r3, [r4, #32]
 8001f60:	2b00      	cmp	r3, #0
 8001f62:	d013      	beq.n	8001f8c <HAL_RCC_OscConfig+0x398>
        __HAL_RCC_HSI48_ENABLE();
 8001f64:	2380      	movs	r3, #128	@ 0x80
 8001f66:	6b6a      	ldr	r2, [r5, #52]	@ 0x34
 8001f68:	025b      	lsls	r3, r3, #9
 8001f6a:	4313      	orrs	r3, r2
 8001f6c:	636b      	str	r3, [r5, #52]	@ 0x34
        tickstart = HAL_GetTick();
 8001f6e:	f7ff f88f 	bl	8001090 <HAL_GetTick>
        while(__HAL_RCC_GET_FLAG(RCC_FLAG_HSI48RDY) == RESET)
 8001f72:	2780      	movs	r7, #128	@ 0x80
        tickstart = HAL_GetTick();
 8001f74:	0006      	movs	r6, r0
        while(__HAL_RCC_GET_FLAG(RCC_FLAG_HSI48RDY) == RESET)
 8001f76:	02bf      	lsls	r7, r7, #10
 8001f78:	6b6b      	ldr	r3, [r5, #52]	@ 0x34
 8001f7a:	423b      	tst	r3, r7
 8001f7c:	d000      	beq.n	8001f80 <HAL_RCC_OscConfig+0x38c>
 8001f7e:	e672      	b.n	8001c66 <HAL_RCC_OscConfig+0x72>
          if((HAL_GetTick() - tickstart) > HSI48_TIMEOUT_VALUE)
 8001f80:	f7ff f886 	bl	8001090 <HAL_GetTick>
 8001f84:	1b80      	subs	r0, r0, r6
 8001f86:	2802      	cmp	r0, #2
 8001f88:	d9f6      	bls.n	8001f78 <HAL_RCC_OscConfig+0x384>
 8001f8a:	e6a0      	b.n	8001cce <HAL_RCC_OscConfig+0xda>
        __HAL_RCC_HSI48_DISABLE();
 8001f8c:	6b6b      	ldr	r3, [r5, #52]	@ 0x34
 8001f8e:	4a3e      	ldr	r2, [pc, #248]	@ (8002088 <HAL_RCC_OscConfig+0x494>)
        while(__HAL_RCC_GET_FLAG(RCC_FLAG_HSI48RDY) != RESET)
 8001f90:	2780      	movs	r7, #128	@ 0x80
        __HAL_RCC_HSI48_DISABLE();
 8001f92:	4013      	ands	r3, r2
 8001f94:	636b      	str	r3, [r5, #52]	@ 0x34
        tickstart = HAL_GetTick();
 8001f96:	f7ff f87b 	bl	8001090 <HAL_GetTick>
 8001f9a:	0006      	movs	r6, r0
        while(__HAL_RCC_GET_FLAG(RCC_FLAG_HSI48RDY) != RESET)
 8001f9c:	02bf      	lsls	r7, r7, #10
 8001f9e:	6b6b      	ldr	r3, [r5, #52]	@ 0x34
 8001fa0:	423b      	tst	r3, r7
 8001fa2:	d100      	bne.n	8001fa6 <HAL_RCC_OscConfig+0x3b2>
 8001fa4:	e65f      	b.n	8001c66 <HAL_RCC_OscConfig+0x72>
          if((HAL_GetTick() - tickstart) > HSI48_TIMEOUT_VALUE)
 8001fa6:	f7ff f873 	bl	8001090 <HAL_GetTick>
 8001faa:	1b80      	subs	r0, r0, r6
 8001fac:	2802      	cmp	r0, #2
 8001fae:	d9f6      	bls.n	8001f9e <HAL_RCC_OscConfig+0x3aa>
 8001fb0:	e68d      	b.n	8001cce <HAL_RCC_OscConfig+0xda>
    if(__HAL_RCC_GET_SYSCLK_SOURCE() != RCC_SYSCLKSOURCE_STATUS_PLLCLK)
 8001fb2:	210c      	movs	r1, #12
 8001fb4:	4d33      	ldr	r5, [pc, #204]	@ (8002084 <HAL_RCC_OscConfig+0x490>)
 8001fb6:	686a      	ldr	r2, [r5, #4]
 8001fb8:	400a      	ands	r2, r1
 8001fba:	2a08      	cmp	r2, #8
 8001fbc:	d047      	beq.n	800204e <HAL_RCC_OscConfig+0x45a>
      if((RCC_OscInitStruct->PLL.PLLState) == RCC_PLL_ON)
 8001fbe:	4a33      	ldr	r2, [pc, #204]	@ (800208c <HAL_RCC_OscConfig+0x498>)
 8001fc0:	2b02      	cmp	r3, #2
 8001fc2:	d132      	bne.n	800202a <HAL_RCC_OscConfig+0x436>
        __HAL_RCC_PLL_DISABLE();
 8001fc4:	682b      	ldr	r3, [r5, #0]
        while(__HAL_RCC_GET_FLAG(RCC_FLAG_PLLRDY)  != RESET)
 8001fc6:	2780      	movs	r7, #128	@ 0x80
        __HAL_RCC_PLL_DISABLE();
 8001fc8:	4013      	ands	r3, r2
 8001fca:	602b      	str	r3, [r5, #0]
        tickstart = HAL_GetTick();
 8001fcc:	f7ff f860 	bl	8001090 <HAL_GetTick>
 8001fd0:	0006      	movs	r6, r0
        while(__HAL_RCC_GET_FLAG(RCC_FLAG_PLLRDY)  != RESET)
 8001fd2:	04bf      	lsls	r7, r7, #18
 8001fd4:	682b      	ldr	r3, [r5, #0]
 8001fd6:	423b      	tst	r3, r7
 8001fd8:	d121      	bne.n	800201e <HAL_RCC_OscConfig+0x42a>
        __HAL_RCC_PLL_CONFIG(RCC_OscInitStruct->PLL.PLLSource,
 8001fda:	220f      	movs	r2, #15
 8001fdc:	6aeb      	ldr	r3, [r5, #44]	@ 0x2c
        while(__HAL_RCC_GET_FLAG(RCC_FLAG_PLLRDY)  == RESET)
 8001fde:	2680      	movs	r6, #128	@ 0x80
        __HAL_RCC_PLL_CONFIG(RCC_OscInitStruct->PLL.PLLSource,
 8001fe0:	4393      	bics	r3, r2
 8001fe2:	6b22      	ldr	r2, [r4, #48]	@ 0x30
        while(__HAL_RCC_GET_FLAG(RCC_FLAG_PLLRDY)  == RESET)
 8001fe4:	04b6      	lsls	r6, r6, #18
        __HAL_RCC_PLL_CONFIG(RCC_OscInitStruct->PLL.PLLSource,
 8001fe6:	4313      	orrs	r3, r2
 8001fe8:	62eb      	str	r3, [r5, #44]	@ 0x2c
 8001fea:	6aa1      	ldr	r1, [r4, #40]	@ 0x28
 8001fec:	6ae3      	ldr	r3, [r4, #44]	@ 0x2c
 8001fee:	686a      	ldr	r2, [r5, #4]
 8001ff0:	430b      	orrs	r3, r1
 8001ff2:	4927      	ldr	r1, [pc, #156]	@ (8002090 <HAL_RCC_OscConfig+0x49c>)
 8001ff4:	400a      	ands	r2, r1
 8001ff6:	4313      	orrs	r3, r2
 8001ff8:	606b      	str	r3, [r5, #4]
        __HAL_RCC_PLL_ENABLE();
 8001ffa:	2380      	movs	r3, #128	@ 0x80
 8001ffc:	682a      	ldr	r2, [r5, #0]
 8001ffe:	045b      	lsls	r3, r3, #17
 8002000:	4313      	orrs	r3, r2
 8002002:	602b      	str	r3, [r5, #0]
        tickstart = HAL_GetTick();
 8002004:	f7ff f844 	bl	8001090 <HAL_GetTick>
 8002008:	0004      	movs	r4, r0
        while(__HAL_RCC_GET_FLAG(RCC_FLAG_PLLRDY)  == RESET)
 800200a:	682b      	ldr	r3, [r5, #0]
 800200c:	4233      	tst	r3, r6
 800200e:	d000      	beq.n	8002012 <HAL_RCC_OscConfig+0x41e>
 8002010:	e62d      	b.n	8001c6e <HAL_RCC_OscConfig+0x7a>
          if((HAL_GetTick() - tickstart ) > PLL_TIMEOUT_VALUE)
 8002012:	f7ff f83d 	bl	8001090 <HAL_GetTick>
 8002016:	1b00      	subs	r0, r0, r4
 8002018:	2802      	cmp	r0, #2
 800201a:	d9f6      	bls.n	800200a <HAL_RCC_OscConfig+0x416>
 800201c:	e657      	b.n	8001cce <HAL_RCC_OscConfig+0xda>
          if((HAL_GetTick() - tickstart ) > PLL_TIMEOUT_VALUE)
 800201e:	f7ff f837 	bl	8001090 <HAL_GetTick>
 8002022:	1b80      	subs	r0, r0, r6
 8002024:	2802      	cmp	r0, #2
 8002026:	d9d5      	bls.n	8001fd4 <HAL_RCC_OscConfig+0x3e0>
 8002028:	e651      	b.n	8001cce <HAL_RCC_OscConfig+0xda>
        __HAL_RCC_PLL_DISABLE();
 800202a:	682b      	ldr	r3, [r5, #0]
        while(__HAL_RCC_GET_FLAG(RCC_FLAG_PLLRDY)  != RESET)
 800202c:	2680      	movs	r6, #128	@ 0x80
        __HAL_RCC_PLL_DISABLE();
 800202e:	4013      	ands	r3, r2
 8002030:	602b      	str	r3, [r5, #0]
        tickstart = HAL_GetTick();
 8002032:	f7ff f82d 	bl	8001090 <HAL_GetTick>
 8002036:	0004      	movs	r4, r0
        while(__HAL_RCC_GET_FLAG(RCC_FLAG_PLLRDY)  != RESET)
 8002038:	04b6      	lsls	r6, r6, #18
 800203a:	682b      	ldr	r3, [r5, #0]
 800203c:	4233      	tst	r3, r6
 800203e:	d100      	bne.n	8002042 <HAL_RCC_OscConfig+0x44e>
 8002040:	e615      	b.n	8001c6e <HAL_RCC_OscConfig+0x7a>
          if((HAL_GetTick() - tickstart ) > PLL_TIMEOUT_VALUE)
 8002042:	f7ff f825 	bl	8001090 <HAL_GetTick>
 8002046:	1b00      	subs	r0, r0, r4
 8002048:	2802      	cmp	r0, #2
 800204a:	d9f6      	bls.n	800203a <HAL_RCC_OscConfig+0x446>
 800204c:	e63f      	b.n	8001cce <HAL_RCC_OscConfig+0xda>
      if((RCC_OscInitStruct->PLL.PLLState) == RCC_PLL_OFF)
 800204e:	2b01      	cmp	r3, #1
 8002050:	d100      	bne.n	8002054 <HAL_RCC_OscConfig+0x460>
 8002052:	e5d4      	b.n	8001bfe <HAL_RCC_OscConfig+0xa>
        if((READ_BIT(pll_config,  RCC_CFGR_PLLSRC)  != RCC_OscInitStruct->PLL.PLLSource) ||
 8002054:	22c0      	movs	r2, #192	@ 0xc0
        pll_config  = RCC->CFGR;
 8002056:	6868      	ldr	r0, [r5, #4]
        if((READ_BIT(pll_config,  RCC_CFGR_PLLSRC)  != RCC_OscInitStruct->PLL.PLLSource) ||
 8002058:	6aa1      	ldr	r1, [r4, #40]	@ 0x28
 800205a:	0252      	lsls	r2, r2, #9
        pll_config2 = RCC->CFGR2;
 800205c:	6aeb      	ldr	r3, [r5, #44]	@ 0x2c
        if((READ_BIT(pll_config,  RCC_CFGR_PLLSRC)  != RCC_OscInitStruct->PLL.PLLSource) ||
 800205e:	4002      	ands	r2, r0
 8002060:	428a      	cmp	r2, r1
 8002062:	d000      	beq.n	8002066 <HAL_RCC_OscConfig+0x472>
 8002064:	e5cb      	b.n	8001bfe <HAL_RCC_OscConfig+0xa>
           (READ_BIT(pll_config2, RCC_CFGR2_PREDIV) != RCC_OscInitStruct->PLL.PREDIV)    ||
 8002066:	220f      	movs	r2, #15
 8002068:	4013      	ands	r3, r2
        if((READ_BIT(pll_config,  RCC_CFGR_PLLSRC)  != RCC_OscInitStruct->PLL.PLLSource) ||
 800206a:	6b22      	ldr	r2, [r4, #48]	@ 0x30
 800206c:	4293      	cmp	r3, r2
 800206e:	d000      	beq.n	8002072 <HAL_RCC_OscConfig+0x47e>
 8002070:	e5c5      	b.n	8001bfe <HAL_RCC_OscConfig+0xa>
           (READ_BIT(pll_config,  RCC_CFGR_PLLMUL)  != RCC_OscInitStruct->PLL.PLLMUL))
 8002072:	23f0      	movs	r3, #240	@ 0xf0
 8002074:	039b      	lsls	r3, r3, #14
 8002076:	4018      	ands	r0, r3
           (READ_BIT(pll_config2, RCC_CFGR2_PREDIV) != RCC_OscInitStruct->PLL.PREDIV)    ||
 8002078:	6ae3      	ldr	r3, [r4, #44]	@ 0x2c
 800207a:	1ac0      	subs	r0, r0, r3
 800207c:	1e43      	subs	r3, r0, #1
 800207e:	4198      	sbcs	r0, r3
 8002080:	b2c0      	uxtb	r0, r0
 8002082:	e5bd      	b.n	8001c00 <HAL_RCC_OscConfig+0xc>
 8002084:	40021000 	.word	0x40021000
 8002088:	fffeffff 	.word	0xfffeffff
 800208c:	feffffff 	.word	0xfeffffff
 8002090:	ffc27fff 	.word	0xffc27fff

08002094 <HAL_RCC_GetSysClockFreq>:
  uint32_t sysclockfreq = 0U;
  
  tmpreg = RCC->CFGR;
  
  /* Get SYSCLK source -------------------------------------------------------*/
  switch (tmpreg & RCC_CFGR_SWS)
 8002094:	200c      	movs	r0, #12
{
 8002096:	b570      	push	{r4, r5, r6, lr}
  tmpreg = RCC->CFGR;
 8002098:	4d13      	ldr	r5, [pc, #76]	@ (80020e8 <HAL_RCC_GetSysClockFreq+0x54>)
 800209a:	686b      	ldr	r3, [r5, #4]
  switch (tmpreg & RCC_CFGR_SWS)
 800209c:	4018      	ands	r0, r3
 800209e:	2808      	cmp	r0, #8
 80020a0:	d008      	beq.n	80020b4 <HAL_RCC_GetSysClockFreq+0x20>
  {
    case RCC_SYSCLKSOURCE_STATUS_HSE:  /* HSE used as system clock */
    {
      sysclockfreq = HSE_VALUE;
 80020a2:	380c      	subs	r0, #12
 80020a4:	4243      	negs	r3, r0
 80020a6:	4158      	adcs	r0, r3
 80020a8:	4b10      	ldr	r3, [pc, #64]	@ (80020ec <HAL_RCC_GetSysClockFreq+0x58>)
 80020aa:	4240      	negs	r0, r0
 80020ac:	4018      	ands	r0, r3
 80020ae:	4b10      	ldr	r3, [pc, #64]	@ (80020f0 <HAL_RCC_GetSysClockFreq+0x5c>)
 80020b0:	18c0      	adds	r0, r0, r3
      sysclockfreq = HSI_VALUE;
      break;
    }
  }
  return sysclockfreq;
}
 80020b2:	bd70      	pop	{r4, r5, r6, pc}
      pllmul = aPLLMULFactorTable[(uint32_t)(tmpreg & RCC_CFGR_PLLMUL) >> RCC_CFGR_PLLMUL_BITNUMBER];
 80020b4:	200f      	movs	r0, #15
 80020b6:	490f      	ldr	r1, [pc, #60]	@ (80020f4 <HAL_RCC_GetSysClockFreq+0x60>)
 80020b8:	0c9a      	lsrs	r2, r3, #18
 80020ba:	4002      	ands	r2, r0
 80020bc:	5c8c      	ldrb	r4, [r1, r2]
      prediv = aPredivFactorTable[(uint32_t)(RCC->CFGR2 & RCC_CFGR2_PREDIV) >> RCC_CFGR2_PREDIV_BITNUMBER];
 80020be:	6aea      	ldr	r2, [r5, #44]	@ 0x2c
 80020c0:	490d      	ldr	r1, [pc, #52]	@ (80020f8 <HAL_RCC_GetSysClockFreq+0x64>)
 80020c2:	4002      	ands	r2, r0
 80020c4:	5c89      	ldrb	r1, [r1, r2]
      if ((tmpreg & RCC_CFGR_PLLSRC) == RCC_PLLSOURCE_HSE)
 80020c6:	22c0      	movs	r2, #192	@ 0xc0
 80020c8:	2080      	movs	r0, #128	@ 0x80
 80020ca:	0252      	lsls	r2, r2, #9
 80020cc:	4013      	ands	r3, r2
 80020ce:	0240      	lsls	r0, r0, #9
 80020d0:	4283      	cmp	r3, r0
 80020d2:	d101      	bne.n	80020d8 <HAL_RCC_GetSysClockFreq+0x44>
        pllclk = (uint32_t)((uint64_t) HSI_VALUE / (uint64_t) (prediv)) * ((uint64_t) pllmul);
 80020d4:	4806      	ldr	r0, [pc, #24]	@ (80020f0 <HAL_RCC_GetSysClockFreq+0x5c>)
 80020d6:	e002      	b.n	80020de <HAL_RCC_GetSysClockFreq+0x4a>
      else if ((tmpreg & RCC_CFGR_PLLSRC) == RCC_PLLSOURCE_HSI48)
 80020d8:	4293      	cmp	r3, r2
 80020da:	d1fb      	bne.n	80020d4 <HAL_RCC_GetSysClockFreq+0x40>
        pllclk = (uint32_t)((uint64_t) HSI48_VALUE / (uint64_t) (prediv)) * ((uint64_t) pllmul);
 80020dc:	4807      	ldr	r0, [pc, #28]	@ (80020fc <HAL_RCC_GetSysClockFreq+0x68>)
        pllclk = (uint32_t)((uint64_t) HSI_VALUE / (uint64_t) (prediv)) * ((uint64_t) pllmul);
 80020de:	f7fe f82f 	bl	8000140 <__udivsi3>
 80020e2:	4360      	muls	r0, r4
 80020e4:	e7e5      	b.n	80020b2 <HAL_RCC_GetSysClockFreq+0x1e>
 80020e6:	46c0      	nop			@ (mov r8, r8)
 80020e8:	40021000 	.word	0x40021000
 80020ec:	02625a00 	.word	0x02625a00
 80020f0:	007a1200 	.word	0x007a1200
 80020f4:	08003f9a 	.word	0x08003f9a
 80020f8:	08003f8a 	.word	0x08003f8a
 80020fc:	02dc6c00 	.word	0x02dc6c00

08002100 <HAL_RCC_ClockConfig>:
{
 8002100:	b5f7      	push	{r0, r1, r2, r4, r5, r6, r7, lr}
 8002102:	0004      	movs	r4, r0
 8002104:	000f      	movs	r7, r1
  if(RCC_ClkInitStruct == NULL)
 8002106:	2800      	cmp	r0, #0
 8002108:	d101      	bne.n	800210e <HAL_RCC_ClockConfig+0xe>
    return HAL_ERROR;
 800210a:	2001      	movs	r0, #1
}
 800210c:	bdfe      	pop	{r1, r2, r3, r4, r5, r6, r7, pc}
  if(FLatency > __HAL_FLASH_GET_LATENCY())
 800210e:	2201      	movs	r2, #1
 8002110:	4d3a      	ldr	r5, [pc, #232]	@ (80021fc <HAL_RCC_ClockConfig+0xfc>)
 8002112:	682b      	ldr	r3, [r5, #0]
 8002114:	4013      	ands	r3, r2
 8002116:	428b      	cmp	r3, r1
 8002118:	d31c      	bcc.n	8002154 <HAL_RCC_ClockConfig+0x54>
  if(((RCC_ClkInitStruct->ClockType) & RCC_CLOCKTYPE_HCLK) == RCC_CLOCKTYPE_HCLK)
 800211a:	6822      	ldr	r2, [r4, #0]
 800211c:	0793      	lsls	r3, r2, #30
 800211e:	d422      	bmi.n	8002166 <HAL_RCC_ClockConfig+0x66>
  if(((RCC_ClkInitStruct->ClockType) & RCC_CLOCKTYPE_SYSCLK) == RCC_CLOCKTYPE_SYSCLK)
 8002120:	07d2      	lsls	r2, r2, #31
 8002122:	d42f      	bmi.n	8002184 <HAL_RCC_ClockConfig+0x84>
  if(FLatency < __HAL_FLASH_GET_LATENCY())
 8002124:	2301      	movs	r3, #1
 8002126:	682a      	ldr	r2, [r5, #0]
 8002128:	401a      	ands	r2, r3
 800212a:	42ba      	cmp	r2, r7
 800212c:	d857      	bhi.n	80021de <HAL_RCC_ClockConfig+0xde>
  if(((RCC_ClkInitStruct->ClockType) & RCC_CLOCKTYPE_PCLK1) == RCC_CLOCKTYPE_PCLK1)
 800212e:	6823      	ldr	r3, [r4, #0]
 8002130:	4d33      	ldr	r5, [pc, #204]	@ (8002200 <HAL_RCC_ClockConfig+0x100>)
 8002132:	075b      	lsls	r3, r3, #29
 8002134:	d45a      	bmi.n	80021ec <HAL_RCC_ClockConfig+0xec>
  SystemCoreClock = HAL_RCC_GetSysClockFreq() >> AHBPrescTable[(RCC->CFGR & RCC_CFGR_HPRE)>> RCC_CFGR_HPRE_BITNUMBER];
 8002136:	f7ff ffad 	bl	8002094 <HAL_RCC_GetSysClockFreq>
 800213a:	686b      	ldr	r3, [r5, #4]
 800213c:	4a31      	ldr	r2, [pc, #196]	@ (8002204 <HAL_RCC_ClockConfig+0x104>)
 800213e:	061b      	lsls	r3, r3, #24
 8002140:	0f1b      	lsrs	r3, r3, #28
 8002142:	5cd3      	ldrb	r3, [r2, r3]
 8002144:	4930      	ldr	r1, [pc, #192]	@ (8002208 <HAL_RCC_ClockConfig+0x108>)
 8002146:	40d8      	lsrs	r0, r3
 8002148:	6008      	str	r0, [r1, #0]
  HAL_InitTick (TICK_INT_PRIORITY);
 800214a:	2003      	movs	r0, #3
 800214c:	f7fe ff60 	bl	8001010 <HAL_InitTick>
  return HAL_OK;
 8002150:	2000      	movs	r0, #0
 8002152:	e7db      	b.n	800210c <HAL_RCC_ClockConfig+0xc>
    __HAL_FLASH_SET_LATENCY(FLatency);
 8002154:	682b      	ldr	r3, [r5, #0]
 8002156:	4393      	bics	r3, r2
 8002158:	430b      	orrs	r3, r1
 800215a:	602b      	str	r3, [r5, #0]
    if(__HAL_FLASH_GET_LATENCY() != FLatency)
 800215c:	682b      	ldr	r3, [r5, #0]
 800215e:	4013      	ands	r3, r2
 8002160:	428b      	cmp	r3, r1
 8002162:	d1d2      	bne.n	800210a <HAL_RCC_ClockConfig+0xa>
 8002164:	e7d9      	b.n	800211a <HAL_RCC_ClockConfig+0x1a>
    if(((RCC_ClkInitStruct->ClockType) & RCC_CLOCKTYPE_PCLK1) == RCC_CLOCKTYPE_PCLK1)
 8002166:	4926      	ldr	r1, [pc, #152]	@ (8002200 <HAL_RCC_ClockConfig+0x100>)
 8002168:	0753      	lsls	r3, r2, #29
 800216a:	d504      	bpl.n	8002176 <HAL_RCC_ClockConfig+0x76>
      MODIFY_REG(RCC->CFGR, RCC_CFGR_PPRE, RCC_HCLK_DIV16);
 800216c:	23e0      	movs	r3, #224	@ 0xe0
 800216e:	6848      	ldr	r0, [r1, #4]
 8002170:	00db      	lsls	r3, r3, #3
 8002172:	4303      	orrs	r3, r0
 8002174:	604b      	str	r3, [r1, #4]
    MODIFY_REG(RCC->CFGR, RCC_CFGR_HPRE, RCC_ClkInitStruct->AHBCLKDivider);
 8002176:	20f0      	movs	r0, #240	@ 0xf0
 8002178:	684b      	ldr	r3, [r1, #4]
 800217a:	4383      	bics	r3, r0
 800217c:	68a0      	ldr	r0, [r4, #8]
 800217e:	4303      	orrs	r3, r0
 8002180:	604b      	str	r3, [r1, #4]
 8002182:	e7cd      	b.n	8002120 <HAL_RCC_ClockConfig+0x20>
    if(RCC_ClkInitStruct->SYSCLKSource == RCC_SYSCLKSOURCE_HSE)
 8002184:	6862      	ldr	r2, [r4, #4]
 8002186:	4e1e      	ldr	r6, [pc, #120]	@ (8002200 <HAL_RCC_ClockConfig+0x100>)
 8002188:	2a01      	cmp	r2, #1
 800218a:	d103      	bne.n	8002194 <HAL_RCC_ClockConfig+0x94>
      if(__HAL_RCC_GET_FLAG(RCC_FLAG_HSERDY) == RESET)
 800218c:	6833      	ldr	r3, [r6, #0]
      if(__HAL_RCC_GET_FLAG(RCC_FLAG_HSI48RDY) == RESET)
 800218e:	039b      	lsls	r3, r3, #14
 8002190:	d405      	bmi.n	800219e <HAL_RCC_ClockConfig+0x9e>
 8002192:	e7ba      	b.n	800210a <HAL_RCC_ClockConfig+0xa>
    else if(RCC_ClkInitStruct->SYSCLKSource == RCC_SYSCLKSOURCE_PLLCLK)
 8002194:	2a02      	cmp	r2, #2
 8002196:	d11a      	bne.n	80021ce <HAL_RCC_ClockConfig+0xce>
      if(__HAL_RCC_GET_FLAG(RCC_FLAG_PLLRDY) == RESET)
 8002198:	6833      	ldr	r3, [r6, #0]
 800219a:	019b      	lsls	r3, r3, #6
 800219c:	d5b5      	bpl.n	800210a <HAL_RCC_ClockConfig+0xa>
    __HAL_RCC_SYSCLK_CONFIG(RCC_ClkInitStruct->SYSCLKSource);
 800219e:	2103      	movs	r1, #3
 80021a0:	6873      	ldr	r3, [r6, #4]
 80021a2:	438b      	bics	r3, r1
 80021a4:	4313      	orrs	r3, r2
 80021a6:	6073      	str	r3, [r6, #4]
    tickstart = HAL_GetTick();
 80021a8:	f7fe ff72 	bl	8001090 <HAL_GetTick>
 80021ac:	9001      	str	r0, [sp, #4]
    while (__HAL_RCC_GET_SYSCLK_SOURCE() != (RCC_ClkInitStruct->SYSCLKSource << RCC_CFGR_SWS_Pos))
 80021ae:	230c      	movs	r3, #12
 80021b0:	6872      	ldr	r2, [r6, #4]
 80021b2:	401a      	ands	r2, r3
 80021b4:	6863      	ldr	r3, [r4, #4]
 80021b6:	009b      	lsls	r3, r3, #2
 80021b8:	429a      	cmp	r2, r3
 80021ba:	d0b3      	beq.n	8002124 <HAL_RCC_ClockConfig+0x24>
      if((HAL_GetTick() - tickstart ) > CLOCKSWITCH_TIMEOUT_VALUE)
 80021bc:	f7fe ff68 	bl	8001090 <HAL_GetTick>
 80021c0:	9b01      	ldr	r3, [sp, #4]
 80021c2:	1ac0      	subs	r0, r0, r3
 80021c4:	4b11      	ldr	r3, [pc, #68]	@ (800220c <HAL_RCC_ClockConfig+0x10c>)
 80021c6:	4298      	cmp	r0, r3
 80021c8:	d9f1      	bls.n	80021ae <HAL_RCC_ClockConfig+0xae>
        return HAL_TIMEOUT;
 80021ca:	2003      	movs	r0, #3
 80021cc:	e79e      	b.n	800210c <HAL_RCC_ClockConfig+0xc>
    else if(RCC_ClkInitStruct->SYSCLKSource == RCC_SYSCLKSOURCE_HSI48)
 80021ce:	2a03      	cmp	r2, #3
 80021d0:	d101      	bne.n	80021d6 <HAL_RCC_ClockConfig+0xd6>
      if(__HAL_RCC_GET_FLAG(RCC_FLAG_HSI48RDY) == RESET)
 80021d2:	6b73      	ldr	r3, [r6, #52]	@ 0x34
 80021d4:	e7db      	b.n	800218e <HAL_RCC_ClockConfig+0x8e>
      if(__HAL_RCC_GET_FLAG(RCC_FLAG_HSIRDY) == RESET)
 80021d6:	6833      	ldr	r3, [r6, #0]
 80021d8:	079b      	lsls	r3, r3, #30
 80021da:	d4e0      	bmi.n	800219e <HAL_RCC_ClockConfig+0x9e>
 80021dc:	e795      	b.n	800210a <HAL_RCC_ClockConfig+0xa>
    __HAL_FLASH_SET_LATENCY(FLatency);
 80021de:	682a      	ldr	r2, [r5, #0]
 80021e0:	439a      	bics	r2, r3
 80021e2:	602a      	str	r2, [r5, #0]
    if(__HAL_FLASH_GET_LATENCY() != FLatency)
 80021e4:	682a      	ldr	r2, [r5, #0]
 80021e6:	421a      	tst	r2, r3
 80021e8:	d0a1      	beq.n	800212e <HAL_RCC_ClockConfig+0x2e>
 80021ea:	e78e      	b.n	800210a <HAL_RCC_ClockConfig+0xa>
    MODIFY_REG(RCC->CFGR, RCC_CFGR_PPRE, RCC_ClkInitStruct->APB1CLKDivider);
 80021ec:	686b      	ldr	r3, [r5, #4]
 80021ee:	4a08      	ldr	r2, [pc, #32]	@ (8002210 <HAL_RCC_ClockConfig+0x110>)
 80021f0:	4013      	ands	r3, r2
 80021f2:	68e2      	ldr	r2, [r4, #12]
 80021f4:	4313      	orrs	r3, r2
 80021f6:	606b      	str	r3, [r5, #4]
 80021f8:	e79d      	b.n	8002136 <HAL_RCC_ClockConfig+0x36>
 80021fa:	46c0      	nop			@ (mov r8, r8)
 80021fc:	40022000 	.word	0x40022000
 8002200:	40021000 	.word	0x40021000
 8002204:	08003f7a 	.word	0x08003f7a
 8002208:	20000004 	.word	0x20000004
 800220c:	00001388 	.word	0x00001388
 8002210:	fffff8ff 	.word	0xfffff8ff

08002214 <HAL_RCC_GetPCLK1Freq>:
  * @retval PCLK1 frequency
  */
uint32_t HAL_RCC_GetPCLK1Freq(void)
{
  /* Get HCLK source and Compute PCLK1 frequency ---------------------------*/
  return (HAL_RCC_GetHCLKFreq() >> APBPrescTable[(RCC->CFGR & RCC_CFGR_PPRE) >> RCC_CFGR_PPRE_BITNUMBER]);
 8002214:	4b04      	ldr	r3, [pc, #16]	@ (8002228 <HAL_RCC_GetPCLK1Freq+0x14>)
  return SystemCoreClock;
 8002216:	4a05      	ldr	r2, [pc, #20]	@ (800222c <HAL_RCC_GetPCLK1Freq+0x18>)
  return (HAL_RCC_GetHCLKFreq() >> APBPrescTable[(RCC->CFGR & RCC_CFGR_PPRE) >> RCC_CFGR_PPRE_BITNUMBER]);
 8002218:	685b      	ldr	r3, [r3, #4]
 800221a:	4905      	ldr	r1, [pc, #20]	@ (8002230 <HAL_RCC_GetPCLK1Freq+0x1c>)
 800221c:	055b      	lsls	r3, r3, #21
 800221e:	0f5b      	lsrs	r3, r3, #29
 8002220:	5ccb      	ldrb	r3, [r1, r3]
 8002222:	6810      	ldr	r0, [r2, #0]
 8002224:	40d8      	lsrs	r0, r3
}    
 8002226:	4770      	bx	lr
 8002228:	40021000 	.word	0x40021000
 800222c:	20000004 	.word	0x20000004
 8002230:	08003f72 	.word	0x08003f72

08002234 <HAL_TIM_PeriodElapsedHalfCpltCallback>:
/**
  * @brief  Period elapsed half complete callback in non-blocking mode
  * @param  htim TIM handle
  * @retval None
  */
__weak void HAL_TIM_PeriodElapsedHalfCpltCallback(TIM_HandleTypeDef *htim)
 8002234:	4770      	bx	lr

08002236 <HAL_TIM_OC_DelayElapsedCallback>:
/**
  * @brief  Output Compare callback in non-blocking mode
  * @param  htim TIM OC handle
  * @retval None
  */
__weak void HAL_TIM_OC_DelayElapsedCallback(TIM_HandleTypeDef *htim)
 8002236:	4770      	bx	lr

08002238 <HAL_TIM_IC_CaptureCallback>:
/**
  * @brief  Input Capture callback in non-blocking mode
  * @param  htim TIM IC handle
  * @retval None
  */
__weak void HAL_TIM_IC_CaptureCallback(TIM_HandleTypeDef *htim)
 8002238:	4770      	bx	lr

0800223a <HAL_TIM_IC_CaptureHalfCpltCallback>:
/**
  * @brief  Input Capture half complete callback in non-blocking mode
  * @param  htim TIM IC handle
  * @retval None
  */
__weak void HAL_TIM_IC_CaptureHalfCpltCallback(TIM_HandleTypeDef *htim)
 800223a:	4770      	bx	lr

0800223c <HAL_TIM_PWM_PulseFinishedCallback>:
/**
  * @brief  PWM Pulse finished callback in non-blocking mode
  * @param  htim TIM handle
  * @retval None
  */
__weak void HAL_TIM_PWM_PulseFinishedCallback(TIM_HandleTypeDef *htim)
 800223c:	4770      	bx	lr

0800223e <HAL_TIM_PWM_PulseFinishedHalfCpltCallback>:
/**
  * @brief  PWM Pulse finished half complete callback in non-blocking mode
  * @param  htim TIM handle
  * @retval None
  */
__weak void HAL_TIM_PWM_PulseFinishedHalfCpltCallback(TIM_HandleTypeDef *htim)
 800223e:	4770      	bx	lr

08002240 <HAL_TIM_TriggerCallback>:
/**
  * @brief  Hall Trigger detection callback in non-blocking mode
  * @param  htim TIM handle
  * @retval None
  */
__weak void HAL_TIM_TriggerCallback(TIM_HandleTypeDef *htim)
 8002240:	4770      	bx	lr

08002242 <HAL_TIM_TriggerHalfCpltCallback>:
/**
  * @brief  Hall Trigger detection half complete callback in non-blocking mode
  * @param  htim TIM handle
  * @retval None
  */
__weak void HAL_TIM_TriggerHalfCpltCallback(TIM_HandleTypeDef *htim)
 8002242:	4770      	bx	lr

08002244 <HAL_TIM_ErrorCallback>:
/**
  * @brief  Timer error callback in non-blocking mode
  * @param  htim TIM handle
  * @retval None
  */
__weak void HAL_TIM_ErrorCallback(TIM_HandleTypeDef *htim)
 8002244:	4770      	bx	lr
	...

08002248 <HAL_TIM_Base_Start_IT>:
  if (htim->State != HAL_TIM_STATE_READY)
 8002248:	0001      	movs	r1, r0
{
 800224a:	0003      	movs	r3, r0
    return HAL_ERROR;
 800224c:	2001      	movs	r0, #1
{
 800224e:	b510      	push	{r4, lr}
  if (htim->State != HAL_TIM_STATE_READY)
 8002250:	313d      	adds	r1, #61	@ 0x3d
 8002252:	780c      	ldrb	r4, [r1, #0]
 8002254:	b2e2      	uxtb	r2, r4
 8002256:	4284      	cmp	r4, r0
 8002258:	d119      	bne.n	800228e <HAL_TIM_Base_Start_IT+0x46>
  htim->State = HAL_TIM_STATE_BUSY;
 800225a:	1800      	adds	r0, r0, r0
 800225c:	7008      	strb	r0, [r1, #0]
  __HAL_TIM_ENABLE_IT(htim, TIM_IT_UPDATE);
 800225e:	681b      	ldr	r3, [r3, #0]
 8002260:	68d9      	ldr	r1, [r3, #12]
 8002262:	4311      	orrs	r1, r2
 8002264:	60d9      	str	r1, [r3, #12]
  if (IS_TIM_SLAVE_INSTANCE(htim->Instance))
 8002266:	490b      	ldr	r1, [pc, #44]	@ (8002294 <HAL_TIM_Base_Start_IT+0x4c>)
 8002268:	428b      	cmp	r3, r1
 800226a:	d006      	beq.n	800227a <HAL_TIM_Base_Start_IT+0x32>
 800226c:	2180      	movs	r1, #128	@ 0x80
 800226e:	05c9      	lsls	r1, r1, #23
 8002270:	428b      	cmp	r3, r1
 8002272:	d002      	beq.n	800227a <HAL_TIM_Base_Start_IT+0x32>
 8002274:	4908      	ldr	r1, [pc, #32]	@ (8002298 <HAL_TIM_Base_Start_IT+0x50>)
 8002276:	428b      	cmp	r3, r1
 8002278:	d10a      	bne.n	8002290 <HAL_TIM_Base_Start_IT+0x48>
    tmpsmcr = htim->Instance->SMCR & TIM_SMCR_SMS;
 800227a:	2107      	movs	r1, #7
 800227c:	689a      	ldr	r2, [r3, #8]
 800227e:	400a      	ands	r2, r1
    if (!IS_TIM_SLAVEMODE_TRIGGER_ENABLED(tmpsmcr))
 8002280:	2a06      	cmp	r2, #6
 8002282:	d003      	beq.n	800228c <HAL_TIM_Base_Start_IT+0x44>
      __HAL_TIM_ENABLE(htim);
 8002284:	2201      	movs	r2, #1
 8002286:	6819      	ldr	r1, [r3, #0]
 8002288:	430a      	orrs	r2, r1
 800228a:	601a      	str	r2, [r3, #0]
  return HAL_OK;
 800228c:	2000      	movs	r0, #0
}
 800228e:	bd10      	pop	{r4, pc}
    __HAL_TIM_ENABLE(htim);
 8002290:	6819      	ldr	r1, [r3, #0]
 8002292:	e7f9      	b.n	8002288 <HAL_TIM_Base_Start_IT+0x40>
 8002294:	40012c00 	.word	0x40012c00
 8002298:	40000400 	.word	0x40000400

0800229c <HAL_TIM_IRQHandler>:
  if ((itflag & (TIM_FLAG_CC1)) == (TIM_FLAG_CC1))
 800229c:	2202      	movs	r2, #2
  uint32_t itsource = htim->Instance->DIER;
 800229e:	6803      	ldr	r3, [r0, #0]
{
 80022a0:	b570      	push	{r4, r5, r6, lr}
  uint32_t itsource = htim->Instance->DIER;
 80022a2:	68dd      	ldr	r5, [r3, #12]
  uint32_t itflag   = htim->Instance->SR;
 80022a4:	691e      	ldr	r6, [r3, #16]
{
 80022a6:	0004      	movs	r4, r0
  if ((itflag & (TIM_FLAG_CC1)) == (TIM_FLAG_CC1))
 80022a8:	4216      	tst	r6, r2
 80022aa:	d010      	beq.n	80022ce <HAL_TIM_IRQHandler+0x32>
    if ((itsource & (TIM_IT_CC1)) == (TIM_IT_CC1))
 80022ac:	4215      	tst	r5, r2
 80022ae:	d00e      	beq.n	80022ce <HAL_TIM_IRQHandler+0x32>
        __HAL_TIM_CLEAR_FLAG(htim, TIM_FLAG_CC1);
 80022b0:	3a05      	subs	r2, #5
 80022b2:	611a      	str	r2, [r3, #16]
        htim->Channel = HAL_TIM_ACTIVE_CHANNEL_1;
 80022b4:	3204      	adds	r2, #4
 80022b6:	7702      	strb	r2, [r0, #28]
        if ((htim->Instance->CCMR1 & TIM_CCMR1_CC1S) != 0x00U)
 80022b8:	699b      	ldr	r3, [r3, #24]
 80022ba:	079b      	lsls	r3, r3, #30
 80022bc:	d100      	bne.n	80022c0 <HAL_TIM_IRQHandler+0x24>
 80022be:	e082      	b.n	80023c6 <HAL_TIM_IRQHandler+0x12a>
          htim->IC_CaptureCallback(htim);
 80022c0:	0003      	movs	r3, r0
 80022c2:	3390      	adds	r3, #144	@ 0x90
          htim->PWM_PulseFinishedCallback(htim);
 80022c4:	681b      	ldr	r3, [r3, #0]
 80022c6:	0020      	movs	r0, r4
 80022c8:	4798      	blx	r3
        htim->Channel = HAL_TIM_ACTIVE_CHANNEL_CLEARED;
 80022ca:	2300      	movs	r3, #0
 80022cc:	7723      	strb	r3, [r4, #28]
  if ((itflag & (TIM_FLAG_CC2)) == (TIM_FLAG_CC2))
 80022ce:	2304      	movs	r3, #4
 80022d0:	421e      	tst	r6, r3
 80022d2:	d014      	beq.n	80022fe <HAL_TIM_IRQHandler+0x62>
    if ((itsource & (TIM_IT_CC2)) == (TIM_IT_CC2))
 80022d4:	421d      	tst	r5, r3
 80022d6:	d012      	beq.n	80022fe <HAL_TIM_IRQHandler+0x62>
      __HAL_TIM_CLEAR_FLAG(htim, TIM_FLAG_CC2);
 80022d8:	2205      	movs	r2, #5
 80022da:	6823      	ldr	r3, [r4, #0]
 80022dc:	4252      	negs	r2, r2
 80022de:	611a      	str	r2, [r3, #16]
      htim->Channel = HAL_TIM_ACTIVE_CHANNEL_2;
 80022e0:	3207      	adds	r2, #7
 80022e2:	7722      	strb	r2, [r4, #28]
      if ((htim->Instance->CCMR1 & TIM_CCMR1_CC2S) != 0x00U)
 80022e4:	699a      	ldr	r2, [r3, #24]
 80022e6:	23c0      	movs	r3, #192	@ 0xc0
 80022e8:	009b      	lsls	r3, r3, #2
 80022ea:	421a      	tst	r2, r3
 80022ec:	d100      	bne.n	80022f0 <HAL_TIM_IRQHandler+0x54>
 80022ee:	e071      	b.n	80023d4 <HAL_TIM_IRQHandler+0x138>
        htim->IC_CaptureCallback(htim);
 80022f0:	0023      	movs	r3, r4
 80022f2:	3390      	adds	r3, #144	@ 0x90
        htim->PWM_PulseFinishedCallback(htim);
 80022f4:	681b      	ldr	r3, [r3, #0]
 80022f6:	0020      	movs	r0, r4
 80022f8:	4798      	blx	r3
      htim->Channel = HAL_TIM_ACTIVE_CHANNEL_CLEARED;
 80022fa:	2300      	movs	r3, #0
 80022fc:	7723      	strb	r3, [r4, #28]
  if ((itflag & (TIM_FLAG_CC3)) == (TIM_FLAG_CC3))
 80022fe:	2308      	movs	r3, #8
 8002300:	421e      	tst	r6, r3
 8002302:	d011      	beq.n	8002328 <HAL_TIM_IRQHandler+0x8c>
    if ((itsource & (TIM_IT_CC3)) == (TIM_IT_CC3))
 8002304:	421d      	tst	r5, r3
 8002306:	d00f      	beq.n	8002328 <HAL_TIM_IRQHandler+0x8c>
      __HAL_TIM_CLEAR_FLAG(htim, TIM_FLAG_CC3);
 8002308:	2209      	movs	r2, #9
 800230a:	6823      	ldr	r3, [r4, #0]
 800230c:	4252      	negs	r2, r2
 800230e:	611a      	str	r2, [r3, #16]
      htim->Channel = HAL_TIM_ACTIVE_CHANNEL_3;
 8002310:	320d      	adds	r2, #13
 8002312:	7722      	strb	r2, [r4, #28]
      if ((htim->Instance->CCMR2 & TIM_CCMR2_CC3S) != 0x00U)
 8002314:	69db      	ldr	r3, [r3, #28]
 8002316:	079b      	lsls	r3, r3, #30
 8002318:	d064      	beq.n	80023e4 <HAL_TIM_IRQHandler+0x148>
        htim->IC_CaptureCallback(htim);
 800231a:	0023      	movs	r3, r4
 800231c:	3390      	adds	r3, #144	@ 0x90
        htim->PWM_PulseFinishedCallback(htim);
 800231e:	681b      	ldr	r3, [r3, #0]
 8002320:	0020      	movs	r0, r4
 8002322:	4798      	blx	r3
      htim->Channel = HAL_TIM_ACTIVE_CHANNEL_CLEARED;
 8002324:	2300      	movs	r3, #0
 8002326:	7723      	strb	r3, [r4, #28]
  if ((itflag & (TIM_FLAG_CC4)) == (TIM_FLAG_CC4))
 8002328:	2310      	movs	r3, #16
 800232a:	421e      	tst	r6, r3
 800232c:	d013      	beq.n	8002356 <HAL_TIM_IRQHandler+0xba>
    if ((itsource & (TIM_IT_CC4)) == (TIM_IT_CC4))
 800232e:	421d      	tst	r5, r3
 8002330:	d011      	beq.n	8002356 <HAL_TIM_IRQHandler+0xba>
      __HAL_TIM_CLEAR_FLAG(htim, TIM_FLAG_CC4);
 8002332:	2211      	movs	r2, #17
 8002334:	6823      	ldr	r3, [r4, #0]
 8002336:	4252      	negs	r2, r2
 8002338:	611a      	str	r2, [r3, #16]
      htim->Channel = HAL_TIM_ACTIVE_CHANNEL_4;
 800233a:	3219      	adds	r2, #25
 800233c:	7722      	strb	r2, [r4, #28]
      if ((htim->Instance->CCMR2 & TIM_CCMR2_CC4S) != 0x00U)
 800233e:	69da      	ldr	r2, [r3, #28]
 8002340:	23c0      	movs	r3, #192	@ 0xc0
 8002342:	009b      	lsls	r3, r3, #2
 8002344:	421a      	tst	r2, r3
 8002346:	d055      	beq.n	80023f4 <HAL_TIM_IRQHandler+0x158>
        htim->IC_CaptureCallback(htim);
 8002348:	0023      	movs	r3, r4
 800234a:	3390      	adds	r3, #144	@ 0x90
        htim->PWM_PulseFinishedCallback(htim);
 800234c:	681b      	ldr	r3, [r3, #0]
 800234e:	0020      	movs	r0, r4
 8002350:	4798      	blx	r3
      htim->Channel = HAL_TIM_ACTIVE_CHANNEL_CLEARED;
 8002352:	2300      	movs	r3, #0
 8002354:	7723      	strb	r3, [r4, #28]
  if ((itflag & (TIM_FLAG_UPDATE)) == (TIM_FLAG_UPDATE))
 8002356:	2301      	movs	r3, #1
 8002358:	421e      	tst	r6, r3
 800235a:	d009      	beq.n	8002370 <HAL_TIM_IRQHandler+0xd4>
    if ((itsource & (TIM_IT_UPDATE)) == (TIM_IT_UPDATE))
 800235c:	421d      	tst	r5, r3
 800235e:	d007      	beq.n	8002370 <HAL_TIM_IRQHandler+0xd4>
      __HAL_TIM_CLEAR_FLAG(htim, TIM_FLAG_UPDATE);
 8002360:	0023      	movs	r3, r4
 8002362:	2102      	movs	r1, #2
 8002364:	cb04      	ldmia	r3!, {r2}
 8002366:	4249      	negs	r1, r1
      htim->PeriodElapsedCallback(htim);
 8002368:	0020      	movs	r0, r4
 800236a:	6fdb      	ldr	r3, [r3, #124]	@ 0x7c
      __HAL_TIM_CLEAR_FLAG(htim, TIM_FLAG_UPDATE);
 800236c:	6111      	str	r1, [r2, #16]
      htim->PeriodElapsedCallback(htim);
 800236e:	4798      	blx	r3
  if ((itflag & (TIM_FLAG_BREAK)) == (TIM_FLAG_BREAK))
 8002370:	2380      	movs	r3, #128	@ 0x80
 8002372:	421e      	tst	r6, r3
 8002374:	d00a      	beq.n	800238c <HAL_TIM_IRQHandler+0xf0>
    if ((itsource & (TIM_IT_BREAK)) == (TIM_IT_BREAK))
 8002376:	421d      	tst	r5, r3
 8002378:	d008      	beq.n	800238c <HAL_TIM_IRQHandler+0xf0>
      __HAL_TIM_CLEAR_FLAG(htim, TIM_FLAG_BREAK);
 800237a:	2281      	movs	r2, #129	@ 0x81
 800237c:	6823      	ldr	r3, [r4, #0]
 800237e:	4252      	negs	r2, r2
 8002380:	611a      	str	r2, [r3, #16]
      htim->BreakCallback(htim);
 8002382:	0023      	movs	r3, r4
 8002384:	33b0      	adds	r3, #176	@ 0xb0
 8002386:	0020      	movs	r0, r4
 8002388:	681b      	ldr	r3, [r3, #0]
 800238a:	4798      	blx	r3
  if ((itflag & (TIM_FLAG_TRIGGER)) == (TIM_FLAG_TRIGGER))
 800238c:	2340      	movs	r3, #64	@ 0x40
 800238e:	421e      	tst	r6, r3
 8002390:	d00a      	beq.n	80023a8 <HAL_TIM_IRQHandler+0x10c>
    if ((itsource & (TIM_IT_TRIGGER)) == (TIM_IT_TRIGGER))
 8002392:	421d      	tst	r5, r3
 8002394:	d008      	beq.n	80023a8 <HAL_TIM_IRQHandler+0x10c>
      __HAL_TIM_CLEAR_FLAG(htim, TIM_FLAG_TRIGGER);
 8002396:	2241      	movs	r2, #65	@ 0x41
 8002398:	6823      	ldr	r3, [r4, #0]
 800239a:	4252      	negs	r2, r2
 800239c:	611a      	str	r2, [r3, #16]
      htim->TriggerCallback(htim);
 800239e:	0023      	movs	r3, r4
 80023a0:	3388      	adds	r3, #136	@ 0x88
 80023a2:	0020      	movs	r0, r4
 80023a4:	681b      	ldr	r3, [r3, #0]
 80023a6:	4798      	blx	r3
  if ((itflag & (TIM_FLAG_COM)) == (TIM_FLAG_COM))
 80023a8:	2320      	movs	r3, #32
 80023aa:	421e      	tst	r6, r3
 80023ac:	d00a      	beq.n	80023c4 <HAL_TIM_IRQHandler+0x128>
    if ((itsource & (TIM_IT_COM)) == (TIM_IT_COM))
 80023ae:	421d      	tst	r5, r3
 80023b0:	d008      	beq.n	80023c4 <HAL_TIM_IRQHandler+0x128>
      __HAL_TIM_CLEAR_FLAG(htim, TIM_FLAG_COM);
 80023b2:	2221      	movs	r2, #33	@ 0x21
 80023b4:	6823      	ldr	r3, [r4, #0]
 80023b6:	4252      	negs	r2, r2
 80023b8:	611a      	str	r2, [r3, #16]
      htim->CommutationCallback(htim);
 80023ba:	0023      	movs	r3, r4
 80023bc:	33a8      	adds	r3, #168	@ 0xa8
 80023be:	0020      	movs	r0, r4
 80023c0:	681b      	ldr	r3, [r3, #0]
 80023c2:	4798      	blx	r3
}
 80023c4:	bd70      	pop	{r4, r5, r6, pc}
          htim->OC_DelayElapsedCallback(htim);
 80023c6:	0003      	movs	r3, r0
 80023c8:	3398      	adds	r3, #152	@ 0x98
 80023ca:	681b      	ldr	r3, [r3, #0]
 80023cc:	4798      	blx	r3
          htim->PWM_PulseFinishedCallback(htim);
 80023ce:	0023      	movs	r3, r4
 80023d0:	339c      	adds	r3, #156	@ 0x9c
 80023d2:	e777      	b.n	80022c4 <HAL_TIM_IRQHandler+0x28>
        htim->OC_DelayElapsedCallback(htim);
 80023d4:	0023      	movs	r3, r4
 80023d6:	3398      	adds	r3, #152	@ 0x98
 80023d8:	681b      	ldr	r3, [r3, #0]
 80023da:	0020      	movs	r0, r4
 80023dc:	4798      	blx	r3
        htim->PWM_PulseFinishedCallback(htim);
 80023de:	0023      	movs	r3, r4
 80023e0:	339c      	adds	r3, #156	@ 0x9c
 80023e2:	e787      	b.n	80022f4 <HAL_TIM_IRQHandler+0x58>
        htim->OC_DelayElapsedCallback(htim);
 80023e4:	0023      	movs	r3, r4
 80023e6:	3398      	adds	r3, #152	@ 0x98
 80023e8:	681b      	ldr	r3, [r3, #0]
 80023ea:	0020      	movs	r0, r4
 80023ec:	4798      	blx	r3
        htim->PWM_PulseFinishedCallback(htim);
 80023ee:	0023      	movs	r3, r4
 80023f0:	339c      	adds	r3, #156	@ 0x9c
 80023f2:	e794      	b.n	800231e <HAL_TIM_IRQHandler+0x82>
        htim->OC_DelayElapsedCallback(htim);
 80023f4:	0023      	movs	r3, r4
 80023f6:	3398      	adds	r3, #152	@ 0x98
 80023f8:	681b      	ldr	r3, [r3, #0]
 80023fa:	0020      	movs	r0, r4
 80023fc:	4798      	blx	r3
        htim->PWM_PulseFinishedCallback(htim);
 80023fe:	0023      	movs	r3, r4
 8002400:	339c      	adds	r3, #156	@ 0x9c
 8002402:	e7a3      	b.n	800234c <HAL_TIM_IRQHandler+0xb0>

08002404 <TIM_Base_SetConfig>:
  * @param  TIMx TIM peripheral
  * @param  Structure TIM Base configuration structure
  * @retval None
  */
void TIM_Base_SetConfig(TIM_TypeDef *TIMx, const TIM_Base_InitTypeDef *Structure)
{
 8002404:	b510      	push	{r4, lr}
  uint32_t tmpcr1;
  tmpcr1 = TIMx->CR1;

  /* Set TIM Time Base Unit parameters ---------------------------------------*/
  if (IS_TIM_COUNTER_MODE_SELECT_INSTANCE(TIMx))
 8002406:	4c1c      	ldr	r4, [pc, #112]	@ (8002478 <TIM_Base_SetConfig+0x74>)
  tmpcr1 = TIMx->CR1;
 8002408:	6803      	ldr	r3, [r0, #0]
  if (IS_TIM_COUNTER_MODE_SELECT_INSTANCE(TIMx))
 800240a:	42a0      	cmp	r0, r4
 800240c:	d006      	beq.n	800241c <TIM_Base_SetConfig+0x18>
 800240e:	2280      	movs	r2, #128	@ 0x80
 8002410:	05d2      	lsls	r2, r2, #23
 8002412:	4290      	cmp	r0, r2
 8002414:	d002      	beq.n	800241c <TIM_Base_SetConfig+0x18>
 8002416:	4a19      	ldr	r2, [pc, #100]	@ (800247c <TIM_Base_SetConfig+0x78>)
 8002418:	4290      	cmp	r0, r2
 800241a:	d108      	bne.n	800242e <TIM_Base_SetConfig+0x2a>
  {
    /* Select the Counter Mode */
    tmpcr1 &= ~(TIM_CR1_DIR | TIM_CR1_CMS);
 800241c:	2270      	movs	r2, #112	@ 0x70
 800241e:	4393      	bics	r3, r2
    tmpcr1 |= Structure->CounterMode;
 8002420:	684a      	ldr	r2, [r1, #4]
 8002422:	4313      	orrs	r3, r2
  }

  if (IS_TIM_CLOCK_DIVISION_INSTANCE(TIMx))
  {
    /* Set the clock division */
    tmpcr1 &= ~TIM_CR1_CKD;
 8002424:	4a16      	ldr	r2, [pc, #88]	@ (8002480 <TIM_Base_SetConfig+0x7c>)
 8002426:	401a      	ands	r2, r3
    tmpcr1 |= (uint32_t)Structure->ClockDivision;
 8002428:	68cb      	ldr	r3, [r1, #12]
 800242a:	4313      	orrs	r3, r2
 800242c:	e008      	b.n	8002440 <TIM_Base_SetConfig+0x3c>
  if (IS_TIM_CLOCK_DIVISION_INSTANCE(TIMx))
 800242e:	4a15      	ldr	r2, [pc, #84]	@ (8002484 <TIM_Base_SetConfig+0x80>)
 8002430:	4290      	cmp	r0, r2
 8002432:	d0f7      	beq.n	8002424 <TIM_Base_SetConfig+0x20>
 8002434:	4a14      	ldr	r2, [pc, #80]	@ (8002488 <TIM_Base_SetConfig+0x84>)
 8002436:	4290      	cmp	r0, r2
 8002438:	d0f4      	beq.n	8002424 <TIM_Base_SetConfig+0x20>
 800243a:	4a14      	ldr	r2, [pc, #80]	@ (800248c <TIM_Base_SetConfig+0x88>)
 800243c:	4290      	cmp	r0, r2
 800243e:	d0f1      	beq.n	8002424 <TIM_Base_SetConfig+0x20>
  }

  /* Set the auto-reload preload */
  MODIFY_REG(tmpcr1, TIM_CR1_ARPE, Structure->AutoReloadPreload);
 8002440:	2280      	movs	r2, #128	@ 0x80
 8002442:	4393      	bics	r3, r2
 8002444:	694a      	ldr	r2, [r1, #20]
 8002446:	4313      	orrs	r3, r2

  TIMx->CR1 = tmpcr1;
 8002448:	6003      	str	r3, [r0, #0]

  /* Set the Autoreload value */
  TIMx->ARR = (uint32_t)Structure->Period ;
 800244a:	688b      	ldr	r3, [r1, #8]
 800244c:	62c3      	str	r3, [r0, #44]	@ 0x2c

  /* Set the Prescaler value */
  TIMx->PSC = Structure->Prescaler;
 800244e:	680b      	ldr	r3, [r1, #0]
 8002450:	6283      	str	r3, [r0, #40]	@ 0x28

  if (IS_TIM_REPETITION_COUNTER_INSTANCE(TIMx))
 8002452:	42a0      	cmp	r0, r4
 8002454:	d005      	beq.n	8002462 <TIM_Base_SetConfig+0x5e>
 8002456:	4b0c      	ldr	r3, [pc, #48]	@ (8002488 <TIM_Base_SetConfig+0x84>)
 8002458:	4298      	cmp	r0, r3
 800245a:	d002      	beq.n	8002462 <TIM_Base_SetConfig+0x5e>
 800245c:	4b0b      	ldr	r3, [pc, #44]	@ (800248c <TIM_Base_SetConfig+0x88>)
 800245e:	4298      	cmp	r0, r3
 8002460:	d101      	bne.n	8002466 <TIM_Base_SetConfig+0x62>
  {
    /* Set the Repetition Counter value */
    TIMx->RCR = Structure->RepetitionCounter;
 8002462:	690b      	ldr	r3, [r1, #16]
 8002464:	6303      	str	r3, [r0, #48]	@ 0x30
  }

  /* Generate an update event to reload the Prescaler
     and the repetition counter (only for advanced timer) value immediately */
  TIMx->EGR = TIM_EGR_UG;
 8002466:	2201      	movs	r2, #1
 8002468:	6142      	str	r2, [r0, #20]

  /* Check if the update flag is set after the Update Generation, if so clear the UIF flag */
  if (HAL_IS_BIT_SET(TIMx->SR, TIM_FLAG_UPDATE))
 800246a:	6903      	ldr	r3, [r0, #16]
 800246c:	4213      	tst	r3, r2
 800246e:	d002      	beq.n	8002476 <TIM_Base_SetConfig+0x72>
  {
    /* Clear the update flag */
    CLEAR_BIT(TIMx->SR, TIM_FLAG_UPDATE);
 8002470:	6903      	ldr	r3, [r0, #16]
 8002472:	4393      	bics	r3, r2
 8002474:	6103      	str	r3, [r0, #16]
  }
}
 8002476:	bd10      	pop	{r4, pc}
 8002478:	40012c00 	.word	0x40012c00
 800247c:	40000400 	.word	0x40000400
 8002480:	fffffcff 	.word	0xfffffcff
 8002484:	40002000 	.word	0x40002000
 8002488:	40014400 	.word	0x40014400
 800248c:	40014800 	.word	0x40014800

08002490 <TIM_ETR_SetConfig>:
  *          This parameter must be a value between 0x00 and 0x0F
  * @retval None
  */
void TIM_ETR_SetConfig(TIM_TypeDef *TIMx, uint32_t TIM_ExtTRGPrescaler,
                       uint32_t TIM_ExtTRGPolarity, uint32_t ExtTRGFilter)
{
 8002490:	b530      	push	{r4, r5, lr}
  uint32_t tmpsmcr;

  tmpsmcr = TIMx->SMCR;
 8002492:	6884      	ldr	r4, [r0, #8]

  /* Reset the ETR Bits */
  tmpsmcr &= ~(TIM_SMCR_ETF | TIM_SMCR_ETPS | TIM_SMCR_ECE | TIM_SMCR_ETP);
 8002494:	4d03      	ldr	r5, [pc, #12]	@ (80024a4 <TIM_ETR_SetConfig+0x14>)

  /* Set the Prescaler, the Filter value and the Polarity */
  tmpsmcr |= (uint32_t)(TIM_ExtTRGPrescaler | (TIM_ExtTRGPolarity | (ExtTRGFilter << 8U)));
 8002496:	430a      	orrs	r2, r1
 8002498:	021b      	lsls	r3, r3, #8
  tmpsmcr &= ~(TIM_SMCR_ETF | TIM_SMCR_ETPS | TIM_SMCR_ECE | TIM_SMCR_ETP);
 800249a:	402c      	ands	r4, r5
  tmpsmcr |= (uint32_t)(TIM_ExtTRGPrescaler | (TIM_ExtTRGPolarity | (ExtTRGFilter << 8U)));
 800249c:	4313      	orrs	r3, r2
 800249e:	4323      	orrs	r3, r4

  /* Write to TIMx SMCR */
  TIMx->SMCR = tmpsmcr;
 80024a0:	6083      	str	r3, [r0, #8]
}
 80024a2:	bd30      	pop	{r4, r5, pc}
 80024a4:	ffff00ff 	.word	0xffff00ff

080024a8 <HAL_TIM_ConfigClockSource>:
{
 80024a8:	b5f8      	push	{r3, r4, r5, r6, r7, lr}
  __HAL_LOCK(htim);
 80024aa:	0005      	movs	r5, r0
 80024ac:	2202      	movs	r2, #2
 80024ae:	353c      	adds	r5, #60	@ 0x3c
 80024b0:	782c      	ldrb	r4, [r5, #0]
{
 80024b2:	0003      	movs	r3, r0
  __HAL_LOCK(htim);
 80024b4:	0010      	movs	r0, r2
 80024b6:	2c01      	cmp	r4, #1
 80024b8:	d01b      	beq.n	80024f2 <HAL_TIM_ConfigClockSource+0x4a>
  htim->State = HAL_TIM_STATE_BUSY;
 80024ba:	001e      	movs	r6, r3
  __HAL_LOCK(htim);
 80024bc:	3801      	subs	r0, #1
  htim->State = HAL_TIM_STATE_BUSY;
 80024be:	363d      	adds	r6, #61	@ 0x3d
  __HAL_LOCK(htim);
 80024c0:	7028      	strb	r0, [r5, #0]
  htim->State = HAL_TIM_STATE_BUSY;
 80024c2:	7032      	strb	r2, [r6, #0]
  tmpsmcr = htim->Instance->SMCR;
 80024c4:	681c      	ldr	r4, [r3, #0]
  tmpsmcr &= ~(TIM_SMCR_ETF | TIM_SMCR_ETPS | TIM_SMCR_ECE | TIM_SMCR_ETP);
 80024c6:	4a41      	ldr	r2, [pc, #260]	@ (80025cc <HAL_TIM_ConfigClockSource+0x124>)
  tmpsmcr = htim->Instance->SMCR;
 80024c8:	68a3      	ldr	r3, [r4, #8]
  tmpsmcr &= ~(TIM_SMCR_ETF | TIM_SMCR_ETPS | TIM_SMCR_ECE | TIM_SMCR_ETP);
 80024ca:	4013      	ands	r3, r2
  htim->Instance->SMCR = tmpsmcr;
 80024cc:	60a3      	str	r3, [r4, #8]
  switch (sClockSourceConfig->ClockSource)
 80024ce:	680b      	ldr	r3, [r1, #0]
 80024d0:	2b60      	cmp	r3, #96	@ 0x60
 80024d2:	d04e      	beq.n	8002572 <HAL_TIM_ConfigClockSource+0xca>
 80024d4:	d82d      	bhi.n	8002532 <HAL_TIM_ConfigClockSource+0x8a>
 80024d6:	2b40      	cmp	r3, #64	@ 0x40
 80024d8:	d062      	beq.n	80025a0 <HAL_TIM_ConfigClockSource+0xf8>
 80024da:	d813      	bhi.n	8002504 <HAL_TIM_ConfigClockSource+0x5c>
 80024dc:	2b20      	cmp	r3, #32
 80024de:	d00b      	beq.n	80024f8 <HAL_TIM_ConfigClockSource+0x50>
 80024e0:	d808      	bhi.n	80024f4 <HAL_TIM_ConfigClockSource+0x4c>
 80024e2:	2210      	movs	r2, #16
 80024e4:	0019      	movs	r1, r3
 80024e6:	4391      	bics	r1, r2
 80024e8:	d006      	beq.n	80024f8 <HAL_TIM_ConfigClockSource+0x50>
  htim->State = HAL_TIM_STATE_READY;
 80024ea:	2301      	movs	r3, #1
 80024ec:	7033      	strb	r3, [r6, #0]
  __HAL_UNLOCK(htim);
 80024ee:	2300      	movs	r3, #0
 80024f0:	702b      	strb	r3, [r5, #0]
}
 80024f2:	bdf8      	pop	{r3, r4, r5, r6, r7, pc}
  switch (sClockSourceConfig->ClockSource)
 80024f4:	2b30      	cmp	r3, #48	@ 0x30
 80024f6:	d1f8      	bne.n	80024ea <HAL_TIM_ConfigClockSource+0x42>
  tmpsmcr &= ~TIM_SMCR_TS;
 80024f8:	2170      	movs	r1, #112	@ 0x70
  tmpsmcr = TIMx->SMCR;
 80024fa:	68a2      	ldr	r2, [r4, #8]
  tmpsmcr &= ~TIM_SMCR_TS;
 80024fc:	438a      	bics	r2, r1
  tmpsmcr |= (InputTriggerSource | TIM_SLAVEMODE_EXTERNAL1);
 80024fe:	4313      	orrs	r3, r2
 8002500:	2207      	movs	r2, #7
 8002502:	e028      	b.n	8002556 <HAL_TIM_ConfigClockSource+0xae>
  switch (sClockSourceConfig->ClockSource)
 8002504:	2b50      	cmp	r3, #80	@ 0x50
 8002506:	d1f0      	bne.n	80024ea <HAL_TIM_ConfigClockSource+0x42>
                               sClockSourceConfig->ClockPolarity,
 8002508:	684a      	ldr	r2, [r1, #4]
                               sClockSourceConfig->ClockFilter);
 800250a:	68cb      	ldr	r3, [r1, #12]
  tmpccer = TIMx->CCER;
 800250c:	6a21      	ldr	r1, [r4, #32]
  TIMx->CCER &= ~TIM_CCER_CC1E;
 800250e:	6a27      	ldr	r7, [r4, #32]
  tmpccmr1 |= (TIM_ICFilter << 4U);
 8002510:	011b      	lsls	r3, r3, #4
  TIMx->CCER &= ~TIM_CCER_CC1E;
 8002512:	4387      	bics	r7, r0
 8002514:	6227      	str	r7, [r4, #32]
  tmpccmr1 &= ~TIM_CCMR1_IC1F;
 8002516:	27f0      	movs	r7, #240	@ 0xf0
  tmpccmr1 = TIMx->CCMR1;
 8002518:	69a0      	ldr	r0, [r4, #24]
  tmpccmr1 &= ~TIM_CCMR1_IC1F;
 800251a:	43b8      	bics	r0, r7
  tmpccmr1 |= (TIM_ICFilter << 4U);
 800251c:	4303      	orrs	r3, r0
  tmpccer &= ~(TIM_CCER_CC1P | TIM_CCER_CC1NP);
 800251e:	200a      	movs	r0, #10
  TIMx->CCMR1 = tmpccmr1;
 8002520:	61a3      	str	r3, [r4, #24]
  tmpsmcr &= ~TIM_SMCR_TS;
 8002522:	2370      	movs	r3, #112	@ 0x70
  tmpccer &= ~(TIM_CCER_CC1P | TIM_CCER_CC1NP);
 8002524:	4381      	bics	r1, r0
  tmpccer |= TIM_ICPolarity;
 8002526:	430a      	orrs	r2, r1
  TIMx->CCER = tmpccer;
 8002528:	6222      	str	r2, [r4, #32]
  tmpsmcr = TIMx->SMCR;
 800252a:	68a2      	ldr	r2, [r4, #8]
  tmpsmcr &= ~TIM_SMCR_TS;
 800252c:	439a      	bics	r2, r3
  tmpsmcr |= (InputTriggerSource | TIM_SLAVEMODE_EXTERNAL1);
 800252e:	3b19      	subs	r3, #25
 8002530:	e011      	b.n	8002556 <HAL_TIM_ConfigClockSource+0xae>
  switch (sClockSourceConfig->ClockSource)
 8002532:	2280      	movs	r2, #128	@ 0x80
 8002534:	0152      	lsls	r2, r2, #5
 8002536:	4293      	cmp	r3, r2
 8002538:	d00f      	beq.n	800255a <HAL_TIM_ConfigClockSource+0xb2>
 800253a:	2280      	movs	r2, #128	@ 0x80
 800253c:	0192      	lsls	r2, r2, #6
 800253e:	4293      	cmp	r3, r2
 8002540:	d00d      	beq.n	800255e <HAL_TIM_ConfigClockSource+0xb6>
 8002542:	2b70      	cmp	r3, #112	@ 0x70
 8002544:	d1d1      	bne.n	80024ea <HAL_TIM_ConfigClockSource+0x42>
      TIM_ETR_SetConfig(htim->Instance,
 8002546:	68cb      	ldr	r3, [r1, #12]
 8002548:	684a      	ldr	r2, [r1, #4]
 800254a:	0020      	movs	r0, r4
 800254c:	6889      	ldr	r1, [r1, #8]
 800254e:	f7ff ff9f 	bl	8002490 <TIM_ETR_SetConfig>
      tmpsmcr |= (TIM_SLAVEMODE_EXTERNAL1 | TIM_CLOCKSOURCE_ETRMODE1);
 8002552:	2377      	movs	r3, #119	@ 0x77
      tmpsmcr = htim->Instance->SMCR;
 8002554:	68a2      	ldr	r2, [r4, #8]
      tmpsmcr |= (TIM_SLAVEMODE_EXTERNAL1 | TIM_CLOCKSOURCE_ETRMODE1);
 8002556:	4313      	orrs	r3, r2
      htim->Instance->SMCR = tmpsmcr;
 8002558:	60a3      	str	r3, [r4, #8]
  HAL_StatusTypeDef status = HAL_OK;
 800255a:	2000      	movs	r0, #0
 800255c:	e7c5      	b.n	80024ea <HAL_TIM_ConfigClockSource+0x42>
      TIM_ETR_SetConfig(htim->Instance,
 800255e:	68cb      	ldr	r3, [r1, #12]
 8002560:	684a      	ldr	r2, [r1, #4]
 8002562:	0020      	movs	r0, r4
 8002564:	6889      	ldr	r1, [r1, #8]
 8002566:	f7ff ff93 	bl	8002490 <TIM_ETR_SetConfig>
      htim->Instance->SMCR |= TIM_SMCR_ECE;
 800256a:	2380      	movs	r3, #128	@ 0x80
 800256c:	68a2      	ldr	r2, [r4, #8]
 800256e:	01db      	lsls	r3, r3, #7
 8002570:	e7f1      	b.n	8002556 <HAL_TIM_ConfigClockSource+0xae>
  TIMx->CCER &= ~TIM_CCER_CC2E;
 8002572:	2710      	movs	r7, #16
                               sClockSourceConfig->ClockPolarity,
 8002574:	684b      	ldr	r3, [r1, #4]
                               sClockSourceConfig->ClockFilter);
 8002576:	68ca      	ldr	r2, [r1, #12]
  tmpccer = TIMx->CCER;
 8002578:	6a21      	ldr	r1, [r4, #32]
  TIMx->CCER &= ~TIM_CCER_CC2E;
 800257a:	6a20      	ldr	r0, [r4, #32]
  tmpccmr1 |= (TIM_ICFilter << 12U);
 800257c:	0312      	lsls	r2, r2, #12
  TIMx->CCER &= ~TIM_CCER_CC2E;
 800257e:	43b8      	bics	r0, r7
 8002580:	6220      	str	r0, [r4, #32]
  tmpccmr1 = TIMx->CCMR1;
 8002582:	69a0      	ldr	r0, [r4, #24]
  tmpccmr1 &= ~TIM_CCMR1_IC2F;
 8002584:	4f12      	ldr	r7, [pc, #72]	@ (80025d0 <HAL_TIM_ConfigClockSource+0x128>)
  tmpccer |= (TIM_ICPolarity << 4U);
 8002586:	011b      	lsls	r3, r3, #4
  tmpccmr1 &= ~TIM_CCMR1_IC2F;
 8002588:	4038      	ands	r0, r7
  tmpccmr1 |= (TIM_ICFilter << 12U);
 800258a:	4302      	orrs	r2, r0
  tmpccer &= ~(TIM_CCER_CC2P | TIM_CCER_CC2NP);
 800258c:	20a0      	movs	r0, #160	@ 0xa0
 800258e:	4381      	bics	r1, r0
  tmpccer |= (TIM_ICPolarity << 4U);
 8002590:	430b      	orrs	r3, r1
  TIMx->CCMR1 = tmpccmr1 ;
 8002592:	61a2      	str	r2, [r4, #24]
  TIMx->CCER = tmpccer;
 8002594:	6223      	str	r3, [r4, #32]
  tmpsmcr &= ~TIM_SMCR_TS;
 8002596:	2370      	movs	r3, #112	@ 0x70
  tmpsmcr = TIMx->SMCR;
 8002598:	68a2      	ldr	r2, [r4, #8]
  tmpsmcr &= ~TIM_SMCR_TS;
 800259a:	439a      	bics	r2, r3
  tmpsmcr |= (InputTriggerSource | TIM_SLAVEMODE_EXTERNAL1);
 800259c:	3b09      	subs	r3, #9
 800259e:	e7da      	b.n	8002556 <HAL_TIM_ConfigClockSource+0xae>
                               sClockSourceConfig->ClockPolarity,
 80025a0:	684a      	ldr	r2, [r1, #4]
                               sClockSourceConfig->ClockFilter);
 80025a2:	68cb      	ldr	r3, [r1, #12]
  tmpccer = TIMx->CCER;
 80025a4:	6a21      	ldr	r1, [r4, #32]
  TIMx->CCER &= ~TIM_CCER_CC1E;
 80025a6:	6a27      	ldr	r7, [r4, #32]
  tmpccmr1 |= (TIM_ICFilter << 4U);
 80025a8:	011b      	lsls	r3, r3, #4
  TIMx->CCER &= ~TIM_CCER_CC1E;
 80025aa:	4387      	bics	r7, r0
 80025ac:	6227      	str	r7, [r4, #32]
  tmpccmr1 &= ~TIM_CCMR1_IC1F;
 80025ae:	27f0      	movs	r7, #240	@ 0xf0
  tmpccmr1 = TIMx->CCMR1;
 80025b0:	69a0      	ldr	r0, [r4, #24]
  tmpccmr1 &= ~TIM_CCMR1_IC1F;
 80025b2:	43b8      	bics	r0, r7
  tmpccmr1 |= (TIM_ICFilter << 4U);
 80025b4:	4303      	orrs	r3, r0
  tmpccer &= ~(TIM_CCER_CC1P | TIM_CCER_CC1NP);
 80025b6:	200a      	movs	r0, #10
  TIMx->CCMR1 = tmpccmr1;
 80025b8:	61a3      	str	r3, [r4, #24]
  tmpsmcr &= ~TIM_SMCR_TS;
 80025ba:	2370      	movs	r3, #112	@ 0x70
  tmpccer &= ~(TIM_CCER_CC1P | TIM_CCER_CC1NP);
 80025bc:	4381      	bics	r1, r0
  tmpccer |= TIM_ICPolarity;
 80025be:	430a      	orrs	r2, r1
  TIMx->CCER = tmpccer;
 80025c0:	6222      	str	r2, [r4, #32]
  tmpsmcr = TIMx->SMCR;
 80025c2:	68a2      	ldr	r2, [r4, #8]
  tmpsmcr &= ~TIM_SMCR_TS;
 80025c4:	439a      	bics	r2, r3
  tmpsmcr |= (InputTriggerSource | TIM_SLAVEMODE_EXTERNAL1);
 80025c6:	3b29      	subs	r3, #41	@ 0x29
 80025c8:	e7c5      	b.n	8002556 <HAL_TIM_ConfigClockSource+0xae>
 80025ca:	46c0      	nop			@ (mov r8, r8)
 80025cc:	ffff0088 	.word	0xffff0088
 80025d0:	ffff0fff 	.word	0xffff0fff

080025d4 <TIM_ResetCallback>:
  * @retval None
  */
void TIM_ResetCallback(TIM_HandleTypeDef *htim)
{
  /* Reset the TIM callback to the legacy weak callbacks */
  htim->PeriodElapsedCallback             = HAL_TIM_PeriodElapsedCallback;
 80025d4:	4a0f      	ldr	r2, [pc, #60]	@ (8002614 <TIM_ResetCallback+0x40>)
 80025d6:	1d03      	adds	r3, r0, #4
 80025d8:	67da      	str	r2, [r3, #124]	@ 0x7c
  htim->PeriodElapsedHalfCpltCallback     = HAL_TIM_PeriodElapsedHalfCpltCallback;
 80025da:	4a0f      	ldr	r2, [pc, #60]	@ (8002618 <TIM_ResetCallback+0x44>)
 80025dc:	3304      	adds	r3, #4
 80025de:	67da      	str	r2, [r3, #124]	@ 0x7c
  htim->TriggerCallback                   = HAL_TIM_TriggerCallback;
 80025e0:	4a0e      	ldr	r2, [pc, #56]	@ (800261c <TIM_ResetCallback+0x48>)
 80025e2:	3380      	adds	r3, #128	@ 0x80
 80025e4:	601a      	str	r2, [r3, #0]
  htim->TriggerHalfCpltCallback           = HAL_TIM_TriggerHalfCpltCallback;
 80025e6:	4a0e      	ldr	r2, [pc, #56]	@ (8002620 <TIM_ResetCallback+0x4c>)
  htim->PWM_PulseFinishedCallback         = HAL_TIM_PWM_PulseFinishedCallback;
  htim->PWM_PulseFinishedHalfCpltCallback = HAL_TIM_PWM_PulseFinishedHalfCpltCallback;
  htim->ErrorCallback                     = HAL_TIM_ErrorCallback;
  htim->CommutationCallback               = HAL_TIMEx_CommutCallback;
  htim->CommutationHalfCpltCallback       = HAL_TIMEx_CommutHalfCpltCallback;
  htim->BreakCallback                     = HAL_TIMEx_BreakCallback;
 80025e8:	30b0      	adds	r0, #176	@ 0xb0
  htim->TriggerHalfCpltCallback           = HAL_TIM_TriggerHalfCpltCallback;
 80025ea:	605a      	str	r2, [r3, #4]
  htim->IC_CaptureCallback                = HAL_TIM_IC_CaptureCallback;
 80025ec:	4a0d      	ldr	r2, [pc, #52]	@ (8002624 <TIM_ResetCallback+0x50>)
 80025ee:	609a      	str	r2, [r3, #8]
  htim->IC_CaptureHalfCpltCallback        = HAL_TIM_IC_CaptureHalfCpltCallback;
 80025f0:	4a0d      	ldr	r2, [pc, #52]	@ (8002628 <TIM_ResetCallback+0x54>)
 80025f2:	60da      	str	r2, [r3, #12]
  htim->OC_DelayElapsedCallback           = HAL_TIM_OC_DelayElapsedCallback;
 80025f4:	4a0d      	ldr	r2, [pc, #52]	@ (800262c <TIM_ResetCallback+0x58>)
 80025f6:	611a      	str	r2, [r3, #16]
  htim->PWM_PulseFinishedCallback         = HAL_TIM_PWM_PulseFinishedCallback;
 80025f8:	4a0d      	ldr	r2, [pc, #52]	@ (8002630 <TIM_ResetCallback+0x5c>)
 80025fa:	615a      	str	r2, [r3, #20]
  htim->PWM_PulseFinishedHalfCpltCallback = HAL_TIM_PWM_PulseFinishedHalfCpltCallback;
 80025fc:	4a0d      	ldr	r2, [pc, #52]	@ (8002634 <TIM_ResetCallback+0x60>)
 80025fe:	619a      	str	r2, [r3, #24]
  htim->ErrorCallback                     = HAL_TIM_ErrorCallback;
 8002600:	4a0d      	ldr	r2, [pc, #52]	@ (8002638 <TIM_ResetCallback+0x64>)
 8002602:	61da      	str	r2, [r3, #28]
  htim->CommutationCallback               = HAL_TIMEx_CommutCallback;
 8002604:	4a0d      	ldr	r2, [pc, #52]	@ (800263c <TIM_ResetCallback+0x68>)
 8002606:	621a      	str	r2, [r3, #32]
  htim->CommutationHalfCpltCallback       = HAL_TIMEx_CommutHalfCpltCallback;
 8002608:	4a0d      	ldr	r2, [pc, #52]	@ (8002640 <TIM_ResetCallback+0x6c>)
 800260a:	625a      	str	r2, [r3, #36]	@ 0x24
  htim->BreakCallback                     = HAL_TIMEx_BreakCallback;
 800260c:	4b0d      	ldr	r3, [pc, #52]	@ (8002644 <TIM_ResetCallback+0x70>)
 800260e:	6003      	str	r3, [r0, #0]
}
 8002610:	4770      	bx	lr
 8002612:	46c0      	nop			@ (mov r8, r8)
 8002614:	08000ce1 	.word	0x08000ce1
 8002618:	08002235 	.word	0x08002235
 800261c:	08002241 	.word	0x08002241
 8002620:	08002243 	.word	0x08002243
 8002624:	08002239 	.word	0x08002239
 8002628:	0800223b 	.word	0x0800223b
 800262c:	08002237 	.word	0x08002237
 8002630:	0800223d 	.word	0x0800223d
 8002634:	0800223f 	.word	0x0800223f
 8002638:	08002245 	.word	0x08002245
 800263c:	08002705 	.word	0x08002705
 8002640:	08002707 	.word	0x08002707
 8002644:	08002709 	.word	0x08002709

08002648 <HAL_TIM_Base_Init>:
{
 8002648:	b570      	push	{r4, r5, r6, lr}
 800264a:	0004      	movs	r4, r0
    return HAL_ERROR;
 800264c:	2001      	movs	r0, #1
  if (htim == NULL)
 800264e:	2c00      	cmp	r4, #0
 8002650:	d029      	beq.n	80026a6 <HAL_TIM_Base_Init+0x5e>
  if (htim->State == HAL_TIM_STATE_RESET)
 8002652:	0025      	movs	r5, r4
 8002654:	353d      	adds	r5, #61	@ 0x3d
 8002656:	782b      	ldrb	r3, [r5, #0]
 8002658:	b2da      	uxtb	r2, r3
 800265a:	2b00      	cmp	r3, #0
 800265c:	d10d      	bne.n	800267a <HAL_TIM_Base_Init+0x32>
    htim->Lock = HAL_UNLOCKED;
 800265e:	0023      	movs	r3, r4
 8002660:	333c      	adds	r3, #60	@ 0x3c
 8002662:	701a      	strb	r2, [r3, #0]
    TIM_ResetCallback(htim);
 8002664:	0020      	movs	r0, r4
 8002666:	f7ff ffb5 	bl	80025d4 <TIM_ResetCallback>
    if (htim->Base_MspInitCallback == NULL)
 800266a:	6ca3      	ldr	r3, [r4, #72]	@ 0x48
 800266c:	2b00      	cmp	r3, #0
 800266e:	d101      	bne.n	8002674 <HAL_TIM_Base_Init+0x2c>
      htim->Base_MspInitCallback = HAL_TIM_Base_MspInit;
 8002670:	4b0d      	ldr	r3, [pc, #52]	@ (80026a8 <HAL_TIM_Base_Init+0x60>)
 8002672:	64a3      	str	r3, [r4, #72]	@ 0x48
    htim->Base_MspInitCallback(htim);
 8002674:	0020      	movs	r0, r4
 8002676:	6ca3      	ldr	r3, [r4, #72]	@ 0x48
 8002678:	4798      	blx	r3
  htim->State = HAL_TIM_STATE_BUSY;
 800267a:	2302      	movs	r3, #2
 800267c:	702b      	strb	r3, [r5, #0]
  TIM_Base_SetConfig(htim->Instance, &htim->Init);
 800267e:	6820      	ldr	r0, [r4, #0]
 8002680:	1d21      	adds	r1, r4, #4
 8002682:	f7ff febf 	bl	8002404 <TIM_Base_SetConfig>
  htim->DMABurstState = HAL_DMA_BURST_STATE_READY;
 8002686:	0022      	movs	r2, r4
 8002688:	2301      	movs	r3, #1
  return HAL_OK;
 800268a:	2000      	movs	r0, #0
  htim->DMABurstState = HAL_DMA_BURST_STATE_READY;
 800268c:	3246      	adds	r2, #70	@ 0x46
 800268e:	7013      	strb	r3, [r2, #0]
  TIM_CHANNEL_N_STATE_SET_ALL(htim, HAL_TIM_CHANNEL_STATE_READY);
 8002690:	3445      	adds	r4, #69	@ 0x45
  TIM_CHANNEL_STATE_SET_ALL(htim, HAL_TIM_CHANNEL_STATE_READY);
 8002692:	3a08      	subs	r2, #8
 8002694:	7013      	strb	r3, [r2, #0]
 8002696:	7053      	strb	r3, [r2, #1]
 8002698:	7093      	strb	r3, [r2, #2]
 800269a:	70d3      	strb	r3, [r2, #3]
  TIM_CHANNEL_N_STATE_SET_ALL(htim, HAL_TIM_CHANNEL_STATE_READY);
 800269c:	7113      	strb	r3, [r2, #4]
 800269e:	7153      	strb	r3, [r2, #5]
 80026a0:	7193      	strb	r3, [r2, #6]
 80026a2:	7023      	strb	r3, [r4, #0]
  htim->State = HAL_TIM_STATE_READY;
 80026a4:	702b      	strb	r3, [r5, #0]
}
 80026a6:	bd70      	pop	{r4, r5, r6, pc}
 80026a8:	08000ebd 	.word	0x08000ebd

080026ac <HAL_TIMEx_MasterConfigSynchronization>:
  *         mode.
  * @retval HAL status
  */
HAL_StatusTypeDef HAL_TIMEx_MasterConfigSynchronization(TIM_HandleTypeDef *htim,
                                                        const TIM_MasterConfigTypeDef *sMasterConfig)
{
 80026ac:	b570      	push	{r4, r5, r6, lr}
  assert_param(IS_TIM_MASTER_INSTANCE(htim->Instance));
  assert_param(IS_TIM_TRGO_SOURCE(sMasterConfig->MasterOutputTrigger));
  assert_param(IS_TIM_MSM_STATE(sMasterConfig->MasterSlaveMode));

  /* Check input state */
  __HAL_LOCK(htim);
 80026ae:	0004      	movs	r4, r0
 80026b0:	2202      	movs	r2, #2
 80026b2:	343c      	adds	r4, #60	@ 0x3c
 80026b4:	7825      	ldrb	r5, [r4, #0]
{
 80026b6:	0003      	movs	r3, r0
  __HAL_LOCK(htim);
 80026b8:	0010      	movs	r0, r2
 80026ba:	2d01      	cmp	r5, #1
 80026bc:	d01d      	beq.n	80026fa <HAL_TIMEx_MasterConfigSynchronization+0x4e>

  /* Change the handler state */
  htim->State = HAL_TIM_STATE_BUSY;
 80026be:	001d      	movs	r5, r3

  /* Get the TIMx SMCR register value */
  tmpsmcr = htim->Instance->SMCR;

  /* Reset the MMS Bits */
  tmpcr2 &= ~TIM_CR2_MMS;
 80026c0:	2670      	movs	r6, #112	@ 0x70
  htim->State = HAL_TIM_STATE_BUSY;
 80026c2:	353d      	adds	r5, #61	@ 0x3d
 80026c4:	702a      	strb	r2, [r5, #0]
  tmpcr2 = htim->Instance->CR2;
 80026c6:	681b      	ldr	r3, [r3, #0]
 80026c8:	6858      	ldr	r0, [r3, #4]
  tmpsmcr = htim->Instance->SMCR;
 80026ca:	689a      	ldr	r2, [r3, #8]
  tmpcr2 &= ~TIM_CR2_MMS;
 80026cc:	43b0      	bics	r0, r6
  /* Select the TRGO source */
  tmpcr2 |=  sMasterConfig->MasterOutputTrigger;
 80026ce:	680e      	ldr	r6, [r1, #0]
 80026d0:	4330      	orrs	r0, r6

  /* Update TIMx CR2 */
  htim->Instance->CR2 = tmpcr2;
 80026d2:	6058      	str	r0, [r3, #4]

  if (IS_TIM_SLAVE_INSTANCE(htim->Instance))
 80026d4:	4809      	ldr	r0, [pc, #36]	@ (80026fc <HAL_TIMEx_MasterConfigSynchronization+0x50>)
 80026d6:	4283      	cmp	r3, r0
 80026d8:	d006      	beq.n	80026e8 <HAL_TIMEx_MasterConfigSynchronization+0x3c>
 80026da:	2080      	movs	r0, #128	@ 0x80
 80026dc:	05c0      	lsls	r0, r0, #23
 80026de:	4283      	cmp	r3, r0
 80026e0:	d002      	beq.n	80026e8 <HAL_TIMEx_MasterConfigSynchronization+0x3c>
 80026e2:	4807      	ldr	r0, [pc, #28]	@ (8002700 <HAL_TIMEx_MasterConfigSynchronization+0x54>)
 80026e4:	4283      	cmp	r3, r0
 80026e6:	d104      	bne.n	80026f2 <HAL_TIMEx_MasterConfigSynchronization+0x46>
  {
    /* Reset the MSM Bit */
    tmpsmcr &= ~TIM_SMCR_MSM;
 80026e8:	2080      	movs	r0, #128	@ 0x80
    /* Set master mode */
    tmpsmcr |= sMasterConfig->MasterSlaveMode;
 80026ea:	6849      	ldr	r1, [r1, #4]
    tmpsmcr &= ~TIM_SMCR_MSM;
 80026ec:	4382      	bics	r2, r0
    tmpsmcr |= sMasterConfig->MasterSlaveMode;
 80026ee:	430a      	orrs	r2, r1

    /* Update TIMx SMCR */
    htim->Instance->SMCR = tmpsmcr;
 80026f0:	609a      	str	r2, [r3, #8]
  }

  /* Change the htim state */
  htim->State = HAL_TIM_STATE_READY;
 80026f2:	2301      	movs	r3, #1

  __HAL_UNLOCK(htim);
 80026f4:	2000      	movs	r0, #0
  htim->State = HAL_TIM_STATE_READY;
 80026f6:	702b      	strb	r3, [r5, #0]
  __HAL_UNLOCK(htim);
 80026f8:	7020      	strb	r0, [r4, #0]

  return HAL_OK;
}
 80026fa:	bd70      	pop	{r4, r5, r6, pc}
 80026fc:	40012c00 	.word	0x40012c00
 8002700:	40000400 	.word	0x40000400

08002704 <HAL_TIMEx_CommutCallback>:
/**
  * @brief  Commutation callback in non-blocking mode
  * @param  htim TIM handle
  * @retval None
  */
__weak void HAL_TIMEx_CommutCallback(TIM_HandleTypeDef *htim)
 8002704:	4770      	bx	lr

08002706 <HAL_TIMEx_CommutHalfCpltCallback>:
/**
  * @brief  Commutation half complete callback in non-blocking mode
  * @param  htim TIM handle
  * @retval None
  */
__weak void HAL_TIMEx_CommutHalfCpltCallback(TIM_HandleTypeDef *htim)
 8002706:	4770      	bx	lr

08002708 <HAL_TIMEx_BreakCallback>:
/**
  * @brief  Break detection callback in non-blocking mode
  * @param  htim TIM handle
  * @retval None
  */
__weak void HAL_TIMEx_BreakCallback(TIM_HandleTypeDef *htim)
 8002708:	4770      	bx	lr
	...

0800270c <UART_EndRxTransfer>:
  * @brief  End ongoing Rx transfer on UART peripheral (following error detection or Reception completion).
  * @param  huart UART handle.
  * @retval None
  */
static void UART_EndRxTransfer(UART_HandleTypeDef *huart)
{
 800270c:	b530      	push	{r4, r5, lr}
 */
__STATIC_FORCEINLINE uint32_t __get_PRIMASK(void)
{
  uint32_t result;

  __ASM volatile ("MRS %0, primask" : "=r" (result) :: "memory");
 800270e:	f3ef 8410 	mrs	r4, PRIMASK
  \details Assigns the given value to the Priority Mask Register.
  \param [in]    priMask  Priority Mask
 */
__STATIC_FORCEINLINE void __set_PRIMASK(uint32_t priMask)
{
  __ASM volatile ("MSR primask, %0" : : "r" (priMask) : "memory");
 8002712:	2201      	movs	r2, #1
 8002714:	f382 8810 	msr	PRIMASK, r2
  /* Disable RXNE, PE and ERR (Frame error, noise error, overrun error) interrupts */
  ATOMIC_CLEAR_BIT(huart->Instance->CR1, (USART_CR1_RXNEIE | USART_CR1_PEIE));
 8002718:	6801      	ldr	r1, [r0, #0]
 800271a:	4d12      	ldr	r5, [pc, #72]	@ (8002764 <UART_EndRxTransfer+0x58>)
 800271c:	680b      	ldr	r3, [r1, #0]
 800271e:	402b      	ands	r3, r5
 8002720:	600b      	str	r3, [r1, #0]
 8002722:	f384 8810 	msr	PRIMASK, r4
  __ASM volatile ("MRS %0, primask" : "=r" (result) :: "memory");
 8002726:	f3ef 8410 	mrs	r4, PRIMASK
  __ASM volatile ("MSR primask, %0" : : "r" (priMask) : "memory");
 800272a:	f382 8810 	msr	PRIMASK, r2
  ATOMIC_CLEAR_BIT(huart->Instance->CR3, USART_CR3_EIE);
 800272e:	6801      	ldr	r1, [r0, #0]
 8002730:	688b      	ldr	r3, [r1, #8]
 8002732:	4393      	bics	r3, r2
 8002734:	608b      	str	r3, [r1, #8]
 8002736:	f384 8810 	msr	PRIMASK, r4

  /* In case of reception waiting for IDLE event, disable also the IDLE IE interrupt source */
  if (huart->ReceptionType == HAL_UART_RECEPTION_TOIDLE)
 800273a:	6e03      	ldr	r3, [r0, #96]	@ 0x60
 800273c:	4293      	cmp	r3, r2
 800273e:	d10a      	bne.n	8002756 <UART_EndRxTransfer+0x4a>
  __ASM volatile ("MRS %0, primask" : "=r" (result) :: "memory");
 8002740:	f3ef 8110 	mrs	r1, PRIMASK
  __ASM volatile ("MSR primask, %0" : : "r" (priMask) : "memory");
 8002744:	f383 8810 	msr	PRIMASK, r3
  {
    ATOMIC_CLEAR_BIT(huart->Instance->CR1, USART_CR1_IDLEIE);
 8002748:	2410      	movs	r4, #16
 800274a:	6802      	ldr	r2, [r0, #0]
 800274c:	6813      	ldr	r3, [r2, #0]
 800274e:	43a3      	bics	r3, r4
 8002750:	6013      	str	r3, [r2, #0]
 8002752:	f381 8810 	msr	PRIMASK, r1
  }

  /* At end of Rx process, restore huart->RxState to Ready */
  huart->RxState = HAL_UART_STATE_READY;
 8002756:	2220      	movs	r2, #32
 8002758:	1d03      	adds	r3, r0, #4
 800275a:	67da      	str	r2, [r3, #124]	@ 0x7c
  huart->ReceptionType = HAL_UART_RECEPTION_STANDARD;
 800275c:	2300      	movs	r3, #0
 800275e:	6603      	str	r3, [r0, #96]	@ 0x60

  /* Reset RxIsr function pointer */
  huart->RxISR = NULL;
 8002760:	6683      	str	r3, [r0, #104]	@ 0x68
}
 8002762:	bd30      	pop	{r4, r5, pc}
 8002764:	fffffedf 	.word	0xfffffedf

08002768 <UART_SetConfig>:
{
 8002768:	b570      	push	{r4, r5, r6, lr}
 800276a:	0004      	movs	r4, r0
  tmpreg = (uint32_t)huart->Init.WordLength | huart->Init.Parity | huart->Init.Mode | huart->Init.OverSampling ;
 800276c:	6925      	ldr	r5, [r4, #16]
 800276e:	68a1      	ldr	r1, [r4, #8]
  MODIFY_REG(huart->Instance->CR1, USART_CR1_FIELDS, tmpreg);
 8002770:	6803      	ldr	r3, [r0, #0]
  tmpreg = (uint32_t)huart->Init.WordLength | huart->Init.Parity | huart->Init.Mode | huart->Init.OverSampling ;
 8002772:	4329      	orrs	r1, r5
 8002774:	6965      	ldr	r5, [r4, #20]
 8002776:	69c2      	ldr	r2, [r0, #28]
 8002778:	4329      	orrs	r1, r5
  MODIFY_REG(huart->Instance->CR1, USART_CR1_FIELDS, tmpreg);
 800277a:	6818      	ldr	r0, [r3, #0]
 800277c:	4d3d      	ldr	r5, [pc, #244]	@ (8002874 <UART_SetConfig+0x10c>)
  tmpreg = (uint32_t)huart->Init.WordLength | huart->Init.Parity | huart->Init.Mode | huart->Init.OverSampling ;
 800277e:	4311      	orrs	r1, r2
  MODIFY_REG(huart->Instance->CR1, USART_CR1_FIELDS, tmpreg);
 8002780:	4028      	ands	r0, r5
 8002782:	4301      	orrs	r1, r0
 8002784:	6019      	str	r1, [r3, #0]
  MODIFY_REG(huart->Instance->CR2, USART_CR2_STOP, huart->Init.StopBits);
 8002786:	6859      	ldr	r1, [r3, #4]
 8002788:	483b      	ldr	r0, [pc, #236]	@ (8002878 <UART_SetConfig+0x110>)
  tmpreg |= huart->Init.OneBitSampling;
 800278a:	6a25      	ldr	r5, [r4, #32]
  MODIFY_REG(huart->Instance->CR2, USART_CR2_STOP, huart->Init.StopBits);
 800278c:	4001      	ands	r1, r0
 800278e:	68e0      	ldr	r0, [r4, #12]
 8002790:	4301      	orrs	r1, r0
 8002792:	6059      	str	r1, [r3, #4]
  tmpreg = (uint32_t)huart->Init.HwFlowCtl;
 8002794:	69a1      	ldr	r1, [r4, #24]
  MODIFY_REG(huart->Instance->CR3, USART_CR3_FIELDS, tmpreg);
 8002796:	6898      	ldr	r0, [r3, #8]
  tmpreg |= huart->Init.OneBitSampling;
 8002798:	4329      	orrs	r1, r5
  MODIFY_REG(huart->Instance->CR3, USART_CR3_FIELDS, tmpreg);
 800279a:	4d38      	ldr	r5, [pc, #224]	@ (800287c <UART_SetConfig+0x114>)
 800279c:	4028      	ands	r0, r5
 800279e:	4301      	orrs	r1, r0
 80027a0:	6099      	str	r1, [r3, #8]
  UART_GETCLOCKSOURCE(huart, clocksource);
 80027a2:	4937      	ldr	r1, [pc, #220]	@ (8002880 <UART_SetConfig+0x118>)
 80027a4:	428b      	cmp	r3, r1
 80027a6:	d115      	bne.n	80027d4 <UART_SetConfig+0x6c>
 80027a8:	2103      	movs	r1, #3
 80027aa:	4b36      	ldr	r3, [pc, #216]	@ (8002884 <UART_SetConfig+0x11c>)
 80027ac:	6b1b      	ldr	r3, [r3, #48]	@ 0x30
 80027ae:	400b      	ands	r3, r1
 80027b0:	3b01      	subs	r3, #1
 80027b2:	2b02      	cmp	r3, #2
 80027b4:	d851      	bhi.n	800285a <UART_SetConfig+0xf2>
 80027b6:	4934      	ldr	r1, [pc, #208]	@ (8002888 <UART_SetConfig+0x120>)
 80027b8:	5cc8      	ldrb	r0, [r1, r3]
  if (huart->Init.OverSampling == UART_OVERSAMPLING_8)
 80027ba:	2380      	movs	r3, #128	@ 0x80
 80027bc:	021b      	lsls	r3, r3, #8
 80027be:	429a      	cmp	r2, r3
 80027c0:	d127      	bne.n	8002812 <UART_SetConfig+0xaa>
    switch (clocksource)
 80027c2:	2808      	cmp	r0, #8
 80027c4:	d847      	bhi.n	8002856 <UART_SetConfig+0xee>
 80027c6:	f7fd fca7 	bl	8000118 <__gnu_thumb1_case_uqi>
 80027ca:	464c      	.short	0x464c
 80027cc:	460b460e 	.word	0x460b460e
 80027d0:	4646      	.short	0x4646
 80027d2:	0f          	.byte	0x0f
 80027d3:	00          	.byte	0x00
  UART_GETCLOCKSOURCE(huart, clocksource);
 80027d4:	492d      	ldr	r1, [pc, #180]	@ (800288c <UART_SetConfig+0x124>)
 80027d6:	185b      	adds	r3, r3, r1
 80027d8:	1e59      	subs	r1, r3, #1
 80027da:	418b      	sbcs	r3, r1
 80027dc:	0118      	lsls	r0, r3, #4
 80027de:	e7ec      	b.n	80027ba <UART_SetConfig+0x52>
        pclk = HAL_RCC_GetSysClockFreq();
 80027e0:	f7ff fc58 	bl	8002094 <HAL_RCC_GetSysClockFreq>
 80027e4:	e03f      	b.n	8002866 <UART_SetConfig+0xfe>
    switch (clocksource)
 80027e6:	4a2a      	ldr	r2, [pc, #168]	@ (8002890 <UART_SetConfig+0x128>)
      usartdiv = (uint32_t)(UART_DIV_SAMPLING8(pclk, huart->Init.BaudRate));
 80027e8:	6861      	ldr	r1, [r4, #4]
 80027ea:	0052      	lsls	r2, r2, #1
 80027ec:	0848      	lsrs	r0, r1, #1
 80027ee:	1810      	adds	r0, r2, r0
 80027f0:	f7fd fca6 	bl	8000140 <__udivsi3>
      if ((usartdiv >= UART_BRR_MIN) && (usartdiv <= UART_BRR_MAX))
 80027f4:	0002      	movs	r2, r0
 80027f6:	4b27      	ldr	r3, [pc, #156]	@ (8002894 <UART_SetConfig+0x12c>)
 80027f8:	3a10      	subs	r2, #16
 80027fa:	429a      	cmp	r2, r3
 80027fc:	d82b      	bhi.n	8002856 <UART_SetConfig+0xee>
        brrtemp = (uint16_t)(usartdiv & 0xFFF0U);
 80027fe:	230f      	movs	r3, #15
 8002800:	0002      	movs	r2, r0
        brrtemp |= (uint16_t)((usartdiv & (uint16_t)0x000FU) >> 1U);
 8002802:	0700      	lsls	r0, r0, #28
        brrtemp = (uint16_t)(usartdiv & 0xFFF0U);
 8002804:	439a      	bics	r2, r3
 8002806:	b293      	uxth	r3, r2
        brrtemp |= (uint16_t)((usartdiv & (uint16_t)0x000FU) >> 1U);
 8002808:	0f40      	lsrs	r0, r0, #29
        huart->Instance->BRR = brrtemp;
 800280a:	6822      	ldr	r2, [r4, #0]
 800280c:	4303      	orrs	r3, r0
 800280e:	60d3      	str	r3, [r2, #12]
 8002810:	e02b      	b.n	800286a <UART_SetConfig+0x102>
    switch (clocksource)
 8002812:	2808      	cmp	r0, #8
 8002814:	d81f      	bhi.n	8002856 <UART_SetConfig+0xee>
 8002816:	f7fd fc7f 	bl	8000118 <__gnu_thumb1_case_uqi>
 800281a:	1e13      	.short	0x1e13
 800281c:	1e181e05 	.word	0x1e181e05
 8002820:	1e1e      	.short	0x1e1e
 8002822:	1b          	.byte	0x1b
 8002823:	00          	.byte	0x00
        pclk = (uint32_t) HSI_VALUE;
 8002824:	481a      	ldr	r0, [pc, #104]	@ (8002890 <UART_SetConfig+0x128>)
      usartdiv = (uint32_t)(UART_DIV_SAMPLING16(pclk, huart->Init.BaudRate));
 8002826:	6861      	ldr	r1, [r4, #4]
 8002828:	084b      	lsrs	r3, r1, #1
 800282a:	1818      	adds	r0, r3, r0
 800282c:	f7fd fc88 	bl	8000140 <__udivsi3>
      if ((usartdiv >= UART_BRR_MIN) && (usartdiv <= UART_BRR_MAX))
 8002830:	0002      	movs	r2, r0
 8002832:	4b18      	ldr	r3, [pc, #96]	@ (8002894 <UART_SetConfig+0x12c>)
 8002834:	3a10      	subs	r2, #16
 8002836:	429a      	cmp	r2, r3
 8002838:	d80d      	bhi.n	8002856 <UART_SetConfig+0xee>
        huart->Instance->BRR = (uint16_t)usartdiv;
 800283a:	6823      	ldr	r3, [r4, #0]
 800283c:	60d8      	str	r0, [r3, #12]
 800283e:	e014      	b.n	800286a <UART_SetConfig+0x102>
        pclk = HAL_RCC_GetPCLK1Freq();
 8002840:	f7ff fce8 	bl	8002214 <HAL_RCC_GetPCLK1Freq>
    if (pclk != 0U)
 8002844:	2800      	cmp	r0, #0
 8002846:	d010      	beq.n	800286a <UART_SetConfig+0x102>
 8002848:	e7ed      	b.n	8002826 <UART_SetConfig+0xbe>
        pclk = HAL_RCC_GetSysClockFreq();
 800284a:	f7ff fc23 	bl	8002094 <HAL_RCC_GetSysClockFreq>
        break;
 800284e:	e7f9      	b.n	8002844 <UART_SetConfig+0xdc>
    switch (clocksource)
 8002850:	2080      	movs	r0, #128	@ 0x80
 8002852:	0200      	lsls	r0, r0, #8
 8002854:	e7e7      	b.n	8002826 <UART_SetConfig+0xbe>
        ret = HAL_ERROR;
 8002856:	2001      	movs	r0, #1
 8002858:	e008      	b.n	800286c <UART_SetConfig+0x104>
  if (huart->Init.OverSampling == UART_OVERSAMPLING_8)
 800285a:	2380      	movs	r3, #128	@ 0x80
 800285c:	021b      	lsls	r3, r3, #8
 800285e:	429a      	cmp	r2, r3
 8002860:	d1ee      	bne.n	8002840 <UART_SetConfig+0xd8>
        pclk = HAL_RCC_GetPCLK1Freq();
 8002862:	f7ff fcd7 	bl	8002214 <HAL_RCC_GetPCLK1Freq>
        pclk = HAL_RCC_GetSysClockFreq();
 8002866:	1e02      	subs	r2, r0, #0
    if (pclk != 0U)
 8002868:	d1be      	bne.n	80027e8 <UART_SetConfig+0x80>
        pclk = (uint32_t) HSI_VALUE;
 800286a:	2000      	movs	r0, #0
  huart->RxISR = NULL;
 800286c:	2300      	movs	r3, #0
 800286e:	66a3      	str	r3, [r4, #104]	@ 0x68
  huart->TxISR = NULL;
 8002870:	66e3      	str	r3, [r4, #108]	@ 0x6c
}
 8002872:	bd70      	pop	{r4, r5, r6, pc}
 8002874:	efff69f3 	.word	0xefff69f3
 8002878:	ffffcfff 	.word	0xffffcfff
 800287c:	fffff4ff 	.word	0xfffff4ff
 8002880:	40013800 	.word	0x40013800
 8002884:	40021000 	.word	0x40021000
 8002888:	08003faa 	.word	0x08003faa
 800288c:	bfffbc00 	.word	0xbfffbc00
 8002890:	007a1200 	.word	0x007a1200
 8002894:	0000ffef 	.word	0x0000ffef

08002898 <UART_AdvFeatureConfig>:
  if (HAL_IS_BIT_SET(huart->AdvancedInit.AdvFeatureInit, UART_ADVFEATURE_SWAP_INIT))
 8002898:	6a43      	ldr	r3, [r0, #36]	@ 0x24
{
 800289a:	b530      	push	{r4, r5, lr}
  if (HAL_IS_BIT_SET(huart->AdvancedInit.AdvFeatureInit, UART_ADVFEATURE_SWAP_INIT))
 800289c:	071a      	lsls	r2, r3, #28
 800289e:	d506      	bpl.n	80028ae <UART_AdvFeatureConfig+0x16>
    MODIFY_REG(huart->Instance->CR2, USART_CR2_SWAP, huart->AdvancedInit.Swap);
 80028a0:	6801      	ldr	r1, [r0, #0]
 80028a2:	4c28      	ldr	r4, [pc, #160]	@ (8002944 <UART_AdvFeatureConfig+0xac>)
 80028a4:	684a      	ldr	r2, [r1, #4]
 80028a6:	4022      	ands	r2, r4
 80028a8:	6b44      	ldr	r4, [r0, #52]	@ 0x34
 80028aa:	4322      	orrs	r2, r4
 80028ac:	604a      	str	r2, [r1, #4]
  if (HAL_IS_BIT_SET(huart->AdvancedInit.AdvFeatureInit, UART_ADVFEATURE_TXINVERT_INIT))
 80028ae:	07da      	lsls	r2, r3, #31
 80028b0:	d506      	bpl.n	80028c0 <UART_AdvFeatureConfig+0x28>
    MODIFY_REG(huart->Instance->CR2, USART_CR2_TXINV, huart->AdvancedInit.TxPinLevelInvert);
 80028b2:	6801      	ldr	r1, [r0, #0]
 80028b4:	4c24      	ldr	r4, [pc, #144]	@ (8002948 <UART_AdvFeatureConfig+0xb0>)
 80028b6:	684a      	ldr	r2, [r1, #4]
 80028b8:	4022      	ands	r2, r4
 80028ba:	6a84      	ldr	r4, [r0, #40]	@ 0x28
 80028bc:	4322      	orrs	r2, r4
 80028be:	604a      	str	r2, [r1, #4]
  if (HAL_IS_BIT_SET(huart->AdvancedInit.AdvFeatureInit, UART_ADVFEATURE_RXINVERT_INIT))
 80028c0:	079a      	lsls	r2, r3, #30
 80028c2:	d506      	bpl.n	80028d2 <UART_AdvFeatureConfig+0x3a>
    MODIFY_REG(huart->Instance->CR2, USART_CR2_RXINV, huart->AdvancedInit.RxPinLevelInvert);
 80028c4:	6801      	ldr	r1, [r0, #0]
 80028c6:	4c21      	ldr	r4, [pc, #132]	@ (800294c <UART_AdvFeatureConfig+0xb4>)
 80028c8:	684a      	ldr	r2, [r1, #4]
 80028ca:	4022      	ands	r2, r4
 80028cc:	6ac4      	ldr	r4, [r0, #44]	@ 0x2c
 80028ce:	4322      	orrs	r2, r4
 80028d0:	604a      	str	r2, [r1, #4]
  if (HAL_IS_BIT_SET(huart->AdvancedInit.AdvFeatureInit, UART_ADVFEATURE_DATAINVERT_INIT))
 80028d2:	075a      	lsls	r2, r3, #29
 80028d4:	d506      	bpl.n	80028e4 <UART_AdvFeatureConfig+0x4c>
    MODIFY_REG(huart->Instance->CR2, USART_CR2_DATAINV, huart->AdvancedInit.DataInvert);
 80028d6:	6801      	ldr	r1, [r0, #0]
 80028d8:	4c1d      	ldr	r4, [pc, #116]	@ (8002950 <UART_AdvFeatureConfig+0xb8>)
 80028da:	684a      	ldr	r2, [r1, #4]
 80028dc:	4022      	ands	r2, r4
 80028de:	6b04      	ldr	r4, [r0, #48]	@ 0x30
 80028e0:	4322      	orrs	r2, r4
 80028e2:	604a      	str	r2, [r1, #4]
  if (HAL_IS_BIT_SET(huart->AdvancedInit.AdvFeatureInit, UART_ADVFEATURE_RXOVERRUNDISABLE_INIT))
 80028e4:	06da      	lsls	r2, r3, #27
 80028e6:	d506      	bpl.n	80028f6 <UART_AdvFeatureConfig+0x5e>
    MODIFY_REG(huart->Instance->CR3, USART_CR3_OVRDIS, huart->AdvancedInit.OverrunDisable);
 80028e8:	6801      	ldr	r1, [r0, #0]
 80028ea:	4c1a      	ldr	r4, [pc, #104]	@ (8002954 <UART_AdvFeatureConfig+0xbc>)
 80028ec:	688a      	ldr	r2, [r1, #8]
 80028ee:	4022      	ands	r2, r4
 80028f0:	6b84      	ldr	r4, [r0, #56]	@ 0x38
 80028f2:	4322      	orrs	r2, r4
 80028f4:	608a      	str	r2, [r1, #8]
  if (HAL_IS_BIT_SET(huart->AdvancedInit.AdvFeatureInit, UART_ADVFEATURE_DMADISABLEONERROR_INIT))
 80028f6:	069a      	lsls	r2, r3, #26
 80028f8:	d506      	bpl.n	8002908 <UART_AdvFeatureConfig+0x70>
    MODIFY_REG(huart->Instance->CR3, USART_CR3_DDRE, huart->AdvancedInit.DMADisableonRxError);
 80028fa:	6801      	ldr	r1, [r0, #0]
 80028fc:	4c16      	ldr	r4, [pc, #88]	@ (8002958 <UART_AdvFeatureConfig+0xc0>)
 80028fe:	688a      	ldr	r2, [r1, #8]
 8002900:	4022      	ands	r2, r4
 8002902:	6bc4      	ldr	r4, [r0, #60]	@ 0x3c
 8002904:	4322      	orrs	r2, r4
 8002906:	608a      	str	r2, [r1, #8]
  if (HAL_IS_BIT_SET(huart->AdvancedInit.AdvFeatureInit, UART_ADVFEATURE_AUTOBAUDRATE_INIT))
 8002908:	065a      	lsls	r2, r3, #25
 800290a:	d510      	bpl.n	800292e <UART_AdvFeatureConfig+0x96>
    MODIFY_REG(huart->Instance->CR2, USART_CR2_ABREN, huart->AdvancedInit.AutoBaudRateEnable);
 800290c:	6801      	ldr	r1, [r0, #0]
 800290e:	4d13      	ldr	r5, [pc, #76]	@ (800295c <UART_AdvFeatureConfig+0xc4>)
 8002910:	684a      	ldr	r2, [r1, #4]
 8002912:	6c04      	ldr	r4, [r0, #64]	@ 0x40
 8002914:	402a      	ands	r2, r5
 8002916:	4322      	orrs	r2, r4
 8002918:	604a      	str	r2, [r1, #4]
    if (huart->AdvancedInit.AutoBaudRateEnable == UART_ADVFEATURE_AUTOBAUDRATE_ENABLE)
 800291a:	2280      	movs	r2, #128	@ 0x80
 800291c:	0352      	lsls	r2, r2, #13
 800291e:	4294      	cmp	r4, r2
 8002920:	d105      	bne.n	800292e <UART_AdvFeatureConfig+0x96>
      MODIFY_REG(huart->Instance->CR2, USART_CR2_ABRMODE, huart->AdvancedInit.AutoBaudRateMode);
 8002922:	684a      	ldr	r2, [r1, #4]
 8002924:	4c0e      	ldr	r4, [pc, #56]	@ (8002960 <UART_AdvFeatureConfig+0xc8>)
 8002926:	4022      	ands	r2, r4
 8002928:	6c44      	ldr	r4, [r0, #68]	@ 0x44
 800292a:	4322      	orrs	r2, r4
 800292c:	604a      	str	r2, [r1, #4]
  if (HAL_IS_BIT_SET(huart->AdvancedInit.AdvFeatureInit, UART_ADVFEATURE_MSBFIRST_INIT))
 800292e:	061b      	lsls	r3, r3, #24
 8002930:	d506      	bpl.n	8002940 <UART_AdvFeatureConfig+0xa8>
    MODIFY_REG(huart->Instance->CR2, USART_CR2_MSBFIRST, huart->AdvancedInit.MSBFirst);
 8002932:	6802      	ldr	r2, [r0, #0]
 8002934:	490b      	ldr	r1, [pc, #44]	@ (8002964 <UART_AdvFeatureConfig+0xcc>)
 8002936:	6853      	ldr	r3, [r2, #4]
 8002938:	400b      	ands	r3, r1
 800293a:	6c81      	ldr	r1, [r0, #72]	@ 0x48
 800293c:	430b      	orrs	r3, r1
 800293e:	6053      	str	r3, [r2, #4]
}
 8002940:	bd30      	pop	{r4, r5, pc}
 8002942:	46c0      	nop			@ (mov r8, r8)
 8002944:	ffff7fff 	.word	0xffff7fff
 8002948:	fffdffff 	.word	0xfffdffff
 800294c:	fffeffff 	.word	0xfffeffff
 8002950:	fffbffff 	.word	0xfffbffff
 8002954:	ffffefff 	.word	0xffffefff
 8002958:	ffffdfff 	.word	0xffffdfff
 800295c:	ffefffff 	.word	0xffefffff
 8002960:	ff9fffff 	.word	0xff9fffff
 8002964:	fff7ffff 	.word	0xfff7ffff

08002968 <UART_WaitOnFlagUntilTimeout>:
{
 8002968:	b5f7      	push	{r0, r1, r2, r4, r5, r6, r7, lr}
 800296a:	0004      	movs	r4, r0
 800296c:	000d      	movs	r5, r1
 800296e:	0017      	movs	r7, r2
 8002970:	9300      	str	r3, [sp, #0]
  while ((__HAL_UART_GET_FLAG(huart, Flag) ? SET : RESET) == Status)
 8002972:	6822      	ldr	r2, [r4, #0]
 8002974:	69d3      	ldr	r3, [r2, #28]
 8002976:	402b      	ands	r3, r5
 8002978:	1b5b      	subs	r3, r3, r5
 800297a:	4259      	negs	r1, r3
 800297c:	414b      	adcs	r3, r1
 800297e:	42bb      	cmp	r3, r7
 8002980:	d001      	beq.n	8002986 <UART_WaitOnFlagUntilTimeout+0x1e>
  return HAL_OK;
 8002982:	2000      	movs	r0, #0
 8002984:	e025      	b.n	80029d2 <UART_WaitOnFlagUntilTimeout+0x6a>
    if (Timeout != HAL_MAX_DELAY)
 8002986:	9b08      	ldr	r3, [sp, #32]
 8002988:	3301      	adds	r3, #1
 800298a:	d0f3      	beq.n	8002974 <UART_WaitOnFlagUntilTimeout+0xc>
      if (((HAL_GetTick() - Tickstart) > Timeout) || (Timeout == 0U))
 800298c:	f7fe fb80 	bl	8001090 <HAL_GetTick>
 8002990:	9b00      	ldr	r3, [sp, #0]
 8002992:	1ac0      	subs	r0, r0, r3
 8002994:	9b08      	ldr	r3, [sp, #32]
 8002996:	4298      	cmp	r0, r3
 8002998:	d82c      	bhi.n	80029f4 <UART_WaitOnFlagUntilTimeout+0x8c>
 800299a:	2b00      	cmp	r3, #0
 800299c:	d02a      	beq.n	80029f4 <UART_WaitOnFlagUntilTimeout+0x8c>
      if ((READ_BIT(huart->Instance->CR1, USART_CR1_RE) != 0U) && (Flag != UART_FLAG_TXE) && (Flag != UART_FLAG_TC))
 800299e:	6823      	ldr	r3, [r4, #0]
 80029a0:	681a      	ldr	r2, [r3, #0]
 80029a2:	0752      	lsls	r2, r2, #29
 80029a4:	d5e5      	bpl.n	8002972 <UART_WaitOnFlagUntilTimeout+0xa>
 80029a6:	002a      	movs	r2, r5
 80029a8:	2140      	movs	r1, #64	@ 0x40
 80029aa:	3a40      	subs	r2, #64	@ 0x40
 80029ac:	438a      	bics	r2, r1
 80029ae:	d0e0      	beq.n	8002972 <UART_WaitOnFlagUntilTimeout+0xa>
        if (__HAL_UART_GET_FLAG(huart, UART_FLAG_ORE) == SET)
 80029b0:	69da      	ldr	r2, [r3, #28]
 80029b2:	2608      	movs	r6, #8
 80029b4:	0011      	movs	r1, r2
 80029b6:	4031      	ands	r1, r6
 80029b8:	9101      	str	r1, [sp, #4]
 80029ba:	4232      	tst	r2, r6
 80029bc:	d00a      	beq.n	80029d4 <UART_WaitOnFlagUntilTimeout+0x6c>
          UART_EndRxTransfer(huart);
 80029be:	0020      	movs	r0, r4
          __HAL_UART_CLEAR_FLAG(huart, UART_CLEAR_OREF);
 80029c0:	621e      	str	r6, [r3, #32]
          UART_EndRxTransfer(huart);
 80029c2:	f7ff fea3 	bl	800270c <UART_EndRxTransfer>
          huart->ErrorCode = HAL_UART_ERROR_ORE;
 80029c6:	19a3      	adds	r3, r4, r6
 80029c8:	67de      	str	r6, [r3, #124]	@ 0x7c
          __HAL_UNLOCK(huart);
 80029ca:	2300      	movs	r3, #0
          return HAL_ERROR;
 80029cc:	2001      	movs	r0, #1
          __HAL_UNLOCK(huart);
 80029ce:	3478      	adds	r4, #120	@ 0x78
 80029d0:	7023      	strb	r3, [r4, #0]
}
 80029d2:	bdfe      	pop	{r1, r2, r3, r4, r5, r6, r7, pc}
        if (__HAL_UART_GET_FLAG(huart, UART_FLAG_RTOF) == SET)
 80029d4:	2280      	movs	r2, #128	@ 0x80
 80029d6:	69d9      	ldr	r1, [r3, #28]
 80029d8:	0112      	lsls	r2, r2, #4
 80029da:	4211      	tst	r1, r2
 80029dc:	d0c9      	beq.n	8002972 <UART_WaitOnFlagUntilTimeout+0xa>
          __HAL_UART_CLEAR_FLAG(huart, UART_CLEAR_RTOF);
 80029de:	621a      	str	r2, [r3, #32]
          UART_EndRxTransfer(huart);
 80029e0:	0020      	movs	r0, r4
 80029e2:	f7ff fe93 	bl	800270c <UART_EndRxTransfer>
          huart->ErrorCode = HAL_UART_ERROR_RTO;
 80029e6:	0023      	movs	r3, r4
 80029e8:	2220      	movs	r2, #32
 80029ea:	3308      	adds	r3, #8
 80029ec:	67da      	str	r2, [r3, #124]	@ 0x7c
          __HAL_UNLOCK(huart);
 80029ee:	9b01      	ldr	r3, [sp, #4]
 80029f0:	3478      	adds	r4, #120	@ 0x78
 80029f2:	7023      	strb	r3, [r4, #0]
        return HAL_TIMEOUT;
 80029f4:	2003      	movs	r0, #3
 80029f6:	e7ec      	b.n	80029d2 <UART_WaitOnFlagUntilTimeout+0x6a>

080029f8 <HAL_UART_Transmit>:
{
 80029f8:	b5f0      	push	{r4, r5, r6, r7, lr}
 80029fa:	b087      	sub	sp, #28
 80029fc:	9305      	str	r3, [sp, #20]
  if (huart->gState == HAL_UART_STATE_READY)
 80029fe:	6fc3      	ldr	r3, [r0, #124]	@ 0x7c
{
 8002a00:	0004      	movs	r4, r0
 8002a02:	000d      	movs	r5, r1
 8002a04:	0017      	movs	r7, r2
    return HAL_BUSY;
 8002a06:	2002      	movs	r0, #2
  if (huart->gState == HAL_UART_STATE_READY)
 8002a08:	2b20      	cmp	r3, #32
 8002a0a:	d138      	bne.n	8002a7e <HAL_UART_Transmit+0x86>
      return  HAL_ERROR;
 8002a0c:	3801      	subs	r0, #1
    if ((pData == NULL) || (Size == 0U))
 8002a0e:	2900      	cmp	r1, #0
 8002a10:	d035      	beq.n	8002a7e <HAL_UART_Transmit+0x86>
 8002a12:	2a00      	cmp	r2, #0
 8002a14:	d033      	beq.n	8002a7e <HAL_UART_Transmit+0x86>
    if ((huart->Init.WordLength == UART_WORDLENGTH_9B) && (huart->Init.Parity == UART_PARITY_NONE))
 8002a16:	2380      	movs	r3, #128	@ 0x80
 8002a18:	68a2      	ldr	r2, [r4, #8]
 8002a1a:	015b      	lsls	r3, r3, #5
 8002a1c:	429a      	cmp	r2, r3
 8002a1e:	d104      	bne.n	8002a2a <HAL_UART_Transmit+0x32>
 8002a20:	6923      	ldr	r3, [r4, #16]
 8002a22:	2b00      	cmp	r3, #0
 8002a24:	d101      	bne.n	8002a2a <HAL_UART_Transmit+0x32>
      if ((((uint32_t)pData) & 1U) != 0U)
 8002a26:	4201      	tst	r1, r0
 8002a28:	d129      	bne.n	8002a7e <HAL_UART_Transmit+0x86>
    huart->ErrorCode = HAL_UART_ERROR_NONE;
 8002a2a:	0023      	movs	r3, r4
 8002a2c:	2600      	movs	r6, #0
 8002a2e:	3308      	adds	r3, #8
 8002a30:	67de      	str	r6, [r3, #124]	@ 0x7c
    huart->gState = HAL_UART_STATE_BUSY_TX;
 8002a32:	2321      	movs	r3, #33	@ 0x21
 8002a34:	67e3      	str	r3, [r4, #124]	@ 0x7c
    tickstart = HAL_GetTick();
 8002a36:	f7fe fb2b 	bl	8001090 <HAL_GetTick>
    huart->TxXferSize  = Size;
 8002a3a:	0023      	movs	r3, r4
 8002a3c:	3350      	adds	r3, #80	@ 0x50
 8002a3e:	801f      	strh	r7, [r3, #0]
    huart->TxXferCount = Size;
 8002a40:	3302      	adds	r3, #2
 8002a42:	9303      	str	r3, [sp, #12]
 8002a44:	801f      	strh	r7, [r3, #0]
    if ((huart->Init.WordLength == UART_WORDLENGTH_9B) && (huart->Init.Parity == UART_PARITY_NONE))
 8002a46:	2380      	movs	r3, #128	@ 0x80
 8002a48:	68a2      	ldr	r2, [r4, #8]
    tickstart = HAL_GetTick();
 8002a4a:	9004      	str	r0, [sp, #16]
    if ((huart->Init.WordLength == UART_WORDLENGTH_9B) && (huart->Init.Parity == UART_PARITY_NONE))
 8002a4c:	015b      	lsls	r3, r3, #5
 8002a4e:	429a      	cmp	r2, r3
 8002a50:	d104      	bne.n	8002a5c <HAL_UART_Transmit+0x64>
 8002a52:	6923      	ldr	r3, [r4, #16]
 8002a54:	42b3      	cmp	r3, r6
 8002a56:	d101      	bne.n	8002a5c <HAL_UART_Transmit+0x64>
      pdata16bits = (const uint16_t *) pData;
 8002a58:	002e      	movs	r6, r5
      pdata8bits  = NULL;
 8002a5a:	001d      	movs	r5, r3
    while (huart->TxXferCount > 0U)
 8002a5c:	0023      	movs	r3, r4
 8002a5e:	3352      	adds	r3, #82	@ 0x52
 8002a60:	881b      	ldrh	r3, [r3, #0]
 8002a62:	b29a      	uxth	r2, r3
 8002a64:	2b00      	cmp	r3, #0
 8002a66:	d10c      	bne.n	8002a82 <HAL_UART_Transmit+0x8a>
    if (UART_WaitOnFlagUntilTimeout(huart, UART_FLAG_TC, RESET, tickstart, Timeout) != HAL_OK)
 8002a68:	9b05      	ldr	r3, [sp, #20]
 8002a6a:	2140      	movs	r1, #64	@ 0x40
 8002a6c:	9300      	str	r3, [sp, #0]
 8002a6e:	0020      	movs	r0, r4
 8002a70:	9b04      	ldr	r3, [sp, #16]
 8002a72:	f7ff ff79 	bl	8002968 <UART_WaitOnFlagUntilTimeout>
 8002a76:	2320      	movs	r3, #32
      huart->gState = HAL_UART_STATE_READY;
 8002a78:	67e3      	str	r3, [r4, #124]	@ 0x7c
    if (UART_WaitOnFlagUntilTimeout(huart, UART_FLAG_TC, RESET, tickstart, Timeout) != HAL_OK)
 8002a7a:	2800      	cmp	r0, #0
 8002a7c:	d10d      	bne.n	8002a9a <HAL_UART_Transmit+0xa2>
}
 8002a7e:	b007      	add	sp, #28
 8002a80:	bdf0      	pop	{r4, r5, r6, r7, pc}
      if (UART_WaitOnFlagUntilTimeout(huart, UART_FLAG_TXE, RESET, tickstart, Timeout) != HAL_OK)
 8002a82:	9b05      	ldr	r3, [sp, #20]
 8002a84:	2200      	movs	r2, #0
 8002a86:	9300      	str	r3, [sp, #0]
 8002a88:	2180      	movs	r1, #128	@ 0x80
 8002a8a:	0020      	movs	r0, r4
 8002a8c:	9b04      	ldr	r3, [sp, #16]
 8002a8e:	f7ff ff6b 	bl	8002968 <UART_WaitOnFlagUntilTimeout>
 8002a92:	2800      	cmp	r0, #0
 8002a94:	d003      	beq.n	8002a9e <HAL_UART_Transmit+0xa6>
        huart->gState = HAL_UART_STATE_READY;
 8002a96:	2320      	movs	r3, #32
 8002a98:	67e3      	str	r3, [r4, #124]	@ 0x7c
        return HAL_TIMEOUT;
 8002a9a:	2003      	movs	r0, #3
 8002a9c:	e7ef      	b.n	8002a7e <HAL_UART_Transmit+0x86>
        huart->Instance->TDR = (uint16_t)(*pdata16bits & 0x01FFU);
 8002a9e:	6822      	ldr	r2, [r4, #0]
      if (pdata8bits == NULL)
 8002aa0:	2d00      	cmp	r5, #0
 8002aa2:	d10b      	bne.n	8002abc <HAL_UART_Transmit+0xc4>
        huart->Instance->TDR = (uint16_t)(*pdata16bits & 0x01FFU);
 8002aa4:	8833      	ldrh	r3, [r6, #0]
        pdata16bits++;
 8002aa6:	3602      	adds	r6, #2
        huart->Instance->TDR = (uint16_t)(*pdata16bits & 0x01FFU);
 8002aa8:	05db      	lsls	r3, r3, #23
 8002aaa:	0ddb      	lsrs	r3, r3, #23
 8002aac:	8513      	strh	r3, [r2, #40]	@ 0x28
      huart->TxXferCount--;
 8002aae:	9b03      	ldr	r3, [sp, #12]
 8002ab0:	9a03      	ldr	r2, [sp, #12]
 8002ab2:	881b      	ldrh	r3, [r3, #0]
 8002ab4:	3b01      	subs	r3, #1
 8002ab6:	b29b      	uxth	r3, r3
 8002ab8:	8013      	strh	r3, [r2, #0]
 8002aba:	e7cf      	b.n	8002a5c <HAL_UART_Transmit+0x64>
        huart->Instance->TDR = (uint8_t)(*pdata8bits & 0xFFU);
 8002abc:	782b      	ldrb	r3, [r5, #0]
        pdata8bits++;
 8002abe:	3501      	adds	r5, #1
        huart->Instance->TDR = (uint8_t)(*pdata8bits & 0xFFU);
 8002ac0:	8513      	strh	r3, [r2, #40]	@ 0x28
        pdata8bits++;
 8002ac2:	e7f4      	b.n	8002aae <HAL_UART_Transmit+0xb6>

08002ac4 <UART_CheckIdleState>:
  huart->ErrorCode = HAL_UART_ERROR_NONE;
 8002ac4:	0003      	movs	r3, r0
{
 8002ac6:	b573      	push	{r0, r1, r4, r5, r6, lr}
  huart->ErrorCode = HAL_UART_ERROR_NONE;
 8002ac8:	2500      	movs	r5, #0
{
 8002aca:	0004      	movs	r4, r0
  huart->ErrorCode = HAL_UART_ERROR_NONE;
 8002acc:	3308      	adds	r3, #8
 8002ace:	67dd      	str	r5, [r3, #124]	@ 0x7c
  tickstart = HAL_GetTick();
 8002ad0:	f7fe fade 	bl	8001090 <HAL_GetTick>
  if ((huart->Instance->CR1 & USART_CR1_TE) == USART_CR1_TE)
 8002ad4:	6823      	ldr	r3, [r4, #0]
  tickstart = HAL_GetTick();
 8002ad6:	0006      	movs	r6, r0
  if ((huart->Instance->CR1 & USART_CR1_TE) == USART_CR1_TE)
 8002ad8:	681b      	ldr	r3, [r3, #0]
 8002ada:	071b      	lsls	r3, r3, #28
 8002adc:	d51d      	bpl.n	8002b1a <UART_CheckIdleState+0x56>
    if (UART_WaitOnFlagUntilTimeout(huart, USART_ISR_TEACK, RESET, tickstart, HAL_UART_TIMEOUT_VALUE) != HAL_OK)
 8002ade:	2180      	movs	r1, #128	@ 0x80
 8002ae0:	4b26      	ldr	r3, [pc, #152]	@ (8002b7c <UART_CheckIdleState+0xb8>)
 8002ae2:	002a      	movs	r2, r5
 8002ae4:	9300      	str	r3, [sp, #0]
 8002ae6:	0389      	lsls	r1, r1, #14
 8002ae8:	0003      	movs	r3, r0
 8002aea:	0020      	movs	r0, r4
 8002aec:	f7ff ff3c 	bl	8002968 <UART_WaitOnFlagUntilTimeout>
 8002af0:	42a8      	cmp	r0, r5
 8002af2:	d012      	beq.n	8002b1a <UART_CheckIdleState+0x56>
  __ASM volatile ("MRS %0, primask" : "=r" (result) :: "memory");
 8002af4:	f3ef 8110 	mrs	r1, PRIMASK
  __ASM volatile ("MSR primask, %0" : : "r" (priMask) : "memory");
 8002af8:	2301      	movs	r3, #1
 8002afa:	f383 8810 	msr	PRIMASK, r3
      ATOMIC_CLEAR_BIT(huart->Instance->CR1, (USART_CR1_TXEIE));
 8002afe:	2080      	movs	r0, #128	@ 0x80
 8002b00:	6822      	ldr	r2, [r4, #0]
 8002b02:	6813      	ldr	r3, [r2, #0]
 8002b04:	4383      	bics	r3, r0
 8002b06:	6013      	str	r3, [r2, #0]
 8002b08:	f381 8810 	msr	PRIMASK, r1
      huart->gState = HAL_UART_STATE_READY;
 8002b0c:	2320      	movs	r3, #32
 8002b0e:	67e3      	str	r3, [r4, #124]	@ 0x7c
      return HAL_TIMEOUT;
 8002b10:	2003      	movs	r0, #3
      __HAL_UNLOCK(huart);
 8002b12:	2300      	movs	r3, #0
 8002b14:	3478      	adds	r4, #120	@ 0x78
 8002b16:	7023      	strb	r3, [r4, #0]
}
 8002b18:	bd76      	pop	{r1, r2, r4, r5, r6, pc}
  if ((huart->Instance->CR1 & USART_CR1_RE) == USART_CR1_RE)
 8002b1a:	0025      	movs	r5, r4
 8002b1c:	cd08      	ldmia	r5!, {r3}
 8002b1e:	681b      	ldr	r3, [r3, #0]
 8002b20:	075b      	lsls	r3, r3, #29
 8002b22:	d523      	bpl.n	8002b6c <UART_CheckIdleState+0xa8>
    if (UART_WaitOnFlagUntilTimeout(huart, USART_ISR_REACK, RESET, tickstart, HAL_UART_TIMEOUT_VALUE) != HAL_OK)
 8002b24:	2180      	movs	r1, #128	@ 0x80
 8002b26:	4b15      	ldr	r3, [pc, #84]	@ (8002b7c <UART_CheckIdleState+0xb8>)
 8002b28:	2200      	movs	r2, #0
 8002b2a:	9300      	str	r3, [sp, #0]
 8002b2c:	0020      	movs	r0, r4
 8002b2e:	0033      	movs	r3, r6
 8002b30:	03c9      	lsls	r1, r1, #15
 8002b32:	f7ff ff19 	bl	8002968 <UART_WaitOnFlagUntilTimeout>
 8002b36:	2800      	cmp	r0, #0
 8002b38:	d018      	beq.n	8002b6c <UART_CheckIdleState+0xa8>
  __ASM volatile ("MRS %0, primask" : "=r" (result) :: "memory");
 8002b3a:	f3ef 8010 	mrs	r0, PRIMASK
  __ASM volatile ("MSR primask, %0" : : "r" (priMask) : "memory");
 8002b3e:	2201      	movs	r2, #1
 8002b40:	f382 8810 	msr	PRIMASK, r2
      ATOMIC_CLEAR_BIT(huart->Instance->CR1, (USART_CR1_RXNEIE | USART_CR1_PEIE));
 8002b44:	6821      	ldr	r1, [r4, #0]
 8002b46:	4e0e      	ldr	r6, [pc, #56]	@ (8002b80 <UART_CheckIdleState+0xbc>)
 8002b48:	680b      	ldr	r3, [r1, #0]
 8002b4a:	4033      	ands	r3, r6
 8002b4c:	600b      	str	r3, [r1, #0]
 8002b4e:	f380 8810 	msr	PRIMASK, r0
  __ASM volatile ("MRS %0, primask" : "=r" (result) :: "memory");
 8002b52:	f3ef 8010 	mrs	r0, PRIMASK
  __ASM volatile ("MSR primask, %0" : : "r" (priMask) : "memory");
 8002b56:	f382 8810 	msr	PRIMASK, r2
      ATOMIC_CLEAR_BIT(huart->Instance->CR3, USART_CR3_EIE);
 8002b5a:	6821      	ldr	r1, [r4, #0]
 8002b5c:	688b      	ldr	r3, [r1, #8]
 8002b5e:	4393      	bics	r3, r2
 8002b60:	608b      	str	r3, [r1, #8]
 8002b62:	f380 8810 	msr	PRIMASK, r0
      huart->RxState = HAL_UART_STATE_READY;
 8002b66:	2320      	movs	r3, #32
 8002b68:	67eb      	str	r3, [r5, #124]	@ 0x7c
      return HAL_TIMEOUT;
 8002b6a:	e7d1      	b.n	8002b10 <UART_CheckIdleState+0x4c>
  huart->gState = HAL_UART_STATE_READY;
 8002b6c:	2320      	movs	r3, #32
  huart->ReceptionType = HAL_UART_RECEPTION_STANDARD;
 8002b6e:	2000      	movs	r0, #0
  huart->gState = HAL_UART_STATE_READY;
 8002b70:	67e3      	str	r3, [r4, #124]	@ 0x7c
  huart->RxState = HAL_UART_STATE_READY;
 8002b72:	67eb      	str	r3, [r5, #124]	@ 0x7c
  huart->ReceptionType = HAL_UART_RECEPTION_STANDARD;
 8002b74:	6620      	str	r0, [r4, #96]	@ 0x60
  huart->RxEventType = HAL_UART_RXEVENT_TC;
 8002b76:	6660      	str	r0, [r4, #100]	@ 0x64
  return HAL_OK;
 8002b78:	e7cb      	b.n	8002b12 <UART_CheckIdleState+0x4e>
 8002b7a:	46c0      	nop			@ (mov r8, r8)
 8002b7c:	01ffffff 	.word	0x01ffffff
 8002b80:	fffffedf 	.word	0xfffffedf

08002b84 <HAL_UART_Init>:
{
 8002b84:	b510      	push	{r4, lr}
 8002b86:	1e04      	subs	r4, r0, #0
  if (huart == NULL)
 8002b88:	d101      	bne.n	8002b8e <HAL_UART_Init+0xa>
    return HAL_ERROR;
 8002b8a:	2001      	movs	r0, #1
}
 8002b8c:	bd10      	pop	{r4, pc}
  if (huart->gState == HAL_UART_STATE_RESET)
 8002b8e:	6fc3      	ldr	r3, [r0, #124]	@ 0x7c
 8002b90:	2b00      	cmp	r3, #0
 8002b92:	d104      	bne.n	8002b9e <HAL_UART_Init+0x1a>
    huart->Lock = HAL_UNLOCKED;
 8002b94:	0002      	movs	r2, r0
 8002b96:	3278      	adds	r2, #120	@ 0x78
 8002b98:	7013      	strb	r3, [r2, #0]
    HAL_UART_MspInit(huart);
 8002b9a:	f7fe f9c7 	bl	8000f2c <HAL_UART_MspInit>
  huart->gState = HAL_UART_STATE_BUSY;
 8002b9e:	2324      	movs	r3, #36	@ 0x24
  __HAL_UART_DISABLE(huart);
 8002ba0:	2101      	movs	r1, #1
 8002ba2:	6822      	ldr	r2, [r4, #0]
  huart->gState = HAL_UART_STATE_BUSY;
 8002ba4:	67e3      	str	r3, [r4, #124]	@ 0x7c
  __HAL_UART_DISABLE(huart);
 8002ba6:	6813      	ldr	r3, [r2, #0]
 8002ba8:	438b      	bics	r3, r1
 8002baa:	6013      	str	r3, [r2, #0]
  if (huart->AdvancedInit.AdvFeatureInit != UART_ADVFEATURE_NO_INIT)
 8002bac:	6a63      	ldr	r3, [r4, #36]	@ 0x24
 8002bae:	2b00      	cmp	r3, #0
 8002bb0:	d002      	beq.n	8002bb8 <HAL_UART_Init+0x34>
    UART_AdvFeatureConfig(huart);
 8002bb2:	0020      	movs	r0, r4
 8002bb4:	f7ff fe70 	bl	8002898 <UART_AdvFeatureConfig>
  if (UART_SetConfig(huart) == HAL_ERROR)
 8002bb8:	0020      	movs	r0, r4
 8002bba:	f7ff fdd5 	bl	8002768 <UART_SetConfig>
 8002bbe:	2801      	cmp	r0, #1
 8002bc0:	d0e3      	beq.n	8002b8a <HAL_UART_Init+0x6>
  CLEAR_BIT(huart->Instance->CR2, (USART_CR2_LINEN | USART_CR2_CLKEN));
 8002bc2:	6823      	ldr	r3, [r4, #0]
 8002bc4:	4907      	ldr	r1, [pc, #28]	@ (8002be4 <HAL_UART_Init+0x60>)
 8002bc6:	685a      	ldr	r2, [r3, #4]
  return (UART_CheckIdleState(huart));
 8002bc8:	0020      	movs	r0, r4
  CLEAR_BIT(huart->Instance->CR2, (USART_CR2_LINEN | USART_CR2_CLKEN));
 8002bca:	400a      	ands	r2, r1
  CLEAR_BIT(huart->Instance->CR3, (USART_CR3_SCEN | USART_CR3_HDSEL | USART_CR3_IREN));
 8002bcc:	212a      	movs	r1, #42	@ 0x2a
  CLEAR_BIT(huart->Instance->CR2, (USART_CR2_LINEN | USART_CR2_CLKEN));
 8002bce:	605a      	str	r2, [r3, #4]
  CLEAR_BIT(huart->Instance->CR3, (USART_CR3_SCEN | USART_CR3_HDSEL | USART_CR3_IREN));
 8002bd0:	689a      	ldr	r2, [r3, #8]
 8002bd2:	438a      	bics	r2, r1
 8002bd4:	609a      	str	r2, [r3, #8]
  __HAL_UART_ENABLE(huart);
 8002bd6:	2201      	movs	r2, #1
 8002bd8:	6819      	ldr	r1, [r3, #0]
 8002bda:	430a      	orrs	r2, r1
 8002bdc:	601a      	str	r2, [r3, #0]
  return (UART_CheckIdleState(huart));
 8002bde:	f7ff ff71 	bl	8002ac4 <UART_CheckIdleState>
 8002be2:	e7d3      	b.n	8002b8c <HAL_UART_Init+0x8>
 8002be4:	ffffb7ff 	.word	0xffffb7ff

08002be8 <Copy_Data_to_CAN_CLUSTER_buffer>:

extern CAN_HandleTypeDef  hcan1;


void Copy_Data_to_CAN_CLUSTER_buffer(CAN_RX_FRAME_t  _RX_Frame)
{
 8002be8:	b530      	push	{r4, r5, lr}
 8002bea:	b085      	sub	sp, #20
 8002bec:	9202      	str	r2, [sp, #8]
  uint8_t n=0;
  if(can_buffer.status==CAN_RX_EMPTY)
 8002bee:	4a0f      	ldr	r2, [pc, #60]	@ (8002c2c <Copy_Data_to_CAN_CLUSTER_buffer+0x44>)
{
 8002bf0:	9303      	str	r3, [sp, #12]
  if(can_buffer.status==CAN_RX_EMPTY)
 8002bf2:	7813      	ldrb	r3, [r2, #0]
{
 8002bf4:	9000      	str	r0, [sp, #0]
 8002bf6:	9101      	str	r1, [sp, #4]
  if(can_buffer.status==CAN_RX_EMPTY)
 8002bf8:	2b00      	cmp	r3, #0
 8002bfa:	d003      	beq.n	8002c04 <Copy_Data_to_CAN_CLUSTER_buffer+0x1c>
        if(n<can_buffer.anz_bytes)
          can_buffer.data[n]=_RX_Frame.data[n];
          else can_buffer.data[n]=0x00;
      }
    }
    can_buffer.status=CAN_RX_READY;
 8002bfc:	2301      	movs	r3, #1
 8002bfe:	7013      	strb	r3, [r2, #0]
  }
 8002c00:	b005      	add	sp, #20
 8002c02:	bd30      	pop	{r4, r5, pc}
	can_buffer.can_id=_RX_Frame.can_id;
 8002c04:	9900      	ldr	r1, [sp, #0]
          can_buffer.data[n]=_RX_Frame.data[n];
 8002c06:	4d0a      	ldr	r5, [pc, #40]	@ (8002c30 <Copy_Data_to_CAN_CLUSTER_buffer+0x48>)
	can_buffer.can_id=_RX_Frame.can_id;
 8002c08:	6051      	str	r1, [r2, #4]
    can_buffer.anz_bytes=_RX_Frame.anz_bytes;
 8002c0a:	4669      	mov	r1, sp
 8002c0c:	790c      	ldrb	r4, [r1, #4]
    can_buffer.frame_mode=CAN_STD_DATA;
 8002c0e:	7053      	strb	r3, [r2, #1]
    can_buffer.anz_bytes=_RX_Frame.anz_bytes;
 8002c10:	7214      	strb	r4, [r2, #8]
        if(n<can_buffer.anz_bytes)
 8002c12:	b2d9      	uxtb	r1, r3
 8002c14:	2000      	movs	r0, #0
 8002c16:	428c      	cmp	r4, r1
 8002c18:	d902      	bls.n	8002c20 <Copy_Data_to_CAN_CLUSTER_buffer+0x38>
          can_buffer.data[n]=_RX_Frame.data[n];
 8002c1a:	0019      	movs	r1, r3
 8002c1c:	4469      	add	r1, sp
 8002c1e:	7948      	ldrb	r0, [r1, #5]
 8002c20:	54e8      	strb	r0, [r5, r3]
      for(n=0;n<8;n++)
 8002c22:	3301      	adds	r3, #1
 8002c24:	2b08      	cmp	r3, #8
 8002c26:	d1f4      	bne.n	8002c12 <Copy_Data_to_CAN_CLUSTER_buffer+0x2a>
 8002c28:	e7e8      	b.n	8002bfc <Copy_Data_to_CAN_CLUSTER_buffer+0x14>
 8002c2a:	46c0      	nop			@ (mov r8, r8)
 8002c2c:	200002b8 	.word	0x200002b8
 8002c30:	200002c1 	.word	0x200002c1

08002c34 <CAN_Std_Data_receive>:
{
  CAN_STATUS_t ret_wert=CAN_RX_EMPTY;
  uint8_t n;

  //CAN_CLUSTER
  if (canHandle==CANBUS_CLUSTER)
 8002c34:	4a0d      	ldr	r2, [pc, #52]	@ (8002c6c <CAN_Std_Data_receive+0x38>)
  CAN_STATUS_t ret_wert=CAN_RX_EMPTY;
 8002c36:	2300      	movs	r3, #0
{
 8002c38:	b530      	push	{r4, r5, lr}
  if (canHandle==CANBUS_CLUSTER)
 8002c3a:	4282      	cmp	r2, r0
 8002c3c:	d112      	bne.n	8002c64 <CAN_Std_Data_receive+0x30>
  {

	  if(can_buffer.status==CAN_RX_READY)
 8002c3e:	4a0c      	ldr	r2, [pc, #48]	@ (8002c70 <CAN_Std_Data_receive+0x3c>)
 8002c40:	7813      	ldrb	r3, [r2, #0]
 8002c42:	2b01      	cmp	r3, #1
 8002c44:	d110      	bne.n	8002c68 <CAN_Std_Data_receive+0x34>
	  {
	    rx_frame->can_id=can_buffer.can_id;
 8002c46:	6850      	ldr	r0, [r2, #4]
 8002c48:	4c0a      	ldr	r4, [pc, #40]	@ (8002c74 <CAN_Std_Data_receive+0x40>)
 8002c4a:	6008      	str	r0, [r1, #0]
	    rx_frame->anz_bytes=can_buffer.anz_bytes;
 8002c4c:	7a10      	ldrb	r0, [r2, #8]
 8002c4e:	7108      	strb	r0, [r1, #4]
	    for(n=0;n<8;n++) {
 8002c50:	1d48      	adds	r0, r1, #5
 8002c52:	310d      	adds	r1, #13
	      rx_frame->data[n]=can_buffer.data[n];
 8002c54:	7825      	ldrb	r5, [r4, #0]
	    for(n=0;n<8;n++) {
 8002c56:	3401      	adds	r4, #1
	      rx_frame->data[n]=can_buffer.data[n];
 8002c58:	7005      	strb	r5, [r0, #0]
	    for(n=0;n<8;n++) {
 8002c5a:	3001      	adds	r0, #1
 8002c5c:	4288      	cmp	r0, r1
 8002c5e:	d1f9      	bne.n	8002c54 <CAN_Std_Data_receive+0x20>
	    }

	    ret_wert=CAN_RX_READY;
	    can_buffer.status=CAN_RX_EMPTY;
 8002c60:	2100      	movs	r1, #0
 8002c62:	7011      	strb	r1, [r2, #0]
	  }
  }

  return(ret_wert);
}
 8002c64:	0018      	movs	r0, r3
 8002c66:	bd30      	pop	{r4, r5, pc}
  CAN_STATUS_t ret_wert=CAN_RX_EMPTY;
 8002c68:	2300      	movs	r3, #0
 8002c6a:	e7fb      	b.n	8002c64 <CAN_Std_Data_receive+0x30>
 8002c6c:	2000007c 	.word	0x2000007c
 8002c70:	200002b8 	.word	0x200002b8
 8002c74:	200002c1 	.word	0x200002c1

08002c78 <CAN_Send_Data>:

CANErrorStatus CAN_Send_Data(CAN_HandleTypeDef * canHandle, CAN_TX_FRAME_t tx_frame)
{
 8002c78:	b084      	sub	sp, #16
 8002c7a:	b537      	push	{r0, r1, r2, r4, r5, lr}
 8002c7c:	0005      	movs	r5, r0
 8002c7e:	9107      	str	r1, [sp, #28]
 8002c80:	0008      	movs	r0, r1
 8002c82:	9309      	str	r3, [sp, #36]	@ 0x24
  uint8_t n = 0;
  uint32_t mailBoxNum = 0;


  if(tx_frame.can_id>0x7FF) {
 8002c84:	2180      	movs	r1, #128	@ 0x80
  uint32_t mailBoxNum = 0;
 8002c86:	2300      	movs	r3, #0
{
 8002c88:	9208      	str	r2, [sp, #32]
  uint32_t mailBoxNum = 0;
 8002c8a:	9301      	str	r3, [sp, #4]
 8002c8c:	b2d2      	uxtb	r2, r2
  if(tx_frame.can_id>0x7FF) {
 8002c8e:	0109      	lsls	r1, r1, #4
 8002c90:	4288      	cmp	r0, r1
 8002c92:	d304      	bcc.n	8002c9e <CAN_Send_Data+0x26>
    return(ERROR);
 8002c94:	2001      	movs	r0, #1
		  return(SUCCESS);
	  else return(ERROR);
   }
  else  return(ERROR);

}
 8002c96:	bc3e      	pop	{r1, r2, r3, r4, r5}
 8002c98:	bc08      	pop	{r3}
 8002c9a:	b004      	add	sp, #16
 8002c9c:	4718      	bx	r3
  if(tx_frame.anz_bytes>8) {
 8002c9e:	2a08      	cmp	r2, #8
 8002ca0:	d8f8      	bhi.n	8002c94 <CAN_Send_Data+0x1c>
  _TX_msgHeader.StdId = tx_frame.can_id;
 8002ca2:	4c0f      	ldr	r4, [pc, #60]	@ (8002ce0 <CAN_Send_Data+0x68>)
 8002ca4:	6020      	str	r0, [r4, #0]
	  _TX_msgData[n] = tx_frame.data[n];
 8002ca6:	480f      	ldr	r0, [pc, #60]	@ (8002ce4 <CAN_Send_Data+0x6c>)
  _TX_msgHeader.ExtId = 0x00;
 8002ca8:	6063      	str	r3, [r4, #4]
  _TX_msgHeader.RTR = CAN_RTR_DATA;
 8002caa:	60e3      	str	r3, [r4, #12]
  _TX_msgHeader.IDE = CAN_ID_STD;
 8002cac:	60a3      	str	r3, [r4, #8]
  _TX_msgHeader.DLC = tx_frame.anz_bytes;
 8002cae:	6122      	str	r2, [r4, #16]
  for(n=0;n<tx_frame.anz_bytes;n++) {
 8002cb0:	b2d9      	uxtb	r1, r3
 8002cb2:	428a      	cmp	r2, r1
 8002cb4:	d80e      	bhi.n	8002cd4 <CAN_Send_Data+0x5c>
  if (HAL_CAN_GetTxMailboxesFreeLevel(canHandle) != 0)
 8002cb6:	0028      	movs	r0, r5
 8002cb8:	f7fe fbce 	bl	8001458 <HAL_CAN_GetTxMailboxesFreeLevel>
 8002cbc:	2800      	cmp	r0, #0
 8002cbe:	d0e9      	beq.n	8002c94 <CAN_Send_Data+0x1c>
	  if (HAL_CAN_AddTxMessage(canHandle, &_TX_msgHeader, _TX_msgData, &mailBoxNum)==HAL_OK)
 8002cc0:	ab01      	add	r3, sp, #4
 8002cc2:	0021      	movs	r1, r4
 8002cc4:	0028      	movs	r0, r5
 8002cc6:	4a07      	ldr	r2, [pc, #28]	@ (8002ce4 <CAN_Send_Data+0x6c>)
 8002cc8:	f7fe fb69 	bl	800139e <HAL_CAN_AddTxMessage>
 8002ccc:	1e43      	subs	r3, r0, #1
 8002cce:	4198      	sbcs	r0, r3
 8002cd0:	b240      	sxtb	r0, r0
 8002cd2:	e7e0      	b.n	8002c96 <CAN_Send_Data+0x1e>
	  _TX_msgData[n] = tx_frame.data[n];
 8002cd4:	a907      	add	r1, sp, #28
 8002cd6:	18c9      	adds	r1, r1, r3
 8002cd8:	7949      	ldrb	r1, [r1, #5]
 8002cda:	54c1      	strb	r1, [r0, r3]
  for(n=0;n<tx_frame.anz_bytes;n++) {
 8002cdc:	3301      	adds	r3, #1
 8002cde:	e7e7      	b.n	8002cb0 <CAN_Send_Data+0x38>
 8002ce0:	200002a0 	.word	0x200002a0
 8002ce4:	20000298 	.word	0x20000298

08002ce8 <Set_Filter_CAN>:


void Set_Filter_CAN(CAN_HandleTypeDef* canHandle, uint32_t FIFO_Buffer, uint32_t can_id1, uint32_t can_id2, uint32_t can_id3, uint32_t can_id4, uint32_t nmb_filter)
{
 8002ce8:	b570      	push	{r4, r5, r6, lr}
 8002cea:	0004      	movs	r4, r0
 8002cec:	0008      	movs	r0, r1

  canFilterConfig.FilterBank = nmb_filter;
 8002cee:	4911      	ldr	r1, [pc, #68]	@ (8002d34 <Set_Filter_CAN+0x4c>)
  canFilterConfig.FilterMode = CAN_FILTERMODE_IDLIST;
  canFilterConfig.FilterScale = CAN_FILTERSCALE_16BIT;
  canFilterConfig.FilterIdHigh = can_id2<<5;    // ID2
 8002cf0:	015b      	lsls	r3, r3, #5
 8002cf2:	600b      	str	r3, [r1, #0]
  canFilterConfig.FilterIdLow = can_id1<<5;     // ID1
  canFilterConfig.FilterMaskIdHigh = can_id4<<5;// ID4
 8002cf4:	9b05      	ldr	r3, [sp, #20]
  canFilterConfig.FilterBank = nmb_filter;
 8002cf6:	9d06      	ldr	r5, [sp, #24]
  canFilterConfig.FilterMaskIdHigh = can_id4<<5;// ID4
 8002cf8:	015b      	lsls	r3, r3, #5
 8002cfa:	608b      	str	r3, [r1, #8]
  canFilterConfig.FilterMaskIdLow =can_id3<<5;  // ID3
 8002cfc:	9b04      	ldr	r3, [sp, #16]
  canFilterConfig.FilterScale = CAN_FILTERSCALE_16BIT;
 8002cfe:	2600      	movs	r6, #0
  canFilterConfig.FilterMaskIdLow =can_id3<<5;  // ID3
 8002d00:	015b      	lsls	r3, r3, #5
  canFilterConfig.FilterBank = nmb_filter;
 8002d02:	614d      	str	r5, [r1, #20]
  canFilterConfig.FilterMaskIdLow =can_id3<<5;  // ID3
 8002d04:	60cb      	str	r3, [r1, #12]
  canFilterConfig.FilterMode = CAN_FILTERMODE_IDLIST;
 8002d06:	2501      	movs	r5, #1

  canFilterConfig.FilterFIFOAssignment = FIFO_Buffer;
  canFilterConfig.FilterActivation = ENABLE;
  canFilterConfig.SlaveStartFilterBank = 14;
 8002d08:	230e      	movs	r3, #14
  canFilterConfig.FilterIdLow = can_id1<<5;     // ID1
 8002d0a:	0152      	lsls	r2, r2, #5
  canFilterConfig.FilterFIFOAssignment = FIFO_Buffer;
 8002d0c:	6108      	str	r0, [r1, #16]

  if(HAL_CAN_ConfigFilter(canHandle, &canFilterConfig) != HAL_OK)
 8002d0e:	0020      	movs	r0, r4
  canFilterConfig.FilterMode = CAN_FILTERMODE_IDLIST;
 8002d10:	618d      	str	r5, [r1, #24]
  canFilterConfig.FilterScale = CAN_FILTERSCALE_16BIT;
 8002d12:	61ce      	str	r6, [r1, #28]
  canFilterConfig.FilterIdLow = can_id1<<5;     // ID1
 8002d14:	604a      	str	r2, [r1, #4]
  canFilterConfig.FilterActivation = ENABLE;
 8002d16:	620d      	str	r5, [r1, #32]
  canFilterConfig.SlaveStartFilterBank = 14;
 8002d18:	624b      	str	r3, [r1, #36]	@ 0x24
  if(HAL_CAN_ConfigFilter(canHandle, &canFilterConfig) != HAL_OK)
 8002d1a:	f7fe faa1 	bl	8001260 <HAL_CAN_ConfigFilter>
 8002d1e:	42b0      	cmp	r0, r6
 8002d20:	d000      	beq.n	8002d24 <Set_Filter_CAN+0x3c>
  {
	  for(;;);
 8002d22:	e7fe      	b.n	8002d22 <Set_Filter_CAN+0x3a>
  }


  if (HAL_CAN_ActivateNotification(canHandle, CAN_IT_RX_FIFO0_MSG_PENDING) != HAL_OK)
 8002d24:	2102      	movs	r1, #2
 8002d26:	0020      	movs	r0, r4
 8002d28:	f7fe fc31 	bl	800158e <HAL_CAN_ActivateNotification>
 8002d2c:	2800      	cmp	r0, #0
 8002d2e:	d000      	beq.n	8002d32 <Set_Filter_CAN+0x4a>
  {
	 for(;;);
 8002d30:	e7fe      	b.n	8002d30 <Set_Filter_CAN+0x48>
  }

}
 8002d32:	bd70      	pop	{r4, r5, r6, pc}
 8002d34:	20000270 	.word	0x20000270

08002d38 <CAN_Start>:

void  CAN_Start(CAN_HandleTypeDef* canHandle)
{
 8002d38:	b510      	push	{r4, lr}
	  if (HAL_CAN_Start(canHandle) != HAL_OK)
 8002d3a:	f7fe fb04 	bl	8001346 <HAL_CAN_Start>
 8002d3e:	2800      	cmp	r0, #0
 8002d40:	d000      	beq.n	8002d44 <CAN_Start+0xc>
	  {
		  for(;;);
 8002d42:	e7fe      	b.n	8002d42 <CAN_Start+0xa>
	  }
}
 8002d44:	bd10      	pop	{r4, pc}
	...

08002d48 <HAL_CAN_RxFifo0MsgPendingCallback>:

void HAL_CAN_RxFifo0MsgPendingCallback(CAN_HandleTypeDef * hcan)
{
 8002d48:	b570      	push	{r4, r5, r6, lr}
 8002d4a:	b090      	sub	sp, #64	@ 0x40
CAN_RxHeaderTypeDef _RX_msgHeader;
uint8_t _RX_msgData[8]={0,};
 8002d4c:	ad03      	add	r5, sp, #12
{
 8002d4e:	0004      	movs	r4, r0
uint8_t _RX_msgData[8]={0,};
 8002d50:	2208      	movs	r2, #8
 8002d52:	2100      	movs	r1, #0
 8002d54:	0028      	movs	r0, r5
 8002d56:	f000 fae3 	bl	8003320 <memset>
CAN_RX_FRAME_t  RX_Frame;

if (hcan==CANBUS_CLUSTER)
 8002d5a:	4b19      	ldr	r3, [pc, #100]	@ (8002dc0 <HAL_CAN_RxFifo0MsgPendingCallback+0x78>)
 8002d5c:	429c      	cmp	r4, r3
 8002d5e:	d12d      	bne.n	8002dbc <HAL_CAN_RxFifo0MsgPendingCallback+0x74>
	{
		  if (HAL_CAN_GetRxMessage(CANBUS_CLUSTER, CAN_RX_FIFO0,  &_RX_msgHeader, _RX_msgData)==HAL_OK)
 8002d60:	002b      	movs	r3, r5
 8002d62:	2100      	movs	r1, #0
 8002d64:	0020      	movs	r0, r4
 8002d66:	aa09      	add	r2, sp, #36	@ 0x24
 8002d68:	f7fe fb8a 	bl	8001480 <HAL_CAN_GetRxMessage>
 8002d6c:	2800      	cmp	r0, #0
 8002d6e:	d125      	bne.n	8002dbc <HAL_CAN_RxFifo0MsgPendingCallback+0x74>
		  {
			  //сохранить данные в буфер
			  RX_Frame.can_id = _RX_msgHeader.StdId;
			  RX_Frame.anz_bytes = _RX_msgHeader.DLC;
 8002d70:	9b0d      	ldr	r3, [sp, #52]	@ 0x34
 8002d72:	ac05      	add	r4, sp, #20
 8002d74:	7123      	strb	r3, [r4, #4]
			  RX_Frame.data[0] = _RX_msgData[0];
 8002d76:	782b      	ldrb	r3, [r5, #0]
			  RX_Frame.can_id = _RX_msgHeader.StdId;
 8002d78:	9e09      	ldr	r6, [sp, #36]	@ 0x24
			  RX_Frame.data[0] = _RX_msgData[0];
 8002d7a:	7163      	strb	r3, [r4, #5]
			  RX_Frame.data[1] = _RX_msgData[1];
 8002d7c:	786b      	ldrb	r3, [r5, #1]
			  RX_Frame.data[4] = _RX_msgData[4];
			  RX_Frame.data[5] = _RX_msgData[5];
			  RX_Frame.data[6] = _RX_msgData[6];
			  RX_Frame.data[7] = _RX_msgData[7];

			  Copy_Data_to_CAN_CLUSTER_buffer(RX_Frame);
 8002d7e:	0030      	movs	r0, r6
			  RX_Frame.data[1] = _RX_msgData[1];
 8002d80:	71a3      	strb	r3, [r4, #6]
			  RX_Frame.data[2] = _RX_msgData[2];
 8002d82:	78ab      	ldrb	r3, [r5, #2]
 8002d84:	71e3      	strb	r3, [r4, #7]
			  RX_Frame.data[3] = _RX_msgData[3];
 8002d86:	78eb      	ldrb	r3, [r5, #3]
 8002d88:	7223      	strb	r3, [r4, #8]
			  RX_Frame.data[4] = _RX_msgData[4];
 8002d8a:	792b      	ldrb	r3, [r5, #4]
 8002d8c:	7263      	strb	r3, [r4, #9]
			  RX_Frame.data[5] = _RX_msgData[5];
 8002d8e:	796b      	ldrb	r3, [r5, #5]
 8002d90:	72a3      	strb	r3, [r4, #10]
			  RX_Frame.data[6] = _RX_msgData[6];
 8002d92:	79ab      	ldrb	r3, [r5, #6]
 8002d94:	72e3      	strb	r3, [r4, #11]
			  RX_Frame.data[7] = _RX_msgData[7];
 8002d96:	79eb      	ldrb	r3, [r5, #7]
			  Copy_Data_to_CAN_CLUSTER_buffer(RX_Frame);
 8002d98:	9605      	str	r6, [sp, #20]
			  RX_Frame.data[7] = _RX_msgData[7];
 8002d9a:	7323      	strb	r3, [r4, #12]
			  Copy_Data_to_CAN_CLUSTER_buffer(RX_Frame);
 8002d9c:	9b08      	ldr	r3, [sp, #32]
 8002d9e:	9906      	ldr	r1, [sp, #24]
 8002da0:	9a07      	ldr	r2, [sp, #28]
 8002da2:	f7ff ff21 	bl	8002be8 <Copy_Data_to_CAN_CLUSTER_buffer>

			  if (RX_Frame.can_id==0x3BA)  Logger_CAN_RX(YES, RX_Frame);
 8002da6:	4b07      	ldr	r3, [pc, #28]	@ (8002dc4 <HAL_CAN_RxFifo0MsgPendingCallback+0x7c>)
 8002da8:	429e      	cmp	r6, r3
 8002daa:	d107      	bne.n	8002dbc <HAL_CAN_RxFifo0MsgPendingCallback+0x74>
 8002dac:	9b08      	ldr	r3, [sp, #32]
 8002dae:	2001      	movs	r0, #1
 8002db0:	9300      	str	r3, [sp, #0]
 8002db2:	9905      	ldr	r1, [sp, #20]
 8002db4:	9a06      	ldr	r2, [sp, #24]
 8002db6:	9b07      	ldr	r3, [sp, #28]
 8002db8:	f000 fa0a 	bl	80031d0 <Logger_CAN_RX>
		  }
	}
}
 8002dbc:	b010      	add	sp, #64	@ 0x40
 8002dbe:	bd70      	pop	{r4, r5, r6, pc}
 8002dc0:	2000007c 	.word	0x2000007c
 8002dc4:	000003ba 	.word	0x000003ba

08002dc8 <Send_Command_to_ExtDevice>:

void Send_Command_to_ExtDevice(uint8_t command, uint8_t status)
{
 8002dc8:	b57f      	push	{r0, r1, r2, r3, r4, r5, r6, lr}
	CAN_TX_FRAME_t TxMsg;
	TxMsg.can_id=0x67C;
	TxMsg.anz_bytes = 3;
 8002dca:	4a07      	ldr	r2, [pc, #28]	@ (8002de8 <Send_Command_to_ExtDevice+0x20>)
	TxMsg.can_id=0x67C;
 8002dcc:	ab02      	add	r3, sp, #8
	TxMsg.anz_bytes = 3;
 8002dce:	809a      	strh	r2, [r3, #4]
	TxMsg.data[0]=0xEE;
	TxMsg.data[1]=command;
	TxMsg.data[2]=status;
	//посылаем запрос
	CAN_Send_Data(CANBUS_CLUSTER , TxMsg);
 8002dd0:	9a05      	ldr	r2, [sp, #20]
	TxMsg.data[1]=command;
 8002dd2:	7198      	strb	r0, [r3, #6]
	TxMsg.data[2]=status;
 8002dd4:	71d9      	strb	r1, [r3, #7]
	CAN_Send_Data(CANBUS_CLUSTER , TxMsg);
 8002dd6:	4805      	ldr	r0, [pc, #20]	@ (8002dec <Send_Command_to_ExtDevice+0x24>)
 8002dd8:	9200      	str	r2, [sp, #0]
 8002dda:	4905      	ldr	r1, [pc, #20]	@ (8002df0 <Send_Command_to_ExtDevice+0x28>)
 8002ddc:	9a03      	ldr	r2, [sp, #12]
 8002dde:	9b04      	ldr	r3, [sp, #16]
 8002de0:	f7ff ff4a 	bl	8002c78 <CAN_Send_Data>
	//Logger_CAN_TX(HAL_GetTick(), LOGGER_CAN_TX, TxMsg);
}
 8002de4:	b007      	add	sp, #28
 8002de6:	bd00      	pop	{pc}
 8002de8:	ffffee03 	.word	0xffffee03
 8002dec:	2000007c 	.word	0x2000007c
 8002df0:	0000067c 	.word	0x0000067c

08002df4 <BUZZER_On>:

#else

#if(BUZZER_ACTIVE_HIGH)
	/* For buzzer with generator,  High Level = BuzzerOn */
	HAL_GPIO_WritePin(BUZZER_GPIO_Port, BUZZER_Pin, GPIO_PIN_SET);
 8002df4:	2090      	movs	r0, #144	@ 0x90
{
 8002df6:	b510      	push	{r4, lr}
	HAL_GPIO_WritePin(BUZZER_GPIO_Port, BUZZER_Pin, GPIO_PIN_SET);
 8002df8:	2201      	movs	r2, #1
 8002dfa:	2102      	movs	r1, #2
 8002dfc:	05c0      	lsls	r0, r0, #23
 8002dfe:	f7fe feeb 	bl	8001bd8 <HAL_GPIO_WritePin>
	/* For buzzer with generator,  Low Level = BuzzerOn */
	HAL_GPIO_WritePin(BUZZER_GPIO_Port, BUZZER_Pin, GPIO_PIN_RESET);
#endif
#endif

}
 8002e02:	bd10      	pop	{r4, pc}

08002e04 <BUZZER_Off>:

#else

#if(BUZZER_ACTIVE_HIGH)
	/* For buzzer with generator,  Low Level = BuzzerOff */
	HAL_GPIO_WritePin(BUZZER_GPIO_Port, BUZZER_Pin, GPIO_PIN_RESET);
 8002e04:	2090      	movs	r0, #144	@ 0x90
{
 8002e06:	b510      	push	{r4, lr}
	HAL_GPIO_WritePin(BUZZER_GPIO_Port, BUZZER_Pin, GPIO_PIN_RESET);
 8002e08:	2200      	movs	r2, #0
 8002e0a:	2102      	movs	r1, #2
 8002e0c:	05c0      	lsls	r0, r0, #23
 8002e0e:	f7fe fee3 	bl	8001bd8 <HAL_GPIO_WritePin>
#else
	/* For buzzer with generator,  High Level = BuzzerOff */
	HAL_GPIO_WritePin(BUZZER_GPIO_Port, BUZZER_Pin, GPIO_PIN_SET);
#endif
#endif
}
 8002e12:	bd10      	pop	{r4, pc}

08002e14 <BUZZER_Go>:
  * @note No need init
  * @param time between ticks in ms, ticks quantity
  * @retval No
  */
void BUZZER_Go(buztime_t period, buztick_t ticks)
{
 8002e14:	b570      	push	{r4, r5, r6, lr}
 8002e16:	0004      	movs	r4, r0
 8002e18:	000d      	movs	r5, r1
	BUZZER_On();
 8002e1a:	f7ff ffeb 	bl	8002df4 <BUZZER_On>
	Buz.Help = 0;
 8002e1e:	2200      	movs	r2, #0
 8002e20:	4b02      	ldr	r3, [pc, #8]	@ (8002e2c <BUZZER_Go+0x18>)
	Buz.ToutSave = period;
	Buz.Tout = period;
	Buz.Tick = ticks;
 8002e22:	711d      	strb	r5, [r3, #4]
	Buz.Help = 0;
 8002e24:	715a      	strb	r2, [r3, #5]
	Buz.ToutSave = period;
 8002e26:	805c      	strh	r4, [r3, #2]
	Buz.Tout = period;
 8002e28:	801c      	strh	r4, [r3, #0]
}
 8002e2a:	bd70      	pop	{r4, r5, r6, pc}
 8002e2c:	200002cc 	.word	0x200002cc

08002e30 <BUZZER_Handler>:
  * @note Insert func.in the 1kHz interrupt handler (e.g. SysTick)
  * @param No
  * @retval No
  */
void BUZZER_Handler(void)
{
 8002e30:	b510      	push	{r4, lr}
	if(Buz.Tick)
 8002e32:	4c0d      	ldr	r4, [pc, #52]	@ (8002e68 <BUZZER_Handler+0x38>)
 8002e34:	7922      	ldrb	r2, [r4, #4]
 8002e36:	2a00      	cmp	r2, #0
 8002e38:	d011      	beq.n	8002e5e <BUZZER_Handler+0x2e>
	{
		if(--Buz.Tout <= 0)
 8002e3a:	8823      	ldrh	r3, [r4, #0]
 8002e3c:	3b01      	subs	r3, #1
 8002e3e:	b29b      	uxth	r3, r3
 8002e40:	8023      	strh	r3, [r4, #0]
 8002e42:	2b00      	cmp	r3, #0
 8002e44:	d10b      	bne.n	8002e5e <BUZZER_Handler+0x2e>
		{
			Buz.Tick--;

			if(Buz.Help)
 8002e46:	7963      	ldrb	r3, [r4, #5]
			Buz.Tick--;
 8002e48:	3a01      	subs	r2, #1
 8002e4a:	7122      	strb	r2, [r4, #4]
			if(Buz.Help)
 8002e4c:	2b00      	cmp	r3, #0
 8002e4e:	d007      	beq.n	8002e60 <BUZZER_Handler+0x30>
			{
				BUZZER_On();
 8002e50:	f7ff ffd0 	bl	8002df4 <BUZZER_On>
			else
			{
				BUZZER_Off();
			}

			Buz.Tout = Buz.ToutSave;
 8002e54:	8863      	ldrh	r3, [r4, #2]
 8002e56:	8023      	strh	r3, [r4, #0]

			/* Toggle */
			Buz.Help = ~Buz.Help;
 8002e58:	7963      	ldrb	r3, [r4, #5]
 8002e5a:	43db      	mvns	r3, r3
 8002e5c:	7163      	strb	r3, [r4, #5]
		}
	}
}
 8002e5e:	bd10      	pop	{r4, pc}
				BUZZER_Off();
 8002e60:	f7ff ffd0 	bl	8002e04 <BUZZER_Off>
 8002e64:	e7f6      	b.n	8002e54 <BUZZER_Handler+0x24>
 8002e66:	46c0      	nop			@ (mov r8, r8)
 8002e68:	200002cc 	.word	0x200002cc

08002e6c <EEPROM_WriteData>:



/* Functions -----------------------------------------------------------------*/
EepromResult EEPROM_WriteData(uint32_t address, uint32_t varId, uint32_t varValue)
{
 8002e6c:	b570      	push	{r4, r5, r6, lr}
 8002e6e:	000e      	movs	r6, r1
 8002e70:	0015      	movs	r5, r2
 8002e72:	0004      	movs	r4, r0
  EepromResult res = EEPROM_OK;
  HAL_StatusTypeDef flashRes = HAL_OK;
  uint64_t fullData = ((uint64_t)varValue << 32) | (uint64_t)varId;
  
  HAL_FLASH_Unlock();
 8002e74:	f7fe fd02 	bl	800187c <HAL_FLASH_Unlock>
  flashRes = HAL_FLASH_Program(FLASH_TYPEPROGRAM_DOUBLEWORD, address, fullData);
 8002e78:	002b      	movs	r3, r5
 8002e7a:	0032      	movs	r2, r6
 8002e7c:	0021      	movs	r1, r4
 8002e7e:	2003      	movs	r0, #3
 8002e80:	f7fe fd44 	bl	800190c <HAL_FLASH_Program>
 8002e84:	0004      	movs	r4, r0
  HAL_FLASH_Lock();
  
  if (flashRes != HAL_OK)
 8002e86:	1e63      	subs	r3, r4, #1
 8002e88:	419c      	sbcs	r4, r3
  HAL_FLASH_Lock();
 8002e8a:	f7fe fd0b 	bl	80018a4 <HAL_FLASH_Lock>
  {
    res = EEPROM_ERROR1;
  }
  
  return res;
 8002e8e:	b2e0      	uxtb	r0, r4
}
 8002e90:	bd70      	pop	{r4, r5, r6, pc}
	...

08002e94 <EEPROM_SetPageState>:



/******************************************************************************/
EepromResult EEPROM_SetPageState(PageIdx idx, PageState state)
{
 8002e94:	b570      	push	{r4, r5, r6, lr}
 8002e96:	0004      	movs	r4, r0
 8002e98:	000d      	movs	r5, r1
  EepromResult res = EEPROM_OK;
  HAL_StatusTypeDef flashRes = HAL_OK;
  
  HAL_FLASH_Unlock();
 8002e9a:	f7fe fcef 	bl	800187c <HAL_FLASH_Unlock>
  flashRes = HAL_FLASH_Program(FLASH_TYPEPROGRAM_WORD, pageAddress[idx], state);                   
 8002e9e:	4807      	ldr	r0, [pc, #28]	@ (8002ebc <EEPROM_SetPageState+0x28>)
 8002ea0:	00a4      	lsls	r4, r4, #2
 8002ea2:	5821      	ldr	r1, [r4, r0]
 8002ea4:	002a      	movs	r2, r5
 8002ea6:	2300      	movs	r3, #0
 8002ea8:	2002      	movs	r0, #2
 8002eaa:	f7fe fd2f 	bl	800190c <HAL_FLASH_Program>
 8002eae:	0004      	movs	r4, r0
  HAL_FLASH_Lock();
  
  if (flashRes != HAL_OK)
 8002eb0:	1e63      	subs	r3, r4, #1
 8002eb2:	419c      	sbcs	r4, r3
  HAL_FLASH_Lock();
 8002eb4:	f7fe fcf6 	bl	80018a4 <HAL_FLASH_Lock>
  {
    res = EEPROM_ERROR2;
  }
  
  return res;
 8002eb8:	0060      	lsls	r0, r4, #1
}
 8002eba:	bd70      	pop	{r4, r5, r6, pc}
 8002ebc:	08003fb0 	.word	0x08003fb0

08002ec0 <EEPROM_ClearPage>:



/******************************************************************************/
EepromResult EEPROM_ClearPage(PageIdx idx)
{
 8002ec0:	b530      	push	{r4, r5, lr}
  EepromResult res = EEPROM_OK;
  
  FLASH_EraseInitTypeDef erase;
  
  erase.TypeErase = FLASH_TYPEERASE_PAGES;
  erase.PageAddress = pageAddress[idx];  
 8002ec2:	4b0f      	ldr	r3, [pc, #60]	@ (8002f00 <EEPROM_ClearPage+0x40>)
 8002ec4:	0081      	lsls	r1, r0, #2
 8002ec6:	58cb      	ldr	r3, [r1, r3]
{
 8002ec8:	b085      	sub	sp, #20
  erase.TypeErase = FLASH_TYPEERASE_PAGES;
 8002eca:	2200      	movs	r2, #0
  erase.PageAddress = pageAddress[idx];  
 8002ecc:	9302      	str	r3, [sp, #8]
  erase.NbPages = 1;
 8002ece:	2301      	movs	r3, #1
  erase.TypeErase = FLASH_TYPEERASE_PAGES;
 8002ed0:	9201      	str	r2, [sp, #4]
  erase.NbPages = 1;
 8002ed2:	9303      	str	r3, [sp, #12]
  
  HAL_StatusTypeDef flashRes = HAL_OK;
  uint32_t pageError = 0;
 8002ed4:	9200      	str	r2, [sp, #0]
{
 8002ed6:	0004      	movs	r4, r0
  
  HAL_FLASH_Unlock();
 8002ed8:	f7fe fcd0 	bl	800187c <HAL_FLASH_Unlock>
  flashRes = HAL_FLASHEx_Erase(&erase, &pageError);
 8002edc:	4669      	mov	r1, sp
 8002ede:	a801      	add	r0, sp, #4
 8002ee0:	f7fe fd7e 	bl	80019e0 <HAL_FLASHEx_Erase>
 8002ee4:	0005      	movs	r5, r0
  HAL_FLASH_Lock();
 8002ee6:	f7fe fcdd 	bl	80018a4 <HAL_FLASH_Lock>
  
  if (flashRes != HAL_OK)
  {
    res = EEPROM_ERROR6;
    return res;
 8002eea:	2006      	movs	r0, #6
  if (flashRes != HAL_OK)
 8002eec:	2d00      	cmp	r5, #0
 8002eee:	d104      	bne.n	8002efa <EEPROM_ClearPage+0x3a>
  }
  
  res = EEPROM_SetPageState(idx, PAGE_CLEARED);
 8002ef0:	2101      	movs	r1, #1
 8002ef2:	0020      	movs	r0, r4
 8002ef4:	4249      	negs	r1, r1
 8002ef6:	f7ff ffcd 	bl	8002e94 <EEPROM_SetPageState>
  
  return res;
}
 8002efa:	b005      	add	sp, #20
 8002efc:	bd30      	pop	{r4, r5, pc}
 8002efe:	46c0      	nop			@ (mov r8, r8)
 8002f00:	08003fb0 	.word	0x08003fb0

08002f04 <EEPROM_Format>:



/******************************************************************************/
EepromResult EEPROM_Format()
{
 8002f04:	b510      	push	{r4, lr}
  EepromResult res = EEPROM_OK;
  
  for (uint8_t i = 0; i < PAGES_NUM; i++)
  {
    res = EEPROM_ClearPage((PageIdx)i);
 8002f06:	2000      	movs	r0, #0
 8002f08:	f7ff ffda 	bl	8002ec0 <EEPROM_ClearPage>
    
    if (res != EEPROM_OK)
 8002f0c:	2800      	cmp	r0, #0
 8002f0e:	d102      	bne.n	8002f16 <EEPROM_Format+0x12>
    res = EEPROM_ClearPage((PageIdx)i);
 8002f10:	3001      	adds	r0, #1
 8002f12:	f7ff ffd5 	bl	8002ec0 <EEPROM_ClearPage>
      return res;
    }
  }
    
  return res;
}
 8002f16:	bd10      	pop	{r4, pc}

08002f18 <EEPROM_GetActivePageIdx>:
  return (*(__IO uint32_t*)address);
 8002f18:	4b08      	ldr	r3, [pc, #32]	@ (8002f3c <EEPROM_GetActivePageIdx+0x24>)
 8002f1a:	4909      	ldr	r1, [pc, #36]	@ (8002f40 <EEPROM_GetActivePageIdx+0x28>)
 8002f1c:	681b      	ldr	r3, [r3, #0]



/******************************************************************************/
EepromResult EEPROM_GetActivePageIdx(PageIdx *idx)
{
 8002f1e:	0002      	movs	r2, r0
  return (*(__IO uint32_t*)address);
 8002f20:	6809      	ldr	r1, [r1, #0]
  for (uint8_t i = 0; i < PAGES_NUM; i++)
  {
    pageStates[i] = EEPROM_ReadPageState((PageIdx)i);
  }
  
  if ((pageStates[PAGE_0] == PAGE_ACTIVE) && (pageStates[PAGE_1] != PAGE_ACTIVE))
 8002f22:	2b00      	cmp	r3, #0
 8002f24:	d105      	bne.n	8002f32 <EEPROM_GetActivePageIdx+0x1a>
    {
      *idx = PAGE_1;
    }
    else
    {
      res = EEPROM_ERROR3;
 8002f26:	2003      	movs	r0, #3
  if ((pageStates[PAGE_0] == PAGE_ACTIVE) && (pageStates[PAGE_1] != PAGE_ACTIVE))
 8002f28:	2900      	cmp	r1, #0
 8002f2a:	d001      	beq.n	8002f30 <EEPROM_GetActivePageIdx+0x18>
  EepromResult res = EEPROM_OK;
 8002f2c:	2000      	movs	r0, #0
      *idx = PAGE_1;
 8002f2e:	7013      	strb	r3, [r2, #0]
    }
  }
  
  return res;
}
 8002f30:	4770      	bx	lr
      res = EEPROM_ERROR3;
 8002f32:	2003      	movs	r0, #3
    if ((pageStates[PAGE_1] == PAGE_ACTIVE) && (pageStates[PAGE_0] != PAGE_ACTIVE))
 8002f34:	2900      	cmp	r1, #0
 8002f36:	d1fb      	bne.n	8002f30 <EEPROM_GetActivePageIdx+0x18>
 8002f38:	2301      	movs	r3, #1
 8002f3a:	e7f7      	b.n	8002f2c <EEPROM_GetActivePageIdx+0x14>
 8002f3c:	08007800 	.word	0x08007800
 8002f40:	08007c00 	.word	0x08007c00

08002f44 <EEPROM_Read>:
{
 8002f44:	b537      	push	{r0, r1, r2, r4, r5, lr}
  PageIdx activePage = PAGE_0;
 8002f46:	466a      	mov	r2, sp
 8002f48:	2300      	movs	r3, #0
{
 8002f4a:	0004      	movs	r4, r0
  res = EEPROM_GetActivePageIdx(&activePage);
 8002f4c:	1dd0      	adds	r0, r2, #7
{
 8002f4e:	000d      	movs	r5, r1
  PageIdx activePage = PAGE_0;
 8002f50:	71d3      	strb	r3, [r2, #7]
  res = EEPROM_GetActivePageIdx(&activePage);
 8002f52:	f7ff ffe1 	bl	8002f18 <EEPROM_GetActivePageIdx>
  if (res != EEPROM_OK)
 8002f56:	2800      	cmp	r0, #0
 8002f58:	d112      	bne.n	8002f80 <EEPROM_Read+0x3c>
  uint32_t startAddr = pageAddress[activePage] + PAGE_DATA_OFFSET;
 8002f5a:	466a      	mov	r2, sp
 8002f5c:	79d2      	ldrb	r2, [r2, #7]
 8002f5e:	4b0a      	ldr	r3, [pc, #40]	@ (8002f88 <EEPROM_Read+0x44>)
 8002f60:	0092      	lsls	r2, r2, #2
 8002f62:	58d3      	ldr	r3, [r2, r3]
  uint32_t endAddr = pageAddress[activePage] + PAGE_SIZE - PAGE_DATA_SIZE;
 8002f64:	21fe      	movs	r1, #254	@ 0xfe
  uint32_t startAddr = pageAddress[activePage] + PAGE_DATA_OFFSET;
 8002f66:	001a      	movs	r2, r3
  uint32_t endAddr = pageAddress[activePage] + PAGE_SIZE - PAGE_DATA_SIZE;
 8002f68:	0089      	lsls	r1, r1, #2
  uint32_t startAddr = pageAddress[activePage] + PAGE_DATA_OFFSET;
 8002f6a:	3208      	adds	r2, #8
  uint32_t endAddr = pageAddress[activePage] + PAGE_SIZE - PAGE_DATA_SIZE;
 8002f6c:	185b      	adds	r3, r3, r1
  while (addr >= startAddr)
 8002f6e:	4293      	cmp	r3, r2
 8002f70:	d201      	bcs.n	8002f76 <EEPROM_Read+0x32>
    res = EEPROM_ERROR4;
 8002f72:	2004      	movs	r0, #4
 8002f74:	e004      	b.n	8002f80 <EEPROM_Read+0x3c>
  return (*(__IO uint32_t*)address);
 8002f76:	6819      	ldr	r1, [r3, #0]
    if (idData == varId)
 8002f78:	428c      	cmp	r4, r1
 8002f7a:	d102      	bne.n	8002f82 <EEPROM_Read+0x3e>
  return (*(__IO uint32_t*)address);
 8002f7c:	685b      	ldr	r3, [r3, #4]
      *varValue = FLASH_Read(addr + 4);
 8002f7e:	602b      	str	r3, [r5, #0]
}
 8002f80:	bd3e      	pop	{r1, r2, r3, r4, r5, pc}
      addr -= PAGE_DATA_SIZE;
 8002f82:	3b08      	subs	r3, #8
 8002f84:	e7f3      	b.n	8002f6e <EEPROM_Read+0x2a>
 8002f86:	46c0      	nop			@ (mov r8, r8)
 8002f88:	08003fb0 	.word	0x08003fb0

08002f8c <EEPROM_PageTransfer>:
    newPage = PAGE_1;
 8002f8c:	0003      	movs	r3, r0
{
 8002f8e:	b5f0      	push	{r4, r5, r6, r7, lr}
 8002f90:	0015      	movs	r5, r2
    newPage = PAGE_1;
 8002f92:	425a      	negs	r2, r3
 8002f94:	415a      	adcs	r2, r3
{
 8002f96:	b085      	sub	sp, #20
 8002f98:	000c      	movs	r4, r1
 8002f9a:	9001      	str	r0, [sp, #4]
  res = EEPROM_SetPageState(newPage, PAGE_RECEIVING_DATA);
 8002f9c:	4922      	ldr	r1, [pc, #136]	@ (8003028 <EEPROM_PageTransfer+0x9c>)
 8002f9e:	0010      	movs	r0, r2
    newPage = PAGE_1;
 8002fa0:	9200      	str	r2, [sp, #0]
  res = EEPROM_SetPageState(newPage, PAGE_RECEIVING_DATA);
 8002fa2:	f7ff ff77 	bl	8002e94 <EEPROM_SetPageState>
  if (res != EEPROM_OK)
 8002fa6:	2800      	cmp	r0, #0
 8002fa8:	d132      	bne.n	8003010 <EEPROM_PageTransfer+0x84>
  uint32_t curAddr = pageAddress[newPage] + PAGE_DATA_OFFSET;
 8002faa:	9a00      	ldr	r2, [sp, #0]
 8002fac:	4b1f      	ldr	r3, [pc, #124]	@ (800302c <EEPROM_PageTransfer+0xa0>)
 8002fae:	0092      	lsls	r2, r2, #2
 8002fb0:	58d6      	ldr	r6, [r2, r3]
  res = EEPROM_WriteData(curAddr, varId, varValue);
 8002fb2:	0021      	movs	r1, r4
  uint32_t curAddr = pageAddress[newPage] + PAGE_DATA_OFFSET;
 8002fb4:	0030      	movs	r0, r6
  res = EEPROM_WriteData(curAddr, varId, varValue);
 8002fb6:	002a      	movs	r2, r5
  uint32_t curAddr = pageAddress[newPage] + PAGE_DATA_OFFSET;
 8002fb8:	3008      	adds	r0, #8
  res = EEPROM_WriteData(curAddr, varId, varValue);
 8002fba:	f7ff ff57 	bl	8002e6c <EEPROM_WriteData>
  if (res != EEPROM_OK)
 8002fbe:	2800      	cmp	r0, #0
 8002fc0:	d126      	bne.n	8003010 <EEPROM_PageTransfer+0x84>
  curAddr += PAGE_DATA_SIZE;
 8002fc2:	0035      	movs	r5, r6
    if (varIdList[curVar] != varId)
 8002fc4:	4f1a      	ldr	r7, [pc, #104]	@ (8003030 <EEPROM_PageTransfer+0xa4>)
  curAddr += PAGE_DATA_SIZE;
 8002fc6:	3510      	adds	r5, #16
    if (varIdList[curVar] != varId)
 8002fc8:	42bc      	cmp	r4, r7
 8002fca:	d009      	beq.n	8002fe0 <EEPROM_PageTransfer+0x54>
      uint32_t curVarValue = 0;
 8002fcc:	9003      	str	r0, [sp, #12]
      res = EEPROM_Read(varIdList[curVar], &curVarValue);
 8002fce:	a903      	add	r1, sp, #12
 8002fd0:	0038      	movs	r0, r7
 8002fd2:	f7ff ffb7 	bl	8002f44 <EEPROM_Read>
      if (res == EEPROM_OK)
 8002fd6:	2800      	cmp	r0, #0
 8002fd8:	d01c      	beq.n	8003014 <EEPROM_PageTransfer+0x88>
    if (varIdList[curVar] != varId)
 8002fda:	4b16      	ldr	r3, [pc, #88]	@ (8003034 <EEPROM_PageTransfer+0xa8>)
 8002fdc:	429c      	cmp	r4, r3
 8002fde:	d00e      	beq.n	8002ffe <EEPROM_PageTransfer+0x72>
      uint32_t curVarValue = 0;
 8002fe0:	2300      	movs	r3, #0
      res = EEPROM_Read(varIdList[curVar], &curVarValue);
 8002fe2:	4814      	ldr	r0, [pc, #80]	@ (8003034 <EEPROM_PageTransfer+0xa8>)
 8002fe4:	a903      	add	r1, sp, #12
      uint32_t curVarValue = 0;
 8002fe6:	9303      	str	r3, [sp, #12]
      res = EEPROM_Read(varIdList[curVar], &curVarValue);
 8002fe8:	f7ff ffac 	bl	8002f44 <EEPROM_Read>
      if (res == EEPROM_OK)
 8002fec:	2800      	cmp	r0, #0
 8002fee:	d106      	bne.n	8002ffe <EEPROM_PageTransfer+0x72>
        res = EEPROM_WriteData(curAddr, varIdList[curVar], curVarValue);
 8002ff0:	0028      	movs	r0, r5
 8002ff2:	9a03      	ldr	r2, [sp, #12]
 8002ff4:	490f      	ldr	r1, [pc, #60]	@ (8003034 <EEPROM_PageTransfer+0xa8>)
 8002ff6:	f7ff ff39 	bl	8002e6c <EEPROM_WriteData>
        if (res != EEPROM_OK)
 8002ffa:	2800      	cmp	r0, #0
 8002ffc:	d108      	bne.n	8003010 <EEPROM_PageTransfer+0x84>
  res = EEPROM_ClearPage(oldPage);
 8002ffe:	9801      	ldr	r0, [sp, #4]
 8003000:	f7ff ff5e 	bl	8002ec0 <EEPROM_ClearPage>
  if (res != EEPROM_OK)
 8003004:	2800      	cmp	r0, #0
 8003006:	d103      	bne.n	8003010 <EEPROM_PageTransfer+0x84>
  res = EEPROM_SetPageState(newPage, PAGE_ACTIVE);
 8003008:	0001      	movs	r1, r0
 800300a:	9800      	ldr	r0, [sp, #0]
 800300c:	f7ff ff42 	bl	8002e94 <EEPROM_SetPageState>
}
 8003010:	b005      	add	sp, #20
 8003012:	bdf0      	pop	{r4, r5, r6, r7, pc}
        res = EEPROM_WriteData(curAddr, varIdList[curVar], curVarValue);
 8003014:	0039      	movs	r1, r7
 8003016:	0028      	movs	r0, r5
 8003018:	9a03      	ldr	r2, [sp, #12]
 800301a:	f7ff ff27 	bl	8002e6c <EEPROM_WriteData>
        if (res != EEPROM_OK)
 800301e:	2800      	cmp	r0, #0
 8003020:	d1f6      	bne.n	8003010 <EEPROM_PageTransfer+0x84>
        curAddr += PAGE_DATA_SIZE;
 8003022:	0035      	movs	r5, r6
 8003024:	3518      	adds	r5, #24
 8003026:	e7d8      	b.n	8002fda <EEPROM_PageTransfer+0x4e>
 8003028:	55555555 	.word	0x55555555
 800302c:	08003fb0 	.word	0x08003fb0
 8003030:	12121212 	.word	0x12121212
 8003034:	34343434 	.word	0x34343434

08003038 <EEPROM_CopyPageData>:
  uint32_t curAddr = pageAddress[newPage] + PAGE_DATA_OFFSET;
 8003038:	4b19      	ldr	r3, [pc, #100]	@ (80030a0 <EEPROM_CopyPageData+0x68>)
{
 800303a:	b5f7      	push	{r0, r1, r2, r4, r5, r6, r7, lr}
  uint32_t curAddr = pageAddress[newPage] + PAGE_DATA_OFFSET;
 800303c:	008a      	lsls	r2, r1, #2
 800303e:	58d6      	ldr	r6, [r2, r3]
    uint32_t curVarValue = 0;
 8003040:	2300      	movs	r3, #0
  uint32_t curAddr = pageAddress[newPage] + PAGE_DATA_OFFSET;
 8003042:	0037      	movs	r7, r6
{
 8003044:	0004      	movs	r4, r0
 8003046:	000d      	movs	r5, r1
    res = EEPROM_Read(varIdList[curVar], &curVarValue);
 8003048:	4816      	ldr	r0, [pc, #88]	@ (80030a4 <EEPROM_CopyPageData+0x6c>)
 800304a:	a901      	add	r1, sp, #4
  uint32_t curAddr = pageAddress[newPage] + PAGE_DATA_OFFSET;
 800304c:	3708      	adds	r7, #8
    uint32_t curVarValue = 0;
 800304e:	9301      	str	r3, [sp, #4]
    res = EEPROM_Read(varIdList[curVar], &curVarValue);
 8003050:	f7ff ff78 	bl	8002f44 <EEPROM_Read>
    if (res == EEPROM_OK)
 8003054:	2800      	cmp	r0, #0
 8003056:	d108      	bne.n	800306a <EEPROM_CopyPageData+0x32>
      res = EEPROM_WriteData(curAddr, varIdList[curVar], curVarValue);
 8003058:	0038      	movs	r0, r7
 800305a:	9a01      	ldr	r2, [sp, #4]
 800305c:	4911      	ldr	r1, [pc, #68]	@ (80030a4 <EEPROM_CopyPageData+0x6c>)
 800305e:	f7ff ff05 	bl	8002e6c <EEPROM_WriteData>
      if (res != EEPROM_OK)
 8003062:	2800      	cmp	r0, #0
 8003064:	d11a      	bne.n	800309c <EEPROM_CopyPageData+0x64>
      curAddr += PAGE_DATA_SIZE;
 8003066:	3610      	adds	r6, #16
 8003068:	0037      	movs	r7, r6
    uint32_t curVarValue = 0;
 800306a:	2300      	movs	r3, #0
    res = EEPROM_Read(varIdList[curVar], &curVarValue);
 800306c:	480e      	ldr	r0, [pc, #56]	@ (80030a8 <EEPROM_CopyPageData+0x70>)
 800306e:	a901      	add	r1, sp, #4
    uint32_t curVarValue = 0;
 8003070:	9301      	str	r3, [sp, #4]
    res = EEPROM_Read(varIdList[curVar], &curVarValue);
 8003072:	f7ff ff67 	bl	8002f44 <EEPROM_Read>
    if (res == EEPROM_OK)
 8003076:	2800      	cmp	r0, #0
 8003078:	d009      	beq.n	800308e <EEPROM_CopyPageData+0x56>
  res = EEPROM_SetPageState(newPage, PAGE_ACTIVE);
 800307a:	2100      	movs	r1, #0
 800307c:	0028      	movs	r0, r5
 800307e:	f7ff ff09 	bl	8002e94 <EEPROM_SetPageState>
  if (res != EEPROM_OK)
 8003082:	2800      	cmp	r0, #0
 8003084:	d10a      	bne.n	800309c <EEPROM_CopyPageData+0x64>
  res = EEPROM_ClearPage(oldPage);
 8003086:	0020      	movs	r0, r4
 8003088:	f7ff ff1a 	bl	8002ec0 <EEPROM_ClearPage>
  return res;
 800308c:	e006      	b.n	800309c <EEPROM_CopyPageData+0x64>
      res = EEPROM_WriteData(curAddr, varIdList[curVar], curVarValue);
 800308e:	0038      	movs	r0, r7
 8003090:	9a01      	ldr	r2, [sp, #4]
 8003092:	4905      	ldr	r1, [pc, #20]	@ (80030a8 <EEPROM_CopyPageData+0x70>)
 8003094:	f7ff feea 	bl	8002e6c <EEPROM_WriteData>
      if (res != EEPROM_OK)
 8003098:	2800      	cmp	r0, #0
 800309a:	d0ee      	beq.n	800307a <EEPROM_CopyPageData+0x42>
}
 800309c:	bdfe      	pop	{r1, r2, r3, r4, r5, r6, r7, pc}
 800309e:	46c0      	nop			@ (mov r8, r8)
 80030a0:	08003fb0 	.word	0x08003fb0
 80030a4:	12121212 	.word	0x12121212
 80030a8:	34343434 	.word	0x34343434

080030ac <EEPROM_Write>:
    if (varIdList[curVar] == varId)
 80030ac:	4b16      	ldr	r3, [pc, #88]	@ (8003108 <EEPROM_Write+0x5c>)
{
 80030ae:	b537      	push	{r0, r1, r2, r4, r5, lr}
 80030b0:	0004      	movs	r4, r0
 80030b2:	000d      	movs	r5, r1
    if (varIdList[curVar] == varId)
 80030b4:	4298      	cmp	r0, r3
 80030b6:	d003      	beq.n	80030c0 <EEPROM_Write+0x14>
 80030b8:	4b14      	ldr	r3, [pc, #80]	@ (800310c <EEPROM_Write+0x60>)
    return res;
 80030ba:	2005      	movs	r0, #5
    if (varIdList[curVar] == varId)
 80030bc:	429c      	cmp	r4, r3
 80030be:	d122      	bne.n	8003106 <EEPROM_Write+0x5a>
  PageIdx activePage = PAGE_0;
 80030c0:	466a      	mov	r2, sp
 80030c2:	2300      	movs	r3, #0
  res = EEPROM_GetActivePageIdx(&activePage);
 80030c4:	1dd0      	adds	r0, r2, #7
  PageIdx activePage = PAGE_0;
 80030c6:	71d3      	strb	r3, [r2, #7]
  res = EEPROM_GetActivePageIdx(&activePage);
 80030c8:	f7ff ff26 	bl	8002f18 <EEPROM_GetActivePageIdx>
  if (res != EEPROM_OK)
 80030cc:	2800      	cmp	r0, #0
 80030ce:	d11a      	bne.n	8003106 <EEPROM_Write+0x5a>
  uint32_t startAddr = pageAddress[activePage] + PAGE_DATA_OFFSET;
 80030d0:	466b      	mov	r3, sp
 80030d2:	79d8      	ldrb	r0, [r3, #7]
 80030d4:	4b0e      	ldr	r3, [pc, #56]	@ (8003110 <EEPROM_Write+0x64>)
 80030d6:	0082      	lsls	r2, r0, #2
 80030d8:	58d2      	ldr	r2, [r2, r3]
  uint32_t endAddr = pageAddress[activePage] + PAGE_SIZE - PAGE_DATA_SIZE;
 80030da:	21fe      	movs	r1, #254	@ 0xfe
  uint32_t startAddr = pageAddress[activePage] + PAGE_DATA_OFFSET;
 80030dc:	0013      	movs	r3, r2
  uint32_t endAddr = pageAddress[activePage] + PAGE_SIZE - PAGE_DATA_SIZE;
 80030de:	0089      	lsls	r1, r1, #2
  uint32_t startAddr = pageAddress[activePage] + PAGE_DATA_OFFSET;
 80030e0:	3308      	adds	r3, #8
  uint32_t endAddr = pageAddress[activePage] + PAGE_SIZE - PAGE_DATA_SIZE;
 80030e2:	1852      	adds	r2, r2, r1
  while (addr <= endAddr)
 80030e4:	4293      	cmp	r3, r2
 80030e6:	d904      	bls.n	80030f2 <EEPROM_Write+0x46>
    res = EEPROM_PageTransfer(activePage, varId, varValue);
 80030e8:	002a      	movs	r2, r5
 80030ea:	0021      	movs	r1, r4
 80030ec:	f7ff ff4e 	bl	8002f8c <EEPROM_PageTransfer>
 80030f0:	e009      	b.n	8003106 <EEPROM_Write+0x5a>
  return (*(__IO uint32_t*)address);
 80030f2:	6819      	ldr	r1, [r3, #0]
    if (idData == 0xFFFFFFFF)
 80030f4:	3101      	adds	r1, #1
 80030f6:	d001      	beq.n	80030fc <EEPROM_Write+0x50>
      addr += PAGE_DATA_SIZE;
 80030f8:	3308      	adds	r3, #8
 80030fa:	e7f3      	b.n	80030e4 <EEPROM_Write+0x38>
    res = EEPROM_WriteData(addr, varId, varValue);
 80030fc:	002a      	movs	r2, r5
 80030fe:	0021      	movs	r1, r4
 8003100:	0018      	movs	r0, r3
 8003102:	f7ff feb3 	bl	8002e6c <EEPROM_WriteData>
}
 8003106:	bd3e      	pop	{r1, r2, r3, r4, r5, pc}
 8003108:	12121212 	.word	0x12121212
 800310c:	34343434 	.word	0x34343434
 8003110:	08003fb0 	.word	0x08003fb0

08003114 <EEPROM_Init>:
  return (*(__IO uint32_t*)address);
 8003114:	4b1d      	ldr	r3, [pc, #116]	@ (800318c <EEPROM_Init+0x78>)



/******************************************************************************/
EepromResult EEPROM_Init()
{
 8003116:	b570      	push	{r4, r5, r6, lr}
  return (*(__IO uint32_t*)address);
 8003118:	681d      	ldr	r5, [r3, #0]
 800311a:	4b1d      	ldr	r3, [pc, #116]	@ (8003190 <EEPROM_Init+0x7c>)
 800311c:	681c      	ldr	r4, [r3, #0]
  for (uint8_t i = 0; i < PAGES_NUM; i++)
  {
    pageStates[i] = EEPROM_ReadPageState((PageIdx)i);
  }
  
  if (((pageStates[PAGE_0] == PAGE_CLEARED) && (pageStates[PAGE_1] == PAGE_CLEARED)) ||
 800311e:	1c6b      	adds	r3, r5, #1
 8003120:	d114      	bne.n	800314c <EEPROM_Init+0x38>
 8003122:	2000      	movs	r0, #0
 8003124:	1c63      	adds	r3, r4, #1
 8003126:	d10b      	bne.n	8003140 <EEPROM_Init+0x2c>
      ((pageStates[PAGE_0] == PAGE_ACTIVE) && (pageStates[PAGE_1] == PAGE_ACTIVE)) || 
      ((pageStates[PAGE_0] == PAGE_RECEIVING_DATA) && (pageStates[PAGE_1] == PAGE_RECEIVING_DATA)))
  {
    res = EEPROM_Format();
 8003128:	f7ff feec 	bl	8002f04 <EEPROM_Format>
    
    if (res != EEPROM_OK)
 800312c:	2800      	cmp	r0, #0
 800312e:	d124      	bne.n	800317a <EEPROM_Init+0x66>
    {
      return res;
    }
  
    res = EEPROM_SetPageState(PAGE_0, PAGE_ACTIVE);
 8003130:	0001      	movs	r1, r0
 8003132:	f7ff feaf 	bl	8002e94 <EEPROM_SetPageState>
  }
  
  if ((pageStates[PAGE_0] == PAGE_RECEIVING_DATA) && (pageStates[PAGE_1] == PAGE_CLEARED))
 8003136:	4b17      	ldr	r3, [pc, #92]	@ (8003194 <EEPROM_Init+0x80>)
 8003138:	429d      	cmp	r5, r3
 800313a:	d018      	beq.n	800316e <EEPROM_Init+0x5a>
  {
    res = EEPROM_SetPageState(PAGE_0, PAGE_ACTIVE);
  }
  
  if ((pageStates[PAGE_0] == PAGE_CLEARED) && (pageStates[PAGE_1] == PAGE_RECEIVING_DATA))
 800313c:	3501      	adds	r5, #1
 800313e:	d10a      	bne.n	8003156 <EEPROM_Init+0x42>
 8003140:	4b14      	ldr	r3, [pc, #80]	@ (8003194 <EEPROM_Init+0x80>)
 8003142:	429c      	cmp	r4, r3
 8003144:	d119      	bne.n	800317a <EEPROM_Init+0x66>
  {
    res = EEPROM_SetPageState(PAGE_1, PAGE_ACTIVE);
 8003146:	2100      	movs	r1, #0
 8003148:	2001      	movs	r0, #1
 800314a:	e014      	b.n	8003176 <EEPROM_Init+0x62>
  if (((pageStates[PAGE_0] == PAGE_CLEARED) && (pageStates[PAGE_1] == PAGE_CLEARED)) ||
 800314c:	2d00      	cmp	r5, #0
 800314e:	d108      	bne.n	8003162 <EEPROM_Init+0x4e>
 8003150:	0028      	movs	r0, r5
      ((pageStates[PAGE_0] == PAGE_ACTIVE) && (pageStates[PAGE_1] == PAGE_ACTIVE)) || 
 8003152:	2c00      	cmp	r4, #0
 8003154:	d0e8      	beq.n	8003128 <EEPROM_Init+0x14>
  if ((pageStates[PAGE_0] == PAGE_RECEIVING_DATA) && (pageStates[PAGE_1] == PAGE_ACTIVE))
  {
    res = EEPROM_CopyPageData(PAGE_1, PAGE_0);
  }
  
  if ((pageStates[PAGE_0] == PAGE_ACTIVE) && (pageStates[PAGE_1] == PAGE_RECEIVING_DATA))
 8003156:	4b0f      	ldr	r3, [pc, #60]	@ (8003194 <EEPROM_Init+0x80>)
 8003158:	429c      	cmp	r4, r3
 800315a:	d10e      	bne.n	800317a <EEPROM_Init+0x66>
  {
    res = EEPROM_CopyPageData(PAGE_0, PAGE_1);
 800315c:	2101      	movs	r1, #1
 800315e:	2000      	movs	r0, #0
 8003160:	e010      	b.n	8003184 <EEPROM_Init+0x70>
      ((pageStates[PAGE_0] == PAGE_ACTIVE) && (pageStates[PAGE_1] == PAGE_ACTIVE)) || 
 8003162:	4b0c      	ldr	r3, [pc, #48]	@ (8003194 <EEPROM_Init+0x80>)
 8003164:	2000      	movs	r0, #0
 8003166:	429d      	cmp	r5, r3
 8003168:	d107      	bne.n	800317a <EEPROM_Init+0x66>
      ((pageStates[PAGE_0] == PAGE_RECEIVING_DATA) && (pageStates[PAGE_1] == PAGE_RECEIVING_DATA)))
 800316a:	42ac      	cmp	r4, r5
 800316c:	d0dc      	beq.n	8003128 <EEPROM_Init+0x14>
  if ((pageStates[PAGE_0] == PAGE_RECEIVING_DATA) && (pageStates[PAGE_1] == PAGE_CLEARED))
 800316e:	1c63      	adds	r3, r4, #1
 8003170:	d104      	bne.n	800317c <EEPROM_Init+0x68>
    res = EEPROM_SetPageState(PAGE_0, PAGE_ACTIVE);
 8003172:	2100      	movs	r1, #0
 8003174:	0008      	movs	r0, r1
    res = EEPROM_SetPageState(PAGE_1, PAGE_ACTIVE);
 8003176:	f7ff fe8d 	bl	8002e94 <EEPROM_SetPageState>
  }
  
  return res;
}
 800317a:	bd70      	pop	{r4, r5, r6, pc}
  if ((pageStates[PAGE_0] == PAGE_RECEIVING_DATA) && (pageStates[PAGE_1] == PAGE_ACTIVE))
 800317c:	2c00      	cmp	r4, #0
 800317e:	d1fc      	bne.n	800317a <EEPROM_Init+0x66>
    res = EEPROM_CopyPageData(PAGE_1, PAGE_0);
 8003180:	0021      	movs	r1, r4
 8003182:	2001      	movs	r0, #1
    res = EEPROM_CopyPageData(PAGE_0, PAGE_1);
 8003184:	f7ff ff58 	bl	8003038 <EEPROM_CopyPageData>
 8003188:	e7f7      	b.n	800317a <EEPROM_Init+0x66>
 800318a:	46c0      	nop			@ (mov r8, r8)
 800318c:	08007800 	.word	0x08007800
 8003190:	08007c00 	.word	0x08007c00
 8003194:	55555555 	.word	0x55555555

08003198 <logger_uart>:

extern UART_HandleTypeDef huart2;


void logger_uart(const char* msg, ...)
{
 8003198:	b40f      	push	{r0, r1, r2, r3}
	    char buff[256];
	    va_list args;
	    va_start(args, msg);
	    vsnprintf(buff, sizeof(buff), msg, args);
 800319a:	2180      	movs	r1, #128	@ 0x80
{
 800319c:	b500      	push	{lr}
 800319e:	b0c3      	sub	sp, #268	@ 0x10c
 80031a0:	ab44      	add	r3, sp, #272	@ 0x110
 80031a2:	cb04      	ldmia	r3!, {r2}
	    vsnprintf(buff, sizeof(buff), msg, args);
 80031a4:	0049      	lsls	r1, r1, #1
 80031a6:	a802      	add	r0, sp, #8
	    va_start(args, msg);
 80031a8:	9301      	str	r3, [sp, #4]
	    vsnprintf(buff, sizeof(buff), msg, args);
 80031aa:	f000 f8ad 	bl	8003308 <vsniprintf>
	    HAL_UART_Transmit(&huart2, (uint8_t*)buff, strlen((char *)buff), HAL_MAX_DELAY);
 80031ae:	a802      	add	r0, sp, #8
 80031b0:	f7fc ffaa 	bl	8000108 <strlen>
 80031b4:	2301      	movs	r3, #1
 80031b6:	b282      	uxth	r2, r0
 80031b8:	425b      	negs	r3, r3
 80031ba:	a902      	add	r1, sp, #8
 80031bc:	4803      	ldr	r0, [pc, #12]	@ (80031cc <logger_uart+0x34>)
 80031be:	f7ff fc1b 	bl	80029f8 <HAL_UART_Transmit>
	    va_end(args);
}
 80031c2:	b043      	add	sp, #268	@ 0x10c
 80031c4:	bc08      	pop	{r3}
 80031c6:	b004      	add	sp, #16
 80031c8:	4718      	bx	r3
 80031ca:	46c0      	nop			@ (mov r8, r8)
 80031cc:	200001c4 	.word	0x200001c4

080031d0 <Logger_CAN_RX>:


void Logger_CAN_RX( uint8_t logging, CAN_RX_FRAME_t _RxMsg_)
{
 80031d0:	b084      	sub	sp, #16
 80031d2:	b5f0      	push	{r4, r5, r6, r7, lr}
 80031d4:	b089      	sub	sp, #36	@ 0x24
 80031d6:	0004      	movs	r4, r0
 80031d8:	910f      	str	r1, [sp, #60]	@ 0x3c
 80031da:	a80f      	add	r0, sp, #60	@ 0x3c
 80031dc:	9210      	str	r2, [sp, #64]	@ 0x40
 80031de:	9311      	str	r3, [sp, #68]	@ 0x44
if (logging == YES)
 80031e0:	2c01      	cmp	r4, #1
 80031e2:	d115      	bne.n	8003210 <Logger_CAN_RX+0x40>
 80031e4:	7a87      	ldrb	r7, [r0, #10]
 80031e6:	7942      	ldrb	r2, [r0, #5]
 80031e8:	7983      	ldrb	r3, [r0, #6]
 80031ea:	79c4      	ldrb	r4, [r0, #7]
 80031ec:	7a05      	ldrb	r5, [r0, #8]
 80031ee:	7a46      	ldrb	r6, [r0, #9]
 80031f0:	9706      	str	r7, [sp, #24]
 80031f2:	7ac7      	ldrb	r7, [r0, #11]
 80031f4:	9707      	str	r7, [sp, #28]
  {
			switch(_RxMsg_.anz_bytes)
 80031f6:	7900      	ldrb	r0, [r0, #4]
 80031f8:	3801      	subs	r0, #1
 80031fa:	2807      	cmp	r0, #7
 80031fc:	d808      	bhi.n	8003210 <Logger_CAN_RX+0x40>
 80031fe:	f7fc ff8b 	bl	8000118 <__gnu_thumb1_case_uqi>
 8003202:	0c04      	.short	0x0c04
 8003204:	221b1510 	.word	0x221b1510
 8003208:	362b      	.short	0x362b
				{
					case 1: logger_uart("<-- [%03X] %02X\n\r",  _RxMsg_.can_id,_RxMsg_.data[0]); break;
 800320a:	4820      	ldr	r0, [pc, #128]	@ (800328c <Logger_CAN_RX+0xbc>)
 800320c:	f7ff ffc4 	bl	8003198 <logger_uart>
					case 6: logger_uart("<-- [%03X] %02X %02X %02X %02X %02X %02X\n\r",  _RxMsg_.can_id,_RxMsg_.data[0],_RxMsg_.data[1],_RxMsg_.data[2],_RxMsg_.data[3], _RxMsg_.data[4],_RxMsg_.data[5]); break;
					case 7: logger_uart("<-- [%03X] %02X %02X %02X %02X %02X %02X %02X\n\r",  _RxMsg_.can_id,_RxMsg_.data[0],_RxMsg_.data[1],_RxMsg_.data[2],_RxMsg_.data[3], _RxMsg_.data[4],_RxMsg_.data[5],_RxMsg_.data[6]); break;
					case 8: logger_uart("<-- [%03X] %02X %02X %02X %02X %02X %02X %02X %02X\n\r",  _RxMsg_.can_id,_RxMsg_.data[0],_RxMsg_.data[1],_RxMsg_.data[2],_RxMsg_.data[3], _RxMsg_.data[4],_RxMsg_.data[5],_RxMsg_.data[6],_RxMsg_.data[7]); break;
				}
  }
}
 8003210:	b009      	add	sp, #36	@ 0x24
 8003212:	bcf0      	pop	{r4, r5, r6, r7}
 8003214:	bc08      	pop	{r3}
 8003216:	b004      	add	sp, #16
 8003218:	4718      	bx	r3
					case 2: logger_uart("<-- [%03X] %02X %02X\n\r",  _RxMsg_.can_id,_RxMsg_.data[0],_RxMsg_.data[1]); break;
 800321a:	481d      	ldr	r0, [pc, #116]	@ (8003290 <Logger_CAN_RX+0xc0>)
 800321c:	f7ff ffbc 	bl	8003198 <logger_uart>
 8003220:	e7f6      	b.n	8003210 <Logger_CAN_RX+0x40>
					case 3: logger_uart("<-- [%03X] %02X %02X %02X\n\r",  _RxMsg_.can_id,_RxMsg_.data[0],_RxMsg_.data[1],_RxMsg_.data[2]); break;
 8003222:	481c      	ldr	r0, [pc, #112]	@ (8003294 <Logger_CAN_RX+0xc4>)
 8003224:	9400      	str	r4, [sp, #0]
 8003226:	f7ff ffb7 	bl	8003198 <logger_uart>
 800322a:	e7f1      	b.n	8003210 <Logger_CAN_RX+0x40>
					case 4: logger_uart("<-- [%03X] %02X %02X %02X %02X\n\r",  _RxMsg_.can_id,_RxMsg_.data[0],_RxMsg_.data[1],_RxMsg_.data[2],_RxMsg_.data[3]); break;
 800322c:	481a      	ldr	r0, [pc, #104]	@ (8003298 <Logger_CAN_RX+0xc8>)
 800322e:	9501      	str	r5, [sp, #4]
 8003230:	9400      	str	r4, [sp, #0]
 8003232:	f7ff ffb1 	bl	8003198 <logger_uart>
 8003236:	e7eb      	b.n	8003210 <Logger_CAN_RX+0x40>
					case 5: logger_uart("<-- [%03X] %02X %02X %02X %02X %02X\n\r",  _RxMsg_.can_id,_RxMsg_.data[0],_RxMsg_.data[1],_RxMsg_.data[2],_RxMsg_.data[3], _RxMsg_.data[4]); break;
 8003238:	4818      	ldr	r0, [pc, #96]	@ (800329c <Logger_CAN_RX+0xcc>)
 800323a:	9602      	str	r6, [sp, #8]
 800323c:	9501      	str	r5, [sp, #4]
 800323e:	9400      	str	r4, [sp, #0]
 8003240:	f7ff ffaa 	bl	8003198 <logger_uart>
 8003244:	e7e4      	b.n	8003210 <Logger_CAN_RX+0x40>
					case 6: logger_uart("<-- [%03X] %02X %02X %02X %02X %02X %02X\n\r",  _RxMsg_.can_id,_RxMsg_.data[0],_RxMsg_.data[1],_RxMsg_.data[2],_RxMsg_.data[3], _RxMsg_.data[4],_RxMsg_.data[5]); break;
 8003246:	9f06      	ldr	r7, [sp, #24]
 8003248:	4815      	ldr	r0, [pc, #84]	@ (80032a0 <Logger_CAN_RX+0xd0>)
 800324a:	9703      	str	r7, [sp, #12]
 800324c:	9602      	str	r6, [sp, #8]
 800324e:	9501      	str	r5, [sp, #4]
 8003250:	9400      	str	r4, [sp, #0]
 8003252:	f7ff ffa1 	bl	8003198 <logger_uart>
 8003256:	e7db      	b.n	8003210 <Logger_CAN_RX+0x40>
					case 7: logger_uart("<-- [%03X] %02X %02X %02X %02X %02X %02X %02X\n\r",  _RxMsg_.can_id,_RxMsg_.data[0],_RxMsg_.data[1],_RxMsg_.data[2],_RxMsg_.data[3], _RxMsg_.data[4],_RxMsg_.data[5],_RxMsg_.data[6]); break;
 8003258:	9f07      	ldr	r7, [sp, #28]
 800325a:	4812      	ldr	r0, [pc, #72]	@ (80032a4 <Logger_CAN_RX+0xd4>)
 800325c:	9704      	str	r7, [sp, #16]
 800325e:	9f06      	ldr	r7, [sp, #24]
 8003260:	9602      	str	r6, [sp, #8]
 8003262:	9703      	str	r7, [sp, #12]
 8003264:	9501      	str	r5, [sp, #4]
 8003266:	9400      	str	r4, [sp, #0]
 8003268:	f7ff ff96 	bl	8003198 <logger_uart>
 800326c:	e7d0      	b.n	8003210 <Logger_CAN_RX+0x40>
					case 8: logger_uart("<-- [%03X] %02X %02X %02X %02X %02X %02X %02X %02X\n\r",  _RxMsg_.can_id,_RxMsg_.data[0],_RxMsg_.data[1],_RxMsg_.data[2],_RxMsg_.data[3], _RxMsg_.data[4],_RxMsg_.data[5],_RxMsg_.data[6],_RxMsg_.data[7]); break;
 800326e:	af0f      	add	r7, sp, #60	@ 0x3c
 8003270:	7b3f      	ldrb	r7, [r7, #12]
 8003272:	480d      	ldr	r0, [pc, #52]	@ (80032a8 <Logger_CAN_RX+0xd8>)
 8003274:	9705      	str	r7, [sp, #20]
 8003276:	9f07      	ldr	r7, [sp, #28]
 8003278:	9602      	str	r6, [sp, #8]
 800327a:	9704      	str	r7, [sp, #16]
 800327c:	9f06      	ldr	r7, [sp, #24]
 800327e:	9501      	str	r5, [sp, #4]
 8003280:	9703      	str	r7, [sp, #12]
 8003282:	9400      	str	r4, [sp, #0]
 8003284:	f7ff ff88 	bl	8003198 <logger_uart>
}
 8003288:	e7c2      	b.n	8003210 <Logger_CAN_RX+0x40>
 800328a:	46c0      	nop			@ (mov r8, r8)
 800328c:	08003e23 	.word	0x08003e23
 8003290:	08003e35 	.word	0x08003e35
 8003294:	08003e4c 	.word	0x08003e4c
 8003298:	08003e68 	.word	0x08003e68
 800329c:	08003e89 	.word	0x08003e89
 80032a0:	08003eaf 	.word	0x08003eaf
 80032a4:	08003eda 	.word	0x08003eda
 80032a8:	08003f0a 	.word	0x08003f0a

080032ac <_vsniprintf_r>:
 80032ac:	b530      	push	{r4, r5, lr}
 80032ae:	0005      	movs	r5, r0
 80032b0:	0014      	movs	r4, r2
 80032b2:	0008      	movs	r0, r1
 80032b4:	001a      	movs	r2, r3
 80032b6:	b09b      	sub	sp, #108	@ 0x6c
 80032b8:	2c00      	cmp	r4, #0
 80032ba:	da05      	bge.n	80032c8 <_vsniprintf_r+0x1c>
 80032bc:	238b      	movs	r3, #139	@ 0x8b
 80032be:	2001      	movs	r0, #1
 80032c0:	602b      	str	r3, [r5, #0]
 80032c2:	4240      	negs	r0, r0
 80032c4:	b01b      	add	sp, #108	@ 0x6c
 80032c6:	bd30      	pop	{r4, r5, pc}
 80032c8:	2382      	movs	r3, #130	@ 0x82
 80032ca:	4669      	mov	r1, sp
 80032cc:	009b      	lsls	r3, r3, #2
 80032ce:	818b      	strh	r3, [r1, #12]
 80032d0:	2100      	movs	r1, #0
 80032d2:	9000      	str	r0, [sp, #0]
 80032d4:	9119      	str	r1, [sp, #100]	@ 0x64
 80032d6:	9004      	str	r0, [sp, #16]
 80032d8:	428c      	cmp	r4, r1
 80032da:	d000      	beq.n	80032de <_vsniprintf_r+0x32>
 80032dc:	1e61      	subs	r1, r4, #1
 80032de:	2301      	movs	r3, #1
 80032e0:	9102      	str	r1, [sp, #8]
 80032e2:	9105      	str	r1, [sp, #20]
 80032e4:	4669      	mov	r1, sp
 80032e6:	425b      	negs	r3, r3
 80032e8:	81cb      	strh	r3, [r1, #14]
 80032ea:	0028      	movs	r0, r5
 80032ec:	9b1e      	ldr	r3, [sp, #120]	@ 0x78
 80032ee:	f000 f9a7 	bl	8003640 <_svfiprintf_r>
 80032f2:	1c43      	adds	r3, r0, #1
 80032f4:	da01      	bge.n	80032fa <_vsniprintf_r+0x4e>
 80032f6:	238b      	movs	r3, #139	@ 0x8b
 80032f8:	602b      	str	r3, [r5, #0]
 80032fa:	2c00      	cmp	r4, #0
 80032fc:	d0e2      	beq.n	80032c4 <_vsniprintf_r+0x18>
 80032fe:	2200      	movs	r2, #0
 8003300:	9b00      	ldr	r3, [sp, #0]
 8003302:	701a      	strb	r2, [r3, #0]
 8003304:	e7de      	b.n	80032c4 <_vsniprintf_r+0x18>
	...

08003308 <vsniprintf>:
 8003308:	b513      	push	{r0, r1, r4, lr}
 800330a:	4c04      	ldr	r4, [pc, #16]	@ (800331c <vsniprintf+0x14>)
 800330c:	9300      	str	r3, [sp, #0]
 800330e:	0013      	movs	r3, r2
 8003310:	000a      	movs	r2, r1
 8003312:	0001      	movs	r1, r0
 8003314:	6820      	ldr	r0, [r4, #0]
 8003316:	f7ff ffc9 	bl	80032ac <_vsniprintf_r>
 800331a:	bd16      	pop	{r1, r2, r4, pc}
 800331c:	20000010 	.word	0x20000010

08003320 <memset>:
 8003320:	0003      	movs	r3, r0
 8003322:	1882      	adds	r2, r0, r2
 8003324:	4293      	cmp	r3, r2
 8003326:	d100      	bne.n	800332a <memset+0xa>
 8003328:	4770      	bx	lr
 800332a:	7019      	strb	r1, [r3, #0]
 800332c:	3301      	adds	r3, #1
 800332e:	e7f9      	b.n	8003324 <memset+0x4>

08003330 <__errno>:
 8003330:	4b01      	ldr	r3, [pc, #4]	@ (8003338 <__errno+0x8>)
 8003332:	6818      	ldr	r0, [r3, #0]
 8003334:	4770      	bx	lr
 8003336:	46c0      	nop			@ (mov r8, r8)
 8003338:	20000010 	.word	0x20000010

0800333c <__libc_init_array>:
 800333c:	b570      	push	{r4, r5, r6, lr}
 800333e:	2600      	movs	r6, #0
 8003340:	4c0c      	ldr	r4, [pc, #48]	@ (8003374 <__libc_init_array+0x38>)
 8003342:	4d0d      	ldr	r5, [pc, #52]	@ (8003378 <__libc_init_array+0x3c>)
 8003344:	1b64      	subs	r4, r4, r5
 8003346:	10a4      	asrs	r4, r4, #2
 8003348:	42a6      	cmp	r6, r4
 800334a:	d109      	bne.n	8003360 <__libc_init_array+0x24>
 800334c:	2600      	movs	r6, #0
 800334e:	f000 fc61 	bl	8003c14 <_init>
 8003352:	4c0a      	ldr	r4, [pc, #40]	@ (800337c <__libc_init_array+0x40>)
 8003354:	4d0a      	ldr	r5, [pc, #40]	@ (8003380 <__libc_init_array+0x44>)
 8003356:	1b64      	subs	r4, r4, r5
 8003358:	10a4      	asrs	r4, r4, #2
 800335a:	42a6      	cmp	r6, r4
 800335c:	d105      	bne.n	800336a <__libc_init_array+0x2e>
 800335e:	bd70      	pop	{r4, r5, r6, pc}
 8003360:	00b3      	lsls	r3, r6, #2
 8003362:	58eb      	ldr	r3, [r5, r3]
 8003364:	4798      	blx	r3
 8003366:	3601      	adds	r6, #1
 8003368:	e7ee      	b.n	8003348 <__libc_init_array+0xc>
 800336a:	00b3      	lsls	r3, r6, #2
 800336c:	58eb      	ldr	r3, [r5, r3]
 800336e:	4798      	blx	r3
 8003370:	3601      	adds	r6, #1
 8003372:	e7f2      	b.n	800335a <__libc_init_array+0x1e>
 8003374:	08003fb8 	.word	0x08003fb8
 8003378:	08003fb8 	.word	0x08003fb8
 800337c:	08003fbc 	.word	0x08003fbc
 8003380:	08003fb8 	.word	0x08003fb8

08003384 <__retarget_lock_acquire_recursive>:
 8003384:	4770      	bx	lr

08003386 <__retarget_lock_release_recursive>:
 8003386:	4770      	bx	lr

08003388 <_free_r>:
 8003388:	b570      	push	{r4, r5, r6, lr}
 800338a:	0005      	movs	r5, r0
 800338c:	1e0c      	subs	r4, r1, #0
 800338e:	d010      	beq.n	80033b2 <_free_r+0x2a>
 8003390:	3c04      	subs	r4, #4
 8003392:	6823      	ldr	r3, [r4, #0]
 8003394:	2b00      	cmp	r3, #0
 8003396:	da00      	bge.n	800339a <_free_r+0x12>
 8003398:	18e4      	adds	r4, r4, r3
 800339a:	0028      	movs	r0, r5
 800339c:	f000 f8e0 	bl	8003560 <__malloc_lock>
 80033a0:	4a1d      	ldr	r2, [pc, #116]	@ (8003418 <_free_r+0x90>)
 80033a2:	6813      	ldr	r3, [r2, #0]
 80033a4:	2b00      	cmp	r3, #0
 80033a6:	d105      	bne.n	80033b4 <_free_r+0x2c>
 80033a8:	6063      	str	r3, [r4, #4]
 80033aa:	6014      	str	r4, [r2, #0]
 80033ac:	0028      	movs	r0, r5
 80033ae:	f000 f8df 	bl	8003570 <__malloc_unlock>
 80033b2:	bd70      	pop	{r4, r5, r6, pc}
 80033b4:	42a3      	cmp	r3, r4
 80033b6:	d908      	bls.n	80033ca <_free_r+0x42>
 80033b8:	6820      	ldr	r0, [r4, #0]
 80033ba:	1821      	adds	r1, r4, r0
 80033bc:	428b      	cmp	r3, r1
 80033be:	d1f3      	bne.n	80033a8 <_free_r+0x20>
 80033c0:	6819      	ldr	r1, [r3, #0]
 80033c2:	685b      	ldr	r3, [r3, #4]
 80033c4:	1809      	adds	r1, r1, r0
 80033c6:	6021      	str	r1, [r4, #0]
 80033c8:	e7ee      	b.n	80033a8 <_free_r+0x20>
 80033ca:	001a      	movs	r2, r3
 80033cc:	685b      	ldr	r3, [r3, #4]
 80033ce:	2b00      	cmp	r3, #0
 80033d0:	d001      	beq.n	80033d6 <_free_r+0x4e>
 80033d2:	42a3      	cmp	r3, r4
 80033d4:	d9f9      	bls.n	80033ca <_free_r+0x42>
 80033d6:	6811      	ldr	r1, [r2, #0]
 80033d8:	1850      	adds	r0, r2, r1
 80033da:	42a0      	cmp	r0, r4
 80033dc:	d10b      	bne.n	80033f6 <_free_r+0x6e>
 80033de:	6820      	ldr	r0, [r4, #0]
 80033e0:	1809      	adds	r1, r1, r0
 80033e2:	1850      	adds	r0, r2, r1
 80033e4:	6011      	str	r1, [r2, #0]
 80033e6:	4283      	cmp	r3, r0
 80033e8:	d1e0      	bne.n	80033ac <_free_r+0x24>
 80033ea:	6818      	ldr	r0, [r3, #0]
 80033ec:	685b      	ldr	r3, [r3, #4]
 80033ee:	1841      	adds	r1, r0, r1
 80033f0:	6011      	str	r1, [r2, #0]
 80033f2:	6053      	str	r3, [r2, #4]
 80033f4:	e7da      	b.n	80033ac <_free_r+0x24>
 80033f6:	42a0      	cmp	r0, r4
 80033f8:	d902      	bls.n	8003400 <_free_r+0x78>
 80033fa:	230c      	movs	r3, #12
 80033fc:	602b      	str	r3, [r5, #0]
 80033fe:	e7d5      	b.n	80033ac <_free_r+0x24>
 8003400:	6820      	ldr	r0, [r4, #0]
 8003402:	1821      	adds	r1, r4, r0
 8003404:	428b      	cmp	r3, r1
 8003406:	d103      	bne.n	8003410 <_free_r+0x88>
 8003408:	6819      	ldr	r1, [r3, #0]
 800340a:	685b      	ldr	r3, [r3, #4]
 800340c:	1809      	adds	r1, r1, r0
 800340e:	6021      	str	r1, [r4, #0]
 8003410:	6063      	str	r3, [r4, #4]
 8003412:	6054      	str	r4, [r2, #4]
 8003414:	e7ca      	b.n	80033ac <_free_r+0x24>
 8003416:	46c0      	nop			@ (mov r8, r8)
 8003418:	20000418 	.word	0x20000418

0800341c <sbrk_aligned>:
 800341c:	b570      	push	{r4, r5, r6, lr}
 800341e:	4e0f      	ldr	r6, [pc, #60]	@ (800345c <sbrk_aligned+0x40>)
 8003420:	000d      	movs	r5, r1
 8003422:	6831      	ldr	r1, [r6, #0]
 8003424:	0004      	movs	r4, r0
 8003426:	2900      	cmp	r1, #0
 8003428:	d102      	bne.n	8003430 <sbrk_aligned+0x14>
 800342a:	f000 fb95 	bl	8003b58 <_sbrk_r>
 800342e:	6030      	str	r0, [r6, #0]
 8003430:	0029      	movs	r1, r5
 8003432:	0020      	movs	r0, r4
 8003434:	f000 fb90 	bl	8003b58 <_sbrk_r>
 8003438:	1c43      	adds	r3, r0, #1
 800343a:	d103      	bne.n	8003444 <sbrk_aligned+0x28>
 800343c:	2501      	movs	r5, #1
 800343e:	426d      	negs	r5, r5
 8003440:	0028      	movs	r0, r5
 8003442:	bd70      	pop	{r4, r5, r6, pc}
 8003444:	2303      	movs	r3, #3
 8003446:	1cc5      	adds	r5, r0, #3
 8003448:	439d      	bics	r5, r3
 800344a:	42a8      	cmp	r0, r5
 800344c:	d0f8      	beq.n	8003440 <sbrk_aligned+0x24>
 800344e:	1a29      	subs	r1, r5, r0
 8003450:	0020      	movs	r0, r4
 8003452:	f000 fb81 	bl	8003b58 <_sbrk_r>
 8003456:	3001      	adds	r0, #1
 8003458:	d1f2      	bne.n	8003440 <sbrk_aligned+0x24>
 800345a:	e7ef      	b.n	800343c <sbrk_aligned+0x20>
 800345c:	20000414 	.word	0x20000414

08003460 <_malloc_r>:
 8003460:	b5f7      	push	{r0, r1, r2, r4, r5, r6, r7, lr}
 8003462:	2203      	movs	r2, #3
 8003464:	1ccb      	adds	r3, r1, #3
 8003466:	4393      	bics	r3, r2
 8003468:	3308      	adds	r3, #8
 800346a:	0005      	movs	r5, r0
 800346c:	001f      	movs	r7, r3
 800346e:	2b0c      	cmp	r3, #12
 8003470:	d234      	bcs.n	80034dc <_malloc_r+0x7c>
 8003472:	270c      	movs	r7, #12
 8003474:	42b9      	cmp	r1, r7
 8003476:	d833      	bhi.n	80034e0 <_malloc_r+0x80>
 8003478:	0028      	movs	r0, r5
 800347a:	f000 f871 	bl	8003560 <__malloc_lock>
 800347e:	4e37      	ldr	r6, [pc, #220]	@ (800355c <_malloc_r+0xfc>)
 8003480:	6833      	ldr	r3, [r6, #0]
 8003482:	001c      	movs	r4, r3
 8003484:	2c00      	cmp	r4, #0
 8003486:	d12f      	bne.n	80034e8 <_malloc_r+0x88>
 8003488:	0039      	movs	r1, r7
 800348a:	0028      	movs	r0, r5
 800348c:	f7ff ffc6 	bl	800341c <sbrk_aligned>
 8003490:	0004      	movs	r4, r0
 8003492:	1c43      	adds	r3, r0, #1
 8003494:	d15f      	bne.n	8003556 <_malloc_r+0xf6>
 8003496:	6834      	ldr	r4, [r6, #0]
 8003498:	9400      	str	r4, [sp, #0]
 800349a:	9b00      	ldr	r3, [sp, #0]
 800349c:	2b00      	cmp	r3, #0
 800349e:	d14a      	bne.n	8003536 <_malloc_r+0xd6>
 80034a0:	2c00      	cmp	r4, #0
 80034a2:	d052      	beq.n	800354a <_malloc_r+0xea>
 80034a4:	6823      	ldr	r3, [r4, #0]
 80034a6:	0028      	movs	r0, r5
 80034a8:	18e3      	adds	r3, r4, r3
 80034aa:	9900      	ldr	r1, [sp, #0]
 80034ac:	9301      	str	r3, [sp, #4]
 80034ae:	f000 fb53 	bl	8003b58 <_sbrk_r>
 80034b2:	9b01      	ldr	r3, [sp, #4]
 80034b4:	4283      	cmp	r3, r0
 80034b6:	d148      	bne.n	800354a <_malloc_r+0xea>
 80034b8:	6823      	ldr	r3, [r4, #0]
 80034ba:	0028      	movs	r0, r5
 80034bc:	1aff      	subs	r7, r7, r3
 80034be:	0039      	movs	r1, r7
 80034c0:	f7ff ffac 	bl	800341c <sbrk_aligned>
 80034c4:	3001      	adds	r0, #1
 80034c6:	d040      	beq.n	800354a <_malloc_r+0xea>
 80034c8:	6823      	ldr	r3, [r4, #0]
 80034ca:	19db      	adds	r3, r3, r7
 80034cc:	6023      	str	r3, [r4, #0]
 80034ce:	6833      	ldr	r3, [r6, #0]
 80034d0:	685a      	ldr	r2, [r3, #4]
 80034d2:	2a00      	cmp	r2, #0
 80034d4:	d133      	bne.n	800353e <_malloc_r+0xde>
 80034d6:	9b00      	ldr	r3, [sp, #0]
 80034d8:	6033      	str	r3, [r6, #0]
 80034da:	e019      	b.n	8003510 <_malloc_r+0xb0>
 80034dc:	2b00      	cmp	r3, #0
 80034de:	dac9      	bge.n	8003474 <_malloc_r+0x14>
 80034e0:	230c      	movs	r3, #12
 80034e2:	602b      	str	r3, [r5, #0]
 80034e4:	2000      	movs	r0, #0
 80034e6:	bdfe      	pop	{r1, r2, r3, r4, r5, r6, r7, pc}
 80034e8:	6821      	ldr	r1, [r4, #0]
 80034ea:	1bc9      	subs	r1, r1, r7
 80034ec:	d420      	bmi.n	8003530 <_malloc_r+0xd0>
 80034ee:	290b      	cmp	r1, #11
 80034f0:	d90a      	bls.n	8003508 <_malloc_r+0xa8>
 80034f2:	19e2      	adds	r2, r4, r7
 80034f4:	6027      	str	r7, [r4, #0]
 80034f6:	42a3      	cmp	r3, r4
 80034f8:	d104      	bne.n	8003504 <_malloc_r+0xa4>
 80034fa:	6032      	str	r2, [r6, #0]
 80034fc:	6863      	ldr	r3, [r4, #4]
 80034fe:	6011      	str	r1, [r2, #0]
 8003500:	6053      	str	r3, [r2, #4]
 8003502:	e005      	b.n	8003510 <_malloc_r+0xb0>
 8003504:	605a      	str	r2, [r3, #4]
 8003506:	e7f9      	b.n	80034fc <_malloc_r+0x9c>
 8003508:	6862      	ldr	r2, [r4, #4]
 800350a:	42a3      	cmp	r3, r4
 800350c:	d10e      	bne.n	800352c <_malloc_r+0xcc>
 800350e:	6032      	str	r2, [r6, #0]
 8003510:	0028      	movs	r0, r5
 8003512:	f000 f82d 	bl	8003570 <__malloc_unlock>
 8003516:	0020      	movs	r0, r4
 8003518:	2207      	movs	r2, #7
 800351a:	300b      	adds	r0, #11
 800351c:	1d23      	adds	r3, r4, #4
 800351e:	4390      	bics	r0, r2
 8003520:	1ac2      	subs	r2, r0, r3
 8003522:	4298      	cmp	r0, r3
 8003524:	d0df      	beq.n	80034e6 <_malloc_r+0x86>
 8003526:	1a1b      	subs	r3, r3, r0
 8003528:	50a3      	str	r3, [r4, r2]
 800352a:	e7dc      	b.n	80034e6 <_malloc_r+0x86>
 800352c:	605a      	str	r2, [r3, #4]
 800352e:	e7ef      	b.n	8003510 <_malloc_r+0xb0>
 8003530:	0023      	movs	r3, r4
 8003532:	6864      	ldr	r4, [r4, #4]
 8003534:	e7a6      	b.n	8003484 <_malloc_r+0x24>
 8003536:	9c00      	ldr	r4, [sp, #0]
 8003538:	6863      	ldr	r3, [r4, #4]
 800353a:	9300      	str	r3, [sp, #0]
 800353c:	e7ad      	b.n	800349a <_malloc_r+0x3a>
 800353e:	001a      	movs	r2, r3
 8003540:	685b      	ldr	r3, [r3, #4]
 8003542:	42a3      	cmp	r3, r4
 8003544:	d1fb      	bne.n	800353e <_malloc_r+0xde>
 8003546:	2300      	movs	r3, #0
 8003548:	e7da      	b.n	8003500 <_malloc_r+0xa0>
 800354a:	230c      	movs	r3, #12
 800354c:	0028      	movs	r0, r5
 800354e:	602b      	str	r3, [r5, #0]
 8003550:	f000 f80e 	bl	8003570 <__malloc_unlock>
 8003554:	e7c6      	b.n	80034e4 <_malloc_r+0x84>
 8003556:	6007      	str	r7, [r0, #0]
 8003558:	e7da      	b.n	8003510 <_malloc_r+0xb0>
 800355a:	46c0      	nop			@ (mov r8, r8)
 800355c:	20000418 	.word	0x20000418

08003560 <__malloc_lock>:
 8003560:	b510      	push	{r4, lr}
 8003562:	4802      	ldr	r0, [pc, #8]	@ (800356c <__malloc_lock+0xc>)
 8003564:	f7ff ff0e 	bl	8003384 <__retarget_lock_acquire_recursive>
 8003568:	bd10      	pop	{r4, pc}
 800356a:	46c0      	nop			@ (mov r8, r8)
 800356c:	20000410 	.word	0x20000410

08003570 <__malloc_unlock>:
 8003570:	b510      	push	{r4, lr}
 8003572:	4802      	ldr	r0, [pc, #8]	@ (800357c <__malloc_unlock+0xc>)
 8003574:	f7ff ff07 	bl	8003386 <__retarget_lock_release_recursive>
 8003578:	bd10      	pop	{r4, pc}
 800357a:	46c0      	nop			@ (mov r8, r8)
 800357c:	20000410 	.word	0x20000410

08003580 <__ssputs_r>:
 8003580:	b5f0      	push	{r4, r5, r6, r7, lr}
 8003582:	688e      	ldr	r6, [r1, #8]
 8003584:	b085      	sub	sp, #20
 8003586:	001f      	movs	r7, r3
 8003588:	000c      	movs	r4, r1
 800358a:	680b      	ldr	r3, [r1, #0]
 800358c:	9002      	str	r0, [sp, #8]
 800358e:	9203      	str	r2, [sp, #12]
 8003590:	42be      	cmp	r6, r7
 8003592:	d830      	bhi.n	80035f6 <__ssputs_r+0x76>
 8003594:	210c      	movs	r1, #12
 8003596:	5e62      	ldrsh	r2, [r4, r1]
 8003598:	2190      	movs	r1, #144	@ 0x90
 800359a:	00c9      	lsls	r1, r1, #3
 800359c:	420a      	tst	r2, r1
 800359e:	d028      	beq.n	80035f2 <__ssputs_r+0x72>
 80035a0:	2003      	movs	r0, #3
 80035a2:	6921      	ldr	r1, [r4, #16]
 80035a4:	1a5b      	subs	r3, r3, r1
 80035a6:	9301      	str	r3, [sp, #4]
 80035a8:	6963      	ldr	r3, [r4, #20]
 80035aa:	4343      	muls	r3, r0
 80035ac:	9801      	ldr	r0, [sp, #4]
 80035ae:	0fdd      	lsrs	r5, r3, #31
 80035b0:	18ed      	adds	r5, r5, r3
 80035b2:	1c7b      	adds	r3, r7, #1
 80035b4:	181b      	adds	r3, r3, r0
 80035b6:	106d      	asrs	r5, r5, #1
 80035b8:	42ab      	cmp	r3, r5
 80035ba:	d900      	bls.n	80035be <__ssputs_r+0x3e>
 80035bc:	001d      	movs	r5, r3
 80035be:	0552      	lsls	r2, r2, #21
 80035c0:	d528      	bpl.n	8003614 <__ssputs_r+0x94>
 80035c2:	0029      	movs	r1, r5
 80035c4:	9802      	ldr	r0, [sp, #8]
 80035c6:	f7ff ff4b 	bl	8003460 <_malloc_r>
 80035ca:	1e06      	subs	r6, r0, #0
 80035cc:	d02c      	beq.n	8003628 <__ssputs_r+0xa8>
 80035ce:	9a01      	ldr	r2, [sp, #4]
 80035d0:	6921      	ldr	r1, [r4, #16]
 80035d2:	f000 fade 	bl	8003b92 <memcpy>
 80035d6:	89a2      	ldrh	r2, [r4, #12]
 80035d8:	4b18      	ldr	r3, [pc, #96]	@ (800363c <__ssputs_r+0xbc>)
 80035da:	401a      	ands	r2, r3
 80035dc:	2380      	movs	r3, #128	@ 0x80
 80035de:	4313      	orrs	r3, r2
 80035e0:	81a3      	strh	r3, [r4, #12]
 80035e2:	9b01      	ldr	r3, [sp, #4]
 80035e4:	6126      	str	r6, [r4, #16]
 80035e6:	18f6      	adds	r6, r6, r3
 80035e8:	6026      	str	r6, [r4, #0]
 80035ea:	003e      	movs	r6, r7
 80035ec:	6165      	str	r5, [r4, #20]
 80035ee:	1aed      	subs	r5, r5, r3
 80035f0:	60a5      	str	r5, [r4, #8]
 80035f2:	42be      	cmp	r6, r7
 80035f4:	d900      	bls.n	80035f8 <__ssputs_r+0x78>
 80035f6:	003e      	movs	r6, r7
 80035f8:	0032      	movs	r2, r6
 80035fa:	9903      	ldr	r1, [sp, #12]
 80035fc:	6820      	ldr	r0, [r4, #0]
 80035fe:	f000 fa99 	bl	8003b34 <memmove>
 8003602:	2000      	movs	r0, #0
 8003604:	68a3      	ldr	r3, [r4, #8]
 8003606:	1b9b      	subs	r3, r3, r6
 8003608:	60a3      	str	r3, [r4, #8]
 800360a:	6823      	ldr	r3, [r4, #0]
 800360c:	199b      	adds	r3, r3, r6
 800360e:	6023      	str	r3, [r4, #0]
 8003610:	b005      	add	sp, #20
 8003612:	bdf0      	pop	{r4, r5, r6, r7, pc}
 8003614:	002a      	movs	r2, r5
 8003616:	9802      	ldr	r0, [sp, #8]
 8003618:	f000 fac4 	bl	8003ba4 <_realloc_r>
 800361c:	1e06      	subs	r6, r0, #0
 800361e:	d1e0      	bne.n	80035e2 <__ssputs_r+0x62>
 8003620:	6921      	ldr	r1, [r4, #16]
 8003622:	9802      	ldr	r0, [sp, #8]
 8003624:	f7ff feb0 	bl	8003388 <_free_r>
 8003628:	230c      	movs	r3, #12
 800362a:	2001      	movs	r0, #1
 800362c:	9a02      	ldr	r2, [sp, #8]
 800362e:	4240      	negs	r0, r0
 8003630:	6013      	str	r3, [r2, #0]
 8003632:	89a2      	ldrh	r2, [r4, #12]
 8003634:	3334      	adds	r3, #52	@ 0x34
 8003636:	4313      	orrs	r3, r2
 8003638:	81a3      	strh	r3, [r4, #12]
 800363a:	e7e9      	b.n	8003610 <__ssputs_r+0x90>
 800363c:	fffffb7f 	.word	0xfffffb7f

08003640 <_svfiprintf_r>:
 8003640:	b5f0      	push	{r4, r5, r6, r7, lr}
 8003642:	b0a1      	sub	sp, #132	@ 0x84
 8003644:	9003      	str	r0, [sp, #12]
 8003646:	001d      	movs	r5, r3
 8003648:	898b      	ldrh	r3, [r1, #12]
 800364a:	000f      	movs	r7, r1
 800364c:	0016      	movs	r6, r2
 800364e:	061b      	lsls	r3, r3, #24
 8003650:	d511      	bpl.n	8003676 <_svfiprintf_r+0x36>
 8003652:	690b      	ldr	r3, [r1, #16]
 8003654:	2b00      	cmp	r3, #0
 8003656:	d10e      	bne.n	8003676 <_svfiprintf_r+0x36>
 8003658:	2140      	movs	r1, #64	@ 0x40
 800365a:	f7ff ff01 	bl	8003460 <_malloc_r>
 800365e:	6038      	str	r0, [r7, #0]
 8003660:	6138      	str	r0, [r7, #16]
 8003662:	2800      	cmp	r0, #0
 8003664:	d105      	bne.n	8003672 <_svfiprintf_r+0x32>
 8003666:	230c      	movs	r3, #12
 8003668:	9a03      	ldr	r2, [sp, #12]
 800366a:	6013      	str	r3, [r2, #0]
 800366c:	2001      	movs	r0, #1
 800366e:	4240      	negs	r0, r0
 8003670:	e0cf      	b.n	8003812 <_svfiprintf_r+0x1d2>
 8003672:	2340      	movs	r3, #64	@ 0x40
 8003674:	617b      	str	r3, [r7, #20]
 8003676:	2300      	movs	r3, #0
 8003678:	ac08      	add	r4, sp, #32
 800367a:	6163      	str	r3, [r4, #20]
 800367c:	3320      	adds	r3, #32
 800367e:	7663      	strb	r3, [r4, #25]
 8003680:	3310      	adds	r3, #16
 8003682:	76a3      	strb	r3, [r4, #26]
 8003684:	9507      	str	r5, [sp, #28]
 8003686:	0035      	movs	r5, r6
 8003688:	782b      	ldrb	r3, [r5, #0]
 800368a:	2b00      	cmp	r3, #0
 800368c:	d001      	beq.n	8003692 <_svfiprintf_r+0x52>
 800368e:	2b25      	cmp	r3, #37	@ 0x25
 8003690:	d148      	bne.n	8003724 <_svfiprintf_r+0xe4>
 8003692:	1bab      	subs	r3, r5, r6
 8003694:	9305      	str	r3, [sp, #20]
 8003696:	42b5      	cmp	r5, r6
 8003698:	d00b      	beq.n	80036b2 <_svfiprintf_r+0x72>
 800369a:	0032      	movs	r2, r6
 800369c:	0039      	movs	r1, r7
 800369e:	9803      	ldr	r0, [sp, #12]
 80036a0:	f7ff ff6e 	bl	8003580 <__ssputs_r>
 80036a4:	3001      	adds	r0, #1
 80036a6:	d100      	bne.n	80036aa <_svfiprintf_r+0x6a>
 80036a8:	e0ae      	b.n	8003808 <_svfiprintf_r+0x1c8>
 80036aa:	6963      	ldr	r3, [r4, #20]
 80036ac:	9a05      	ldr	r2, [sp, #20]
 80036ae:	189b      	adds	r3, r3, r2
 80036b0:	6163      	str	r3, [r4, #20]
 80036b2:	782b      	ldrb	r3, [r5, #0]
 80036b4:	2b00      	cmp	r3, #0
 80036b6:	d100      	bne.n	80036ba <_svfiprintf_r+0x7a>
 80036b8:	e0a6      	b.n	8003808 <_svfiprintf_r+0x1c8>
 80036ba:	2201      	movs	r2, #1
 80036bc:	2300      	movs	r3, #0
 80036be:	4252      	negs	r2, r2
 80036c0:	6062      	str	r2, [r4, #4]
 80036c2:	a904      	add	r1, sp, #16
 80036c4:	3254      	adds	r2, #84	@ 0x54
 80036c6:	1852      	adds	r2, r2, r1
 80036c8:	1c6e      	adds	r6, r5, #1
 80036ca:	6023      	str	r3, [r4, #0]
 80036cc:	60e3      	str	r3, [r4, #12]
 80036ce:	60a3      	str	r3, [r4, #8]
 80036d0:	7013      	strb	r3, [r2, #0]
 80036d2:	65a3      	str	r3, [r4, #88]	@ 0x58
 80036d4:	4b54      	ldr	r3, [pc, #336]	@ (8003828 <_svfiprintf_r+0x1e8>)
 80036d6:	2205      	movs	r2, #5
 80036d8:	0018      	movs	r0, r3
 80036da:	7831      	ldrb	r1, [r6, #0]
 80036dc:	9305      	str	r3, [sp, #20]
 80036de:	f000 fa4d 	bl	8003b7c <memchr>
 80036e2:	1c75      	adds	r5, r6, #1
 80036e4:	2800      	cmp	r0, #0
 80036e6:	d11f      	bne.n	8003728 <_svfiprintf_r+0xe8>
 80036e8:	6822      	ldr	r2, [r4, #0]
 80036ea:	06d3      	lsls	r3, r2, #27
 80036ec:	d504      	bpl.n	80036f8 <_svfiprintf_r+0xb8>
 80036ee:	2353      	movs	r3, #83	@ 0x53
 80036f0:	a904      	add	r1, sp, #16
 80036f2:	185b      	adds	r3, r3, r1
 80036f4:	2120      	movs	r1, #32
 80036f6:	7019      	strb	r1, [r3, #0]
 80036f8:	0713      	lsls	r3, r2, #28
 80036fa:	d504      	bpl.n	8003706 <_svfiprintf_r+0xc6>
 80036fc:	2353      	movs	r3, #83	@ 0x53
 80036fe:	a904      	add	r1, sp, #16
 8003700:	185b      	adds	r3, r3, r1
 8003702:	212b      	movs	r1, #43	@ 0x2b
 8003704:	7019      	strb	r1, [r3, #0]
 8003706:	7833      	ldrb	r3, [r6, #0]
 8003708:	2b2a      	cmp	r3, #42	@ 0x2a
 800370a:	d016      	beq.n	800373a <_svfiprintf_r+0xfa>
 800370c:	0035      	movs	r5, r6
 800370e:	2100      	movs	r1, #0
 8003710:	200a      	movs	r0, #10
 8003712:	68e3      	ldr	r3, [r4, #12]
 8003714:	782a      	ldrb	r2, [r5, #0]
 8003716:	1c6e      	adds	r6, r5, #1
 8003718:	3a30      	subs	r2, #48	@ 0x30
 800371a:	2a09      	cmp	r2, #9
 800371c:	d950      	bls.n	80037c0 <_svfiprintf_r+0x180>
 800371e:	2900      	cmp	r1, #0
 8003720:	d111      	bne.n	8003746 <_svfiprintf_r+0x106>
 8003722:	e017      	b.n	8003754 <_svfiprintf_r+0x114>
 8003724:	3501      	adds	r5, #1
 8003726:	e7af      	b.n	8003688 <_svfiprintf_r+0x48>
 8003728:	9b05      	ldr	r3, [sp, #20]
 800372a:	6822      	ldr	r2, [r4, #0]
 800372c:	1ac0      	subs	r0, r0, r3
 800372e:	2301      	movs	r3, #1
 8003730:	4083      	lsls	r3, r0
 8003732:	4313      	orrs	r3, r2
 8003734:	002e      	movs	r6, r5
 8003736:	6023      	str	r3, [r4, #0]
 8003738:	e7cc      	b.n	80036d4 <_svfiprintf_r+0x94>
 800373a:	9b07      	ldr	r3, [sp, #28]
 800373c:	1d19      	adds	r1, r3, #4
 800373e:	681b      	ldr	r3, [r3, #0]
 8003740:	9107      	str	r1, [sp, #28]
 8003742:	2b00      	cmp	r3, #0
 8003744:	db01      	blt.n	800374a <_svfiprintf_r+0x10a>
 8003746:	930b      	str	r3, [sp, #44]	@ 0x2c
 8003748:	e004      	b.n	8003754 <_svfiprintf_r+0x114>
 800374a:	425b      	negs	r3, r3
 800374c:	60e3      	str	r3, [r4, #12]
 800374e:	2302      	movs	r3, #2
 8003750:	4313      	orrs	r3, r2
 8003752:	6023      	str	r3, [r4, #0]
 8003754:	782b      	ldrb	r3, [r5, #0]
 8003756:	2b2e      	cmp	r3, #46	@ 0x2e
 8003758:	d10c      	bne.n	8003774 <_svfiprintf_r+0x134>
 800375a:	786b      	ldrb	r3, [r5, #1]
 800375c:	2b2a      	cmp	r3, #42	@ 0x2a
 800375e:	d134      	bne.n	80037ca <_svfiprintf_r+0x18a>
 8003760:	9b07      	ldr	r3, [sp, #28]
 8003762:	3502      	adds	r5, #2
 8003764:	1d1a      	adds	r2, r3, #4
 8003766:	681b      	ldr	r3, [r3, #0]
 8003768:	9207      	str	r2, [sp, #28]
 800376a:	2b00      	cmp	r3, #0
 800376c:	da01      	bge.n	8003772 <_svfiprintf_r+0x132>
 800376e:	2301      	movs	r3, #1
 8003770:	425b      	negs	r3, r3
 8003772:	9309      	str	r3, [sp, #36]	@ 0x24
 8003774:	4e2d      	ldr	r6, [pc, #180]	@ (800382c <_svfiprintf_r+0x1ec>)
 8003776:	2203      	movs	r2, #3
 8003778:	0030      	movs	r0, r6
 800377a:	7829      	ldrb	r1, [r5, #0]
 800377c:	f000 f9fe 	bl	8003b7c <memchr>
 8003780:	2800      	cmp	r0, #0
 8003782:	d006      	beq.n	8003792 <_svfiprintf_r+0x152>
 8003784:	2340      	movs	r3, #64	@ 0x40
 8003786:	1b80      	subs	r0, r0, r6
 8003788:	4083      	lsls	r3, r0
 800378a:	6822      	ldr	r2, [r4, #0]
 800378c:	3501      	adds	r5, #1
 800378e:	4313      	orrs	r3, r2
 8003790:	6023      	str	r3, [r4, #0]
 8003792:	7829      	ldrb	r1, [r5, #0]
 8003794:	2206      	movs	r2, #6
 8003796:	4826      	ldr	r0, [pc, #152]	@ (8003830 <_svfiprintf_r+0x1f0>)
 8003798:	1c6e      	adds	r6, r5, #1
 800379a:	7621      	strb	r1, [r4, #24]
 800379c:	f000 f9ee 	bl	8003b7c <memchr>
 80037a0:	2800      	cmp	r0, #0
 80037a2:	d038      	beq.n	8003816 <_svfiprintf_r+0x1d6>
 80037a4:	4b23      	ldr	r3, [pc, #140]	@ (8003834 <_svfiprintf_r+0x1f4>)
 80037a6:	2b00      	cmp	r3, #0
 80037a8:	d122      	bne.n	80037f0 <_svfiprintf_r+0x1b0>
 80037aa:	2207      	movs	r2, #7
 80037ac:	9b07      	ldr	r3, [sp, #28]
 80037ae:	3307      	adds	r3, #7
 80037b0:	4393      	bics	r3, r2
 80037b2:	3308      	adds	r3, #8
 80037b4:	9307      	str	r3, [sp, #28]
 80037b6:	6963      	ldr	r3, [r4, #20]
 80037b8:	9a04      	ldr	r2, [sp, #16]
 80037ba:	189b      	adds	r3, r3, r2
 80037bc:	6163      	str	r3, [r4, #20]
 80037be:	e762      	b.n	8003686 <_svfiprintf_r+0x46>
 80037c0:	4343      	muls	r3, r0
 80037c2:	0035      	movs	r5, r6
 80037c4:	2101      	movs	r1, #1
 80037c6:	189b      	adds	r3, r3, r2
 80037c8:	e7a4      	b.n	8003714 <_svfiprintf_r+0xd4>
 80037ca:	2300      	movs	r3, #0
 80037cc:	200a      	movs	r0, #10
 80037ce:	0019      	movs	r1, r3
 80037d0:	3501      	adds	r5, #1
 80037d2:	6063      	str	r3, [r4, #4]
 80037d4:	782a      	ldrb	r2, [r5, #0]
 80037d6:	1c6e      	adds	r6, r5, #1
 80037d8:	3a30      	subs	r2, #48	@ 0x30
 80037da:	2a09      	cmp	r2, #9
 80037dc:	d903      	bls.n	80037e6 <_svfiprintf_r+0x1a6>
 80037de:	2b00      	cmp	r3, #0
 80037e0:	d0c8      	beq.n	8003774 <_svfiprintf_r+0x134>
 80037e2:	9109      	str	r1, [sp, #36]	@ 0x24
 80037e4:	e7c6      	b.n	8003774 <_svfiprintf_r+0x134>
 80037e6:	4341      	muls	r1, r0
 80037e8:	0035      	movs	r5, r6
 80037ea:	2301      	movs	r3, #1
 80037ec:	1889      	adds	r1, r1, r2
 80037ee:	e7f1      	b.n	80037d4 <_svfiprintf_r+0x194>
 80037f0:	aa07      	add	r2, sp, #28
 80037f2:	9200      	str	r2, [sp, #0]
 80037f4:	0021      	movs	r1, r4
 80037f6:	003a      	movs	r2, r7
 80037f8:	4b0f      	ldr	r3, [pc, #60]	@ (8003838 <_svfiprintf_r+0x1f8>)
 80037fa:	9803      	ldr	r0, [sp, #12]
 80037fc:	e000      	b.n	8003800 <_svfiprintf_r+0x1c0>
 80037fe:	bf00      	nop
 8003800:	9004      	str	r0, [sp, #16]
 8003802:	9b04      	ldr	r3, [sp, #16]
 8003804:	3301      	adds	r3, #1
 8003806:	d1d6      	bne.n	80037b6 <_svfiprintf_r+0x176>
 8003808:	89bb      	ldrh	r3, [r7, #12]
 800380a:	980d      	ldr	r0, [sp, #52]	@ 0x34
 800380c:	065b      	lsls	r3, r3, #25
 800380e:	d500      	bpl.n	8003812 <_svfiprintf_r+0x1d2>
 8003810:	e72c      	b.n	800366c <_svfiprintf_r+0x2c>
 8003812:	b021      	add	sp, #132	@ 0x84
 8003814:	bdf0      	pop	{r4, r5, r6, r7, pc}
 8003816:	aa07      	add	r2, sp, #28
 8003818:	9200      	str	r2, [sp, #0]
 800381a:	0021      	movs	r1, r4
 800381c:	003a      	movs	r2, r7
 800381e:	4b06      	ldr	r3, [pc, #24]	@ (8003838 <_svfiprintf_r+0x1f8>)
 8003820:	9803      	ldr	r0, [sp, #12]
 8003822:	f000 f87b 	bl	800391c <_printf_i>
 8003826:	e7eb      	b.n	8003800 <_svfiprintf_r+0x1c0>
 8003828:	08003f3f 	.word	0x08003f3f
 800382c:	08003f45 	.word	0x08003f45
 8003830:	08003f49 	.word	0x08003f49
 8003834:	00000000 	.word	0x00000000
 8003838:	08003581 	.word	0x08003581

0800383c <_printf_common>:
 800383c:	b5f7      	push	{r0, r1, r2, r4, r5, r6, r7, lr}
 800383e:	0016      	movs	r6, r2
 8003840:	9301      	str	r3, [sp, #4]
 8003842:	688a      	ldr	r2, [r1, #8]
 8003844:	690b      	ldr	r3, [r1, #16]
 8003846:	000c      	movs	r4, r1
 8003848:	9000      	str	r0, [sp, #0]
 800384a:	4293      	cmp	r3, r2
 800384c:	da00      	bge.n	8003850 <_printf_common+0x14>
 800384e:	0013      	movs	r3, r2
 8003850:	0022      	movs	r2, r4
 8003852:	6033      	str	r3, [r6, #0]
 8003854:	3243      	adds	r2, #67	@ 0x43
 8003856:	7812      	ldrb	r2, [r2, #0]
 8003858:	2a00      	cmp	r2, #0
 800385a:	d001      	beq.n	8003860 <_printf_common+0x24>
 800385c:	3301      	adds	r3, #1
 800385e:	6033      	str	r3, [r6, #0]
 8003860:	6823      	ldr	r3, [r4, #0]
 8003862:	069b      	lsls	r3, r3, #26
 8003864:	d502      	bpl.n	800386c <_printf_common+0x30>
 8003866:	6833      	ldr	r3, [r6, #0]
 8003868:	3302      	adds	r3, #2
 800386a:	6033      	str	r3, [r6, #0]
 800386c:	6822      	ldr	r2, [r4, #0]
 800386e:	2306      	movs	r3, #6
 8003870:	0015      	movs	r5, r2
 8003872:	401d      	ands	r5, r3
 8003874:	421a      	tst	r2, r3
 8003876:	d027      	beq.n	80038c8 <_printf_common+0x8c>
 8003878:	0023      	movs	r3, r4
 800387a:	3343      	adds	r3, #67	@ 0x43
 800387c:	781b      	ldrb	r3, [r3, #0]
 800387e:	1e5a      	subs	r2, r3, #1
 8003880:	4193      	sbcs	r3, r2
 8003882:	6822      	ldr	r2, [r4, #0]
 8003884:	0692      	lsls	r2, r2, #26
 8003886:	d430      	bmi.n	80038ea <_printf_common+0xae>
 8003888:	0022      	movs	r2, r4
 800388a:	9901      	ldr	r1, [sp, #4]
 800388c:	9800      	ldr	r0, [sp, #0]
 800388e:	9d08      	ldr	r5, [sp, #32]
 8003890:	3243      	adds	r2, #67	@ 0x43
 8003892:	47a8      	blx	r5
 8003894:	3001      	adds	r0, #1
 8003896:	d025      	beq.n	80038e4 <_printf_common+0xa8>
 8003898:	2206      	movs	r2, #6
 800389a:	6823      	ldr	r3, [r4, #0]
 800389c:	2500      	movs	r5, #0
 800389e:	4013      	ands	r3, r2
 80038a0:	2b04      	cmp	r3, #4
 80038a2:	d105      	bne.n	80038b0 <_printf_common+0x74>
 80038a4:	6833      	ldr	r3, [r6, #0]
 80038a6:	68e5      	ldr	r5, [r4, #12]
 80038a8:	1aed      	subs	r5, r5, r3
 80038aa:	43eb      	mvns	r3, r5
 80038ac:	17db      	asrs	r3, r3, #31
 80038ae:	401d      	ands	r5, r3
 80038b0:	68a3      	ldr	r3, [r4, #8]
 80038b2:	6922      	ldr	r2, [r4, #16]
 80038b4:	4293      	cmp	r3, r2
 80038b6:	dd01      	ble.n	80038bc <_printf_common+0x80>
 80038b8:	1a9b      	subs	r3, r3, r2
 80038ba:	18ed      	adds	r5, r5, r3
 80038bc:	2600      	movs	r6, #0
 80038be:	42b5      	cmp	r5, r6
 80038c0:	d120      	bne.n	8003904 <_printf_common+0xc8>
 80038c2:	2000      	movs	r0, #0
 80038c4:	e010      	b.n	80038e8 <_printf_common+0xac>
 80038c6:	3501      	adds	r5, #1
 80038c8:	68e3      	ldr	r3, [r4, #12]
 80038ca:	6832      	ldr	r2, [r6, #0]
 80038cc:	1a9b      	subs	r3, r3, r2
 80038ce:	42ab      	cmp	r3, r5
 80038d0:	ddd2      	ble.n	8003878 <_printf_common+0x3c>
 80038d2:	0022      	movs	r2, r4
 80038d4:	2301      	movs	r3, #1
 80038d6:	9901      	ldr	r1, [sp, #4]
 80038d8:	9800      	ldr	r0, [sp, #0]
 80038da:	9f08      	ldr	r7, [sp, #32]
 80038dc:	3219      	adds	r2, #25
 80038de:	47b8      	blx	r7
 80038e0:	3001      	adds	r0, #1
 80038e2:	d1f0      	bne.n	80038c6 <_printf_common+0x8a>
 80038e4:	2001      	movs	r0, #1
 80038e6:	4240      	negs	r0, r0
 80038e8:	bdfe      	pop	{r1, r2, r3, r4, r5, r6, r7, pc}
 80038ea:	2030      	movs	r0, #48	@ 0x30
 80038ec:	18e1      	adds	r1, r4, r3
 80038ee:	3143      	adds	r1, #67	@ 0x43
 80038f0:	7008      	strb	r0, [r1, #0]
 80038f2:	0021      	movs	r1, r4
 80038f4:	1c5a      	adds	r2, r3, #1
 80038f6:	3145      	adds	r1, #69	@ 0x45
 80038f8:	7809      	ldrb	r1, [r1, #0]
 80038fa:	18a2      	adds	r2, r4, r2
 80038fc:	3243      	adds	r2, #67	@ 0x43
 80038fe:	3302      	adds	r3, #2
 8003900:	7011      	strb	r1, [r2, #0]
 8003902:	e7c1      	b.n	8003888 <_printf_common+0x4c>
 8003904:	0022      	movs	r2, r4
 8003906:	2301      	movs	r3, #1
 8003908:	9901      	ldr	r1, [sp, #4]
 800390a:	9800      	ldr	r0, [sp, #0]
 800390c:	9f08      	ldr	r7, [sp, #32]
 800390e:	321a      	adds	r2, #26
 8003910:	47b8      	blx	r7
 8003912:	3001      	adds	r0, #1
 8003914:	d0e6      	beq.n	80038e4 <_printf_common+0xa8>
 8003916:	3601      	adds	r6, #1
 8003918:	e7d1      	b.n	80038be <_printf_common+0x82>
	...

0800391c <_printf_i>:
 800391c:	b5f0      	push	{r4, r5, r6, r7, lr}
 800391e:	b08b      	sub	sp, #44	@ 0x2c
 8003920:	9206      	str	r2, [sp, #24]
 8003922:	000a      	movs	r2, r1
 8003924:	3243      	adds	r2, #67	@ 0x43
 8003926:	9307      	str	r3, [sp, #28]
 8003928:	9005      	str	r0, [sp, #20]
 800392a:	9203      	str	r2, [sp, #12]
 800392c:	7e0a      	ldrb	r2, [r1, #24]
 800392e:	000c      	movs	r4, r1
 8003930:	9b10      	ldr	r3, [sp, #64]	@ 0x40
 8003932:	2a78      	cmp	r2, #120	@ 0x78
 8003934:	d809      	bhi.n	800394a <_printf_i+0x2e>
 8003936:	2a62      	cmp	r2, #98	@ 0x62
 8003938:	d80b      	bhi.n	8003952 <_printf_i+0x36>
 800393a:	2a00      	cmp	r2, #0
 800393c:	d100      	bne.n	8003940 <_printf_i+0x24>
 800393e:	e0ba      	b.n	8003ab6 <_printf_i+0x19a>
 8003940:	497a      	ldr	r1, [pc, #488]	@ (8003b2c <_printf_i+0x210>)
 8003942:	9104      	str	r1, [sp, #16]
 8003944:	2a58      	cmp	r2, #88	@ 0x58
 8003946:	d100      	bne.n	800394a <_printf_i+0x2e>
 8003948:	e08e      	b.n	8003a68 <_printf_i+0x14c>
 800394a:	0025      	movs	r5, r4
 800394c:	3542      	adds	r5, #66	@ 0x42
 800394e:	702a      	strb	r2, [r5, #0]
 8003950:	e022      	b.n	8003998 <_printf_i+0x7c>
 8003952:	0010      	movs	r0, r2
 8003954:	3863      	subs	r0, #99	@ 0x63
 8003956:	2815      	cmp	r0, #21
 8003958:	d8f7      	bhi.n	800394a <_printf_i+0x2e>
 800395a:	f7fc fbe7 	bl	800012c <__gnu_thumb1_case_shi>
 800395e:	0016      	.short	0x0016
 8003960:	fff6001f 	.word	0xfff6001f
 8003964:	fff6fff6 	.word	0xfff6fff6
 8003968:	001ffff6 	.word	0x001ffff6
 800396c:	fff6fff6 	.word	0xfff6fff6
 8003970:	fff6fff6 	.word	0xfff6fff6
 8003974:	0036009f 	.word	0x0036009f
 8003978:	fff6007e 	.word	0xfff6007e
 800397c:	00b0fff6 	.word	0x00b0fff6
 8003980:	0036fff6 	.word	0x0036fff6
 8003984:	fff6fff6 	.word	0xfff6fff6
 8003988:	0082      	.short	0x0082
 800398a:	0025      	movs	r5, r4
 800398c:	681a      	ldr	r2, [r3, #0]
 800398e:	3542      	adds	r5, #66	@ 0x42
 8003990:	1d11      	adds	r1, r2, #4
 8003992:	6019      	str	r1, [r3, #0]
 8003994:	6813      	ldr	r3, [r2, #0]
 8003996:	702b      	strb	r3, [r5, #0]
 8003998:	2301      	movs	r3, #1
 800399a:	e09e      	b.n	8003ada <_printf_i+0x1be>
 800399c:	6818      	ldr	r0, [r3, #0]
 800399e:	6809      	ldr	r1, [r1, #0]
 80039a0:	1d02      	adds	r2, r0, #4
 80039a2:	060d      	lsls	r5, r1, #24
 80039a4:	d50b      	bpl.n	80039be <_printf_i+0xa2>
 80039a6:	6806      	ldr	r6, [r0, #0]
 80039a8:	601a      	str	r2, [r3, #0]
 80039aa:	2e00      	cmp	r6, #0
 80039ac:	da03      	bge.n	80039b6 <_printf_i+0x9a>
 80039ae:	232d      	movs	r3, #45	@ 0x2d
 80039b0:	9a03      	ldr	r2, [sp, #12]
 80039b2:	4276      	negs	r6, r6
 80039b4:	7013      	strb	r3, [r2, #0]
 80039b6:	4b5d      	ldr	r3, [pc, #372]	@ (8003b2c <_printf_i+0x210>)
 80039b8:	270a      	movs	r7, #10
 80039ba:	9304      	str	r3, [sp, #16]
 80039bc:	e018      	b.n	80039f0 <_printf_i+0xd4>
 80039be:	6806      	ldr	r6, [r0, #0]
 80039c0:	601a      	str	r2, [r3, #0]
 80039c2:	0649      	lsls	r1, r1, #25
 80039c4:	d5f1      	bpl.n	80039aa <_printf_i+0x8e>
 80039c6:	b236      	sxth	r6, r6
 80039c8:	e7ef      	b.n	80039aa <_printf_i+0x8e>
 80039ca:	6808      	ldr	r0, [r1, #0]
 80039cc:	6819      	ldr	r1, [r3, #0]
 80039ce:	c940      	ldmia	r1!, {r6}
 80039d0:	0605      	lsls	r5, r0, #24
 80039d2:	d402      	bmi.n	80039da <_printf_i+0xbe>
 80039d4:	0640      	lsls	r0, r0, #25
 80039d6:	d500      	bpl.n	80039da <_printf_i+0xbe>
 80039d8:	b2b6      	uxth	r6, r6
 80039da:	6019      	str	r1, [r3, #0]
 80039dc:	4b53      	ldr	r3, [pc, #332]	@ (8003b2c <_printf_i+0x210>)
 80039de:	270a      	movs	r7, #10
 80039e0:	9304      	str	r3, [sp, #16]
 80039e2:	2a6f      	cmp	r2, #111	@ 0x6f
 80039e4:	d100      	bne.n	80039e8 <_printf_i+0xcc>
 80039e6:	3f02      	subs	r7, #2
 80039e8:	0023      	movs	r3, r4
 80039ea:	2200      	movs	r2, #0
 80039ec:	3343      	adds	r3, #67	@ 0x43
 80039ee:	701a      	strb	r2, [r3, #0]
 80039f0:	6863      	ldr	r3, [r4, #4]
 80039f2:	60a3      	str	r3, [r4, #8]
 80039f4:	2b00      	cmp	r3, #0
 80039f6:	db06      	blt.n	8003a06 <_printf_i+0xea>
 80039f8:	2104      	movs	r1, #4
 80039fa:	6822      	ldr	r2, [r4, #0]
 80039fc:	9d03      	ldr	r5, [sp, #12]
 80039fe:	438a      	bics	r2, r1
 8003a00:	6022      	str	r2, [r4, #0]
 8003a02:	4333      	orrs	r3, r6
 8003a04:	d00c      	beq.n	8003a20 <_printf_i+0x104>
 8003a06:	9d03      	ldr	r5, [sp, #12]
 8003a08:	0030      	movs	r0, r6
 8003a0a:	0039      	movs	r1, r7
 8003a0c:	f7fc fc1e 	bl	800024c <__aeabi_uidivmod>
 8003a10:	9b04      	ldr	r3, [sp, #16]
 8003a12:	3d01      	subs	r5, #1
 8003a14:	5c5b      	ldrb	r3, [r3, r1]
 8003a16:	702b      	strb	r3, [r5, #0]
 8003a18:	0033      	movs	r3, r6
 8003a1a:	0006      	movs	r6, r0
 8003a1c:	429f      	cmp	r7, r3
 8003a1e:	d9f3      	bls.n	8003a08 <_printf_i+0xec>
 8003a20:	2f08      	cmp	r7, #8
 8003a22:	d109      	bne.n	8003a38 <_printf_i+0x11c>
 8003a24:	6823      	ldr	r3, [r4, #0]
 8003a26:	07db      	lsls	r3, r3, #31
 8003a28:	d506      	bpl.n	8003a38 <_printf_i+0x11c>
 8003a2a:	6862      	ldr	r2, [r4, #4]
 8003a2c:	6923      	ldr	r3, [r4, #16]
 8003a2e:	429a      	cmp	r2, r3
 8003a30:	dc02      	bgt.n	8003a38 <_printf_i+0x11c>
 8003a32:	2330      	movs	r3, #48	@ 0x30
 8003a34:	3d01      	subs	r5, #1
 8003a36:	702b      	strb	r3, [r5, #0]
 8003a38:	9b03      	ldr	r3, [sp, #12]
 8003a3a:	1b5b      	subs	r3, r3, r5
 8003a3c:	6123      	str	r3, [r4, #16]
 8003a3e:	9b07      	ldr	r3, [sp, #28]
 8003a40:	0021      	movs	r1, r4
 8003a42:	9300      	str	r3, [sp, #0]
 8003a44:	9805      	ldr	r0, [sp, #20]
 8003a46:	9b06      	ldr	r3, [sp, #24]
 8003a48:	aa09      	add	r2, sp, #36	@ 0x24
 8003a4a:	f7ff fef7 	bl	800383c <_printf_common>
 8003a4e:	3001      	adds	r0, #1
 8003a50:	d148      	bne.n	8003ae4 <_printf_i+0x1c8>
 8003a52:	2001      	movs	r0, #1
 8003a54:	4240      	negs	r0, r0
 8003a56:	b00b      	add	sp, #44	@ 0x2c
 8003a58:	bdf0      	pop	{r4, r5, r6, r7, pc}
 8003a5a:	2220      	movs	r2, #32
 8003a5c:	6809      	ldr	r1, [r1, #0]
 8003a5e:	430a      	orrs	r2, r1
 8003a60:	6022      	str	r2, [r4, #0]
 8003a62:	2278      	movs	r2, #120	@ 0x78
 8003a64:	4932      	ldr	r1, [pc, #200]	@ (8003b30 <_printf_i+0x214>)
 8003a66:	9104      	str	r1, [sp, #16]
 8003a68:	0021      	movs	r1, r4
 8003a6a:	3145      	adds	r1, #69	@ 0x45
 8003a6c:	700a      	strb	r2, [r1, #0]
 8003a6e:	6819      	ldr	r1, [r3, #0]
 8003a70:	6822      	ldr	r2, [r4, #0]
 8003a72:	c940      	ldmia	r1!, {r6}
 8003a74:	0610      	lsls	r0, r2, #24
 8003a76:	d402      	bmi.n	8003a7e <_printf_i+0x162>
 8003a78:	0650      	lsls	r0, r2, #25
 8003a7a:	d500      	bpl.n	8003a7e <_printf_i+0x162>
 8003a7c:	b2b6      	uxth	r6, r6
 8003a7e:	6019      	str	r1, [r3, #0]
 8003a80:	07d3      	lsls	r3, r2, #31
 8003a82:	d502      	bpl.n	8003a8a <_printf_i+0x16e>
 8003a84:	2320      	movs	r3, #32
 8003a86:	4313      	orrs	r3, r2
 8003a88:	6023      	str	r3, [r4, #0]
 8003a8a:	2e00      	cmp	r6, #0
 8003a8c:	d001      	beq.n	8003a92 <_printf_i+0x176>
 8003a8e:	2710      	movs	r7, #16
 8003a90:	e7aa      	b.n	80039e8 <_printf_i+0xcc>
 8003a92:	2220      	movs	r2, #32
 8003a94:	6823      	ldr	r3, [r4, #0]
 8003a96:	4393      	bics	r3, r2
 8003a98:	6023      	str	r3, [r4, #0]
 8003a9a:	e7f8      	b.n	8003a8e <_printf_i+0x172>
 8003a9c:	681a      	ldr	r2, [r3, #0]
 8003a9e:	680d      	ldr	r5, [r1, #0]
 8003aa0:	1d10      	adds	r0, r2, #4
 8003aa2:	6949      	ldr	r1, [r1, #20]
 8003aa4:	6018      	str	r0, [r3, #0]
 8003aa6:	6813      	ldr	r3, [r2, #0]
 8003aa8:	062e      	lsls	r6, r5, #24
 8003aaa:	d501      	bpl.n	8003ab0 <_printf_i+0x194>
 8003aac:	6019      	str	r1, [r3, #0]
 8003aae:	e002      	b.n	8003ab6 <_printf_i+0x19a>
 8003ab0:	066d      	lsls	r5, r5, #25
 8003ab2:	d5fb      	bpl.n	8003aac <_printf_i+0x190>
 8003ab4:	8019      	strh	r1, [r3, #0]
 8003ab6:	2300      	movs	r3, #0
 8003ab8:	9d03      	ldr	r5, [sp, #12]
 8003aba:	6123      	str	r3, [r4, #16]
 8003abc:	e7bf      	b.n	8003a3e <_printf_i+0x122>
 8003abe:	681a      	ldr	r2, [r3, #0]
 8003ac0:	1d11      	adds	r1, r2, #4
 8003ac2:	6019      	str	r1, [r3, #0]
 8003ac4:	6815      	ldr	r5, [r2, #0]
 8003ac6:	2100      	movs	r1, #0
 8003ac8:	0028      	movs	r0, r5
 8003aca:	6862      	ldr	r2, [r4, #4]
 8003acc:	f000 f856 	bl	8003b7c <memchr>
 8003ad0:	2800      	cmp	r0, #0
 8003ad2:	d001      	beq.n	8003ad8 <_printf_i+0x1bc>
 8003ad4:	1b40      	subs	r0, r0, r5
 8003ad6:	6060      	str	r0, [r4, #4]
 8003ad8:	6863      	ldr	r3, [r4, #4]
 8003ada:	6123      	str	r3, [r4, #16]
 8003adc:	2300      	movs	r3, #0
 8003ade:	9a03      	ldr	r2, [sp, #12]
 8003ae0:	7013      	strb	r3, [r2, #0]
 8003ae2:	e7ac      	b.n	8003a3e <_printf_i+0x122>
 8003ae4:	002a      	movs	r2, r5
 8003ae6:	6923      	ldr	r3, [r4, #16]
 8003ae8:	9906      	ldr	r1, [sp, #24]
 8003aea:	9805      	ldr	r0, [sp, #20]
 8003aec:	9d07      	ldr	r5, [sp, #28]
 8003aee:	47a8      	blx	r5
 8003af0:	3001      	adds	r0, #1
 8003af2:	d0ae      	beq.n	8003a52 <_printf_i+0x136>
 8003af4:	6823      	ldr	r3, [r4, #0]
 8003af6:	079b      	lsls	r3, r3, #30
 8003af8:	d415      	bmi.n	8003b26 <_printf_i+0x20a>
 8003afa:	9b09      	ldr	r3, [sp, #36]	@ 0x24
 8003afc:	68e0      	ldr	r0, [r4, #12]
 8003afe:	4298      	cmp	r0, r3
 8003b00:	daa9      	bge.n	8003a56 <_printf_i+0x13a>
 8003b02:	0018      	movs	r0, r3
 8003b04:	e7a7      	b.n	8003a56 <_printf_i+0x13a>
 8003b06:	0022      	movs	r2, r4
 8003b08:	2301      	movs	r3, #1
 8003b0a:	9906      	ldr	r1, [sp, #24]
 8003b0c:	9805      	ldr	r0, [sp, #20]
 8003b0e:	9e07      	ldr	r6, [sp, #28]
 8003b10:	3219      	adds	r2, #25
 8003b12:	47b0      	blx	r6
 8003b14:	3001      	adds	r0, #1
 8003b16:	d09c      	beq.n	8003a52 <_printf_i+0x136>
 8003b18:	3501      	adds	r5, #1
 8003b1a:	68e3      	ldr	r3, [r4, #12]
 8003b1c:	9a09      	ldr	r2, [sp, #36]	@ 0x24
 8003b1e:	1a9b      	subs	r3, r3, r2
 8003b20:	42ab      	cmp	r3, r5
 8003b22:	dcf0      	bgt.n	8003b06 <_printf_i+0x1ea>
 8003b24:	e7e9      	b.n	8003afa <_printf_i+0x1de>
 8003b26:	2500      	movs	r5, #0
 8003b28:	e7f7      	b.n	8003b1a <_printf_i+0x1fe>
 8003b2a:	46c0      	nop			@ (mov r8, r8)
 8003b2c:	08003f50 	.word	0x08003f50
 8003b30:	08003f61 	.word	0x08003f61

08003b34 <memmove>:
 8003b34:	b510      	push	{r4, lr}
 8003b36:	4288      	cmp	r0, r1
 8003b38:	d902      	bls.n	8003b40 <memmove+0xc>
 8003b3a:	188b      	adds	r3, r1, r2
 8003b3c:	4298      	cmp	r0, r3
 8003b3e:	d308      	bcc.n	8003b52 <memmove+0x1e>
 8003b40:	2300      	movs	r3, #0
 8003b42:	429a      	cmp	r2, r3
 8003b44:	d007      	beq.n	8003b56 <memmove+0x22>
 8003b46:	5ccc      	ldrb	r4, [r1, r3]
 8003b48:	54c4      	strb	r4, [r0, r3]
 8003b4a:	3301      	adds	r3, #1
 8003b4c:	e7f9      	b.n	8003b42 <memmove+0xe>
 8003b4e:	5c8b      	ldrb	r3, [r1, r2]
 8003b50:	5483      	strb	r3, [r0, r2]
 8003b52:	3a01      	subs	r2, #1
 8003b54:	d2fb      	bcs.n	8003b4e <memmove+0x1a>
 8003b56:	bd10      	pop	{r4, pc}

08003b58 <_sbrk_r>:
 8003b58:	2300      	movs	r3, #0
 8003b5a:	b570      	push	{r4, r5, r6, lr}
 8003b5c:	4d06      	ldr	r5, [pc, #24]	@ (8003b78 <_sbrk_r+0x20>)
 8003b5e:	0004      	movs	r4, r0
 8003b60:	0008      	movs	r0, r1
 8003b62:	602b      	str	r3, [r5, #0]
 8003b64:	f7fd f94a 	bl	8000dfc <_sbrk>
 8003b68:	1c43      	adds	r3, r0, #1
 8003b6a:	d103      	bne.n	8003b74 <_sbrk_r+0x1c>
 8003b6c:	682b      	ldr	r3, [r5, #0]
 8003b6e:	2b00      	cmp	r3, #0
 8003b70:	d000      	beq.n	8003b74 <_sbrk_r+0x1c>
 8003b72:	6023      	str	r3, [r4, #0]
 8003b74:	bd70      	pop	{r4, r5, r6, pc}
 8003b76:	46c0      	nop			@ (mov r8, r8)
 8003b78:	2000040c 	.word	0x2000040c

08003b7c <memchr>:
 8003b7c:	b2c9      	uxtb	r1, r1
 8003b7e:	1882      	adds	r2, r0, r2
 8003b80:	4290      	cmp	r0, r2
 8003b82:	d101      	bne.n	8003b88 <memchr+0xc>
 8003b84:	2000      	movs	r0, #0
 8003b86:	4770      	bx	lr
 8003b88:	7803      	ldrb	r3, [r0, #0]
 8003b8a:	428b      	cmp	r3, r1
 8003b8c:	d0fb      	beq.n	8003b86 <memchr+0xa>
 8003b8e:	3001      	adds	r0, #1
 8003b90:	e7f6      	b.n	8003b80 <memchr+0x4>

08003b92 <memcpy>:
 8003b92:	2300      	movs	r3, #0
 8003b94:	b510      	push	{r4, lr}
 8003b96:	429a      	cmp	r2, r3
 8003b98:	d100      	bne.n	8003b9c <memcpy+0xa>
 8003b9a:	bd10      	pop	{r4, pc}
 8003b9c:	5ccc      	ldrb	r4, [r1, r3]
 8003b9e:	54c4      	strb	r4, [r0, r3]
 8003ba0:	3301      	adds	r3, #1
 8003ba2:	e7f8      	b.n	8003b96 <memcpy+0x4>

08003ba4 <_realloc_r>:
 8003ba4:	b5f7      	push	{r0, r1, r2, r4, r5, r6, r7, lr}
 8003ba6:	0006      	movs	r6, r0
 8003ba8:	000c      	movs	r4, r1
 8003baa:	0015      	movs	r5, r2
 8003bac:	2900      	cmp	r1, #0
 8003bae:	d105      	bne.n	8003bbc <_realloc_r+0x18>
 8003bb0:	0011      	movs	r1, r2
 8003bb2:	f7ff fc55 	bl	8003460 <_malloc_r>
 8003bb6:	0004      	movs	r4, r0
 8003bb8:	0020      	movs	r0, r4
 8003bba:	bdfe      	pop	{r1, r2, r3, r4, r5, r6, r7, pc}
 8003bbc:	2a00      	cmp	r2, #0
 8003bbe:	d103      	bne.n	8003bc8 <_realloc_r+0x24>
 8003bc0:	f7ff fbe2 	bl	8003388 <_free_r>
 8003bc4:	002c      	movs	r4, r5
 8003bc6:	e7f7      	b.n	8003bb8 <_realloc_r+0x14>
 8003bc8:	f000 f81c 	bl	8003c04 <_malloc_usable_size_r>
 8003bcc:	0007      	movs	r7, r0
 8003bce:	4285      	cmp	r5, r0
 8003bd0:	d802      	bhi.n	8003bd8 <_realloc_r+0x34>
 8003bd2:	0843      	lsrs	r3, r0, #1
 8003bd4:	42ab      	cmp	r3, r5
 8003bd6:	d3ef      	bcc.n	8003bb8 <_realloc_r+0x14>
 8003bd8:	0029      	movs	r1, r5
 8003bda:	0030      	movs	r0, r6
 8003bdc:	f7ff fc40 	bl	8003460 <_malloc_r>
 8003be0:	9001      	str	r0, [sp, #4]
 8003be2:	2800      	cmp	r0, #0
 8003be4:	d101      	bne.n	8003bea <_realloc_r+0x46>
 8003be6:	9c01      	ldr	r4, [sp, #4]
 8003be8:	e7e6      	b.n	8003bb8 <_realloc_r+0x14>
 8003bea:	002a      	movs	r2, r5
 8003bec:	42bd      	cmp	r5, r7
 8003bee:	d900      	bls.n	8003bf2 <_realloc_r+0x4e>
 8003bf0:	003a      	movs	r2, r7
 8003bf2:	0021      	movs	r1, r4
 8003bf4:	9801      	ldr	r0, [sp, #4]
 8003bf6:	f7ff ffcc 	bl	8003b92 <memcpy>
 8003bfa:	0021      	movs	r1, r4
 8003bfc:	0030      	movs	r0, r6
 8003bfe:	f7ff fbc3 	bl	8003388 <_free_r>
 8003c02:	e7f0      	b.n	8003be6 <_realloc_r+0x42>

08003c04 <_malloc_usable_size_r>:
 8003c04:	1f0b      	subs	r3, r1, #4
 8003c06:	681b      	ldr	r3, [r3, #0]
 8003c08:	1f18      	subs	r0, r3, #4
 8003c0a:	2b00      	cmp	r3, #0
 8003c0c:	da01      	bge.n	8003c12 <_malloc_usable_size_r+0xe>
 8003c0e:	580b      	ldr	r3, [r1, r0]
 8003c10:	18c0      	adds	r0, r0, r3
 8003c12:	4770      	bx	lr

08003c14 <_init>:
 8003c14:	b5f8      	push	{r3, r4, r5, r6, r7, lr}
 8003c16:	46c0      	nop			@ (mov r8, r8)
 8003c18:	bcf8      	pop	{r3, r4, r5, r6, r7}
 8003c1a:	bc08      	pop	{r3}
 8003c1c:	469e      	mov	lr, r3
 8003c1e:	4770      	bx	lr

08003c20 <_fini>:
 8003c20:	b5f8      	push	{r3, r4, r5, r6, r7, lr}
 8003c22:	46c0      	nop			@ (mov r8, r8)
 8003c24:	bcf8      	pop	{r3, r4, r5, r6, r7}
 8003c26:	bc08      	pop	{r3}
 8003c28:	469e      	mov	lr, r3
 8003c2a:	4770      	bx	lr
